

Microchip MPLAB XC8 Assembler V2.41 build 20230208172133 
                                                                                               Sun Oct 15 19:15:23 2023

Microchip MPLAB XC8 C Compiler v2.41 (Free license) build 20230208172133 Og1 
     1                           	processor	16F877A
     2                           	pagewidth 120
     3                           	opt	flic
     4                           	psect	idataCOMMON,global,class=CODE,delta=2,noexec
     5                           	psect	idataBANK0,global,class=CODE,delta=2,noexec
     6                           	psect	idataBANK1,global,class=CODE,delta=2,noexec
     7                           	psect	idataBANK3,global,class=CODE,delta=2,noexec
     8                           	psect	strings,global,class=STRING,delta=2,noexec
     9                           	psect	stringtext,global,reloc=256,class=STRCODE,delta=2,noexec
    10                           	psect	cinit,global,class=CODE,merge=1,delta=2
    11                           	psect	bssCOMMON,global,class=COMMON,space=1,delta=1,noexec
    12                           	psect	dataCOMMON,global,class=COMMON,space=1,delta=1,noexec
    13                           	psect	bssBANK0,global,class=BANK0,space=1,delta=1,noexec
    14                           	psect	dataBANK0,global,class=BANK0,space=1,delta=1,noexec
    15                           	psect	bssBANK1,global,class=BANK1,space=1,delta=1,noexec
    16                           	psect	dataBANK1,global,class=BANK1,space=1,delta=1,noexec
    17                           	psect	bssBANK3,global,class=BANK3,space=1,delta=1,noexec
    18                           	psect	dataBANK3,global,class=BANK3,space=1,delta=1,noexec
    19                           	psect	inittext,global,class=CODE,delta=2
    20                           	psect	clrtext,global,class=CODE,delta=2
    21                           	psect	cstackBANK3,global,class=BANK3,space=1,delta=1,noexec
    22                           	psect	cstackCOMMON,global,class=COMMON,space=1,delta=1,noexec
    23                           	psect	cstackBANK0,global,class=BANK0,space=1,delta=1,noexec
    24                           	psect	maintext,global,class=CODE,split=1,delta=2
    25                           	psect	text1,local,class=CODE,merge=1,delta=2
    26                           	psect	text2,local,class=CODE,merge=1,delta=2
    27                           	psect	text3,local,class=CODE,merge=1,delta=2
    28                           	psect	text4,local,class=CODE,merge=1,delta=2
    29                           	psect	text5,local,class=CODE,merge=1,delta=2
    30                           	psect	text6,local,class=CODE,merge=1,delta=2,group=1
    31                           	psect	text7,local,class=CODE,merge=1,delta=2
    32                           	psect	text8,local,class=CODE,merge=1,delta=2
    33                           	psect	text9,local,class=CODE,merge=1,delta=2
    34                           	psect	text10,local,class=CODE,merge=1,delta=2
    35                           	psect	text11,local,class=CODE,merge=1,delta=2
    36                           	psect	text12,local,class=CODE,merge=1,delta=2
    37                           	psect	text13,local,class=CODE,merge=1,delta=2
    38                           	psect	text14,local,class=CODE,merge=1,delta=2
    39                           	psect	text15,local,class=CODE,merge=1,delta=2
    40                           	psect	text16,local,class=CODE,merge=1,delta=2
    41                           	psect	text17,local,class=CODE,merge=1,delta=2
    42                           	psect	text18,local,class=CODE,merge=1,delta=2,group=1
    43                           	psect	text19,local,class=CODE,merge=1,delta=2
    44                           	psect	text20,local,class=CODE,merge=1,delta=2
    45                           	psect	text21,local,class=CODE,merge=1,delta=2
    46                           	psect	text22,local,class=CODE,merge=1,delta=2
    47                           	psect	text23,local,class=CODE,merge=1,delta=2
    48                           	psect	text24,local,class=CODE,merge=1,delta=2
    49                           	psect	text25,local,class=CODE,merge=1,delta=2
    50                           	psect	text26,local,class=CODE,merge=1,delta=2
    51                           	psect	text27,local,class=CODE,merge=1,delta=2
    52                           	psect	text28,local,class=CODE,merge=1,delta=2
    53                           	psect	text29,local,class=CODE,merge=1,delta=2,group=1
    54                           	psect	text30,local,class=CODE,merge=1,delta=2
    55                           	psect	text31,local,class=CODE,merge=1,delta=2
    56                           	psect	text32,local,class=CODE,merge=1,delta=2
    57                           	psect	text33,local,class=CODE,merge=1,delta=2
    58                           	psect	text34,local,class=CODE,merge=1,delta=2
    59                           	psect	text35,local,class=CODE,merge=1,delta=2
    60                           	psect	text36,local,class=CODE,merge=1,delta=2
    61                           	psect	text37,local,class=CODE,merge=1,delta=2
    62                           	psect	text38,local,class=CODE,merge=1,delta=2
    63                           	psect	text39,local,class=CODE,merge=1,delta=2
    64                           	psect	text40,local,class=CODE,merge=1,delta=2
    65                           	psect	text41,local,class=CODE,merge=1,delta=2
    66                           	psect	text42,local,class=CODE,merge=1,delta=2,group=1
    67                           	psect	text43,local,class=CODE,merge=1,delta=2,group=1
    68                           	psect	text44,local,class=CODE,merge=1,delta=2
    69                           	psect	text45,local,class=CODE,merge=1,delta=2
    70                           	psect	text46,local,class=CODE,merge=1,delta=2
    71                           	psect	text47,local,class=CODE,merge=1,delta=2
    72                           	psect	text48,local,class=CODE,merge=1,delta=2
    73                           	psect	text49,local,class=CODE,merge=1,delta=2
    74                           	psect	text50,local,class=CODE,merge=1,delta=2
    75                           	psect	text51,local,class=CODE,merge=1,delta=2
    76                           	psect	text52,local,class=CODE,merge=1,delta=2
    77                           	psect	text53,local,class=CODE,merge=1,delta=2
    78                           	psect	text54,local,class=CODE,merge=1,delta=2
    79                           	psect	text55,local,class=CODE,merge=1,delta=2
    80                           	psect	text56,local,class=CODE,merge=1,delta=2,group=1
    81                           	psect	text57,local,class=CODE,merge=1,delta=2,group=1
    82                           	psect	text58,local,class=CODE,merge=1,delta=2,group=1
    83                           	psect	text59,local,class=CODE,merge=1,delta=2,group=1
    84                           	psect	text60,local,class=CODE,merge=1,delta=2,group=1
    85                           	psect	text61,local,class=CODE,merge=1,delta=2
    86                           	psect	intentry,global,class=CODE,delta=2
    87                           	psect	idloc,global,abs,ovrld,class=IDLOC,space=5,delta=2,noexec
    88                           	psect	config,global,abs,ovrld,class=CONFIG,space=4,delta=2,noexec
    89                           	dabs	1,0x7E,2
    90     0000                     
    91                           ; Version 2.40
    92                           ; Generated 17/11/2021 GMT
    93                           ; 
    94                           ; Copyright © 2021, Microchip Technology Inc. and its subsidiaries ("Microchip")
    95                           ; All rights reserved.
    96                           ; 
    97                           ; This software is developed by Microchip Technology Inc. and its subsidiaries ("Microch
      +                          ip").
    98                           ; 
    99                           ; Redistribution and use in source and binary forms, with or without modification, are
   100                           ; permitted provided that the following conditions are met:
   101                           ; 
   102                           ;     1. Redistributions of source code must retain the above copyright notice, this lis
      +                          t of
   103                           ;        conditions and the following disclaimer.
   104                           ; 
   105                           ;     2. Redistributions in binary form must reproduce the above copyright notice, this 
      +                          list
   106                           ;        of conditions and the following disclaimer in the documentation and/or other
   107                           ;        materials provided with the distribution. Publication is not required when
   108                           ;        this file is used in an embedded application.
   109                           ; 
   110                           ;     3. Microchip's name may not be used to endorse or promote products derived from th
      +                          is
   111                           ;        software without specific prior written permission.
   112                           ; 
   113                           ; THIS SOFTWARE IS PROVIDED BY MICROCHIP "AS IS" AND ANY EXPRESS OR IMPLIED WARRANTIES,
   114                           ; INCLUDING, BUT NOT LIMITED TO, THE IMPLIED WARRANTIES OF MERCHANTABILITY AND FITNESS F
      +                          OR
   115                           ; PURPOSE ARE DISCLAIMED.  IN NO EVENT SHALL MICROCHIP BE LIABLE FOR ANY DIRECT, INDIREC
      +                          T,
   116                           ; INCIDENTAL, SPECIAL, EXEMPLARY, OR CONSEQUENTIAL DAMAGES (INCLUDING BUT NOT LIMITED TO
   117                           ; PROCUREMENT OF SUBSTITUTE GOODS OR SERVICES; LOSS OF USE, DATA OR PROFITS; OR BUSINESS
   118                           ; INTERRUPTION) HOWSOEVER CAUSED AND ON ANY THEORY OF LIABILITY, WHETHER IN CONTRACT, ST
      +                          RICT
   119                           ; LIABILITY, OR TORT (INCLUDING NEGLIGENCE OR OTHERWISE) ARISING IN ANY WAY OUT OF THE U
      +                          SE OF
   120                           ; THIS SOFTWARE, EVEN IF ADVISED OF THE POSSIBILITY OF SUCH DAMAGE.
   121                           ; 
   122                           ; 
   123                           ; Code-generator required, PIC16F877A Definitions
   124                           ; 
   125                           ; SFR Addresses
   126     0000                     	;# 
   127     0001                     	;# 
   128     0002                     	;# 
   129     0003                     	;# 
   130     0004                     	;# 
   131     0005                     	;# 
   132     0006                     	;# 
   133     0007                     	;# 
   134     0008                     	;# 
   135     0009                     	;# 
   136     000A                     	;# 
   137     000B                     	;# 
   138     000C                     	;# 
   139     000D                     	;# 
   140     000E                     	;# 
   141     000E                     	;# 
   142     000F                     	;# 
   143     0010                     	;# 
   144     0011                     	;# 
   145     0012                     	;# 
   146     0013                     	;# 
   147     0014                     	;# 
   148     0015                     	;# 
   149     0015                     	;# 
   150     0016                     	;# 
   151     0017                     	;# 
   152     0018                     	;# 
   153     0019                     	;# 
   154     001A                     	;# 
   155     001B                     	;# 
   156     001B                     	;# 
   157     001C                     	;# 
   158     001D                     	;# 
   159     001E                     	;# 
   160     001F                     	;# 
   161     0081                     	;# 
   162     0085                     	;# 
   163     0086                     	;# 
   164     0087                     	;# 
   165     0088                     	;# 
   166     0089                     	;# 
   167     008C                     	;# 
   168     008D                     	;# 
   169     008E                     	;# 
   170     0091                     	;# 
   171     0092                     	;# 
   172     0093                     	;# 
   173     0094                     	;# 
   174     0098                     	;# 
   175     0099                     	;# 
   176     009C                     	;# 
   177     009D                     	;# 
   178     009E                     	;# 
   179     009F                     	;# 
   180     010C                     	;# 
   181     010D                     	;# 
   182     010E                     	;# 
   183     010F                     	;# 
   184     018C                     	;# 
   185     018D                     	;# 
   186     0000                     	;# 
   187     0001                     	;# 
   188     0002                     	;# 
   189     0003                     	;# 
   190     0004                     	;# 
   191     0005                     	;# 
   192     0006                     	;# 
   193     0007                     	;# 
   194     0008                     	;# 
   195     0009                     	;# 
   196     000A                     	;# 
   197     000B                     	;# 
   198     000C                     	;# 
   199     000D                     	;# 
   200     000E                     	;# 
   201     000E                     	;# 
   202     000F                     	;# 
   203     0010                     	;# 
   204     0011                     	;# 
   205     0012                     	;# 
   206     0013                     	;# 
   207     0014                     	;# 
   208     0015                     	;# 
   209     0015                     	;# 
   210     0016                     	;# 
   211     0017                     	;# 
   212     0018                     	;# 
   213     0019                     	;# 
   214     001A                     	;# 
   215     001B                     	;# 
   216     001B                     	;# 
   217     001C                     	;# 
   218     001D                     	;# 
   219     001E                     	;# 
   220     001F                     	;# 
   221     0081                     	;# 
   222     0085                     	;# 
   223     0086                     	;# 
   224     0087                     	;# 
   225     0088                     	;# 
   226     0089                     	;# 
   227     008C                     	;# 
   228     008D                     	;# 
   229     008E                     	;# 
   230     0091                     	;# 
   231     0092                     	;# 
   232     0093                     	;# 
   233     0094                     	;# 
   234     0098                     	;# 
   235     0099                     	;# 
   236     009C                     	;# 
   237     009D                     	;# 
   238     009E                     	;# 
   239     009F                     	;# 
   240     010C                     	;# 
   241     010D                     	;# 
   242     010E                     	;# 
   243     010F                     	;# 
   244     018C                     	;# 
   245     018D                     	;# 
   246     0000                     	;# 
   247     0001                     	;# 
   248     0002                     	;# 
   249     0003                     	;# 
   250     0004                     	;# 
   251     0005                     	;# 
   252     0006                     	;# 
   253     0007                     	;# 
   254     0008                     	;# 
   255     0009                     	;# 
   256     000A                     	;# 
   257     000B                     	;# 
   258     000C                     	;# 
   259     000D                     	;# 
   260     000E                     	;# 
   261     000E                     	;# 
   262     000F                     	;# 
   263     0010                     	;# 
   264     0011                     	;# 
   265     0012                     	;# 
   266     0013                     	;# 
   267     0014                     	;# 
   268     0015                     	;# 
   269     0015                     	;# 
   270     0016                     	;# 
   271     0017                     	;# 
   272     0018                     	;# 
   273     0019                     	;# 
   274     001A                     	;# 
   275     001B                     	;# 
   276     001B                     	;# 
   277     001C                     	;# 
   278     001D                     	;# 
   279     001E                     	;# 
   280     001F                     	;# 
   281     0081                     	;# 
   282     0085                     	;# 
   283     0086                     	;# 
   284     0087                     	;# 
   285     0088                     	;# 
   286     0089                     	;# 
   287     008C                     	;# 
   288     008D                     	;# 
   289     008E                     	;# 
   290     0091                     	;# 
   291     0092                     	;# 
   292     0093                     	;# 
   293     0094                     	;# 
   294     0098                     	;# 
   295     0099                     	;# 
   296     009C                     	;# 
   297     009D                     	;# 
   298     009E                     	;# 
   299     009F                     	;# 
   300     010C                     	;# 
   301     010D                     	;# 
   302     010E                     	;# 
   303     010F                     	;# 
   304     018C                     	;# 
   305     018D                     	;# 
   306     0000                     	;# 
   307     0001                     	;# 
   308     0002                     	;# 
   309     0003                     	;# 
   310     0004                     	;# 
   311     0005                     	;# 
   312     0006                     	;# 
   313     0007                     	;# 
   314     0008                     	;# 
   315     0009                     	;# 
   316     000A                     	;# 
   317     000B                     	;# 
   318     000C                     	;# 
   319     000D                     	;# 
   320     000E                     	;# 
   321     000E                     	;# 
   322     000F                     	;# 
   323     0010                     	;# 
   324     0011                     	;# 
   325     0012                     	;# 
   326     0013                     	;# 
   327     0014                     	;# 
   328     0015                     	;# 
   329     0015                     	;# 
   330     0016                     	;# 
   331     0017                     	;# 
   332     0018                     	;# 
   333     0019                     	;# 
   334     001A                     	;# 
   335     001B                     	;# 
   336     001B                     	;# 
   337     001C                     	;# 
   338     001D                     	;# 
   339     001E                     	;# 
   340     001F                     	;# 
   341     0081                     	;# 
   342     0085                     	;# 
   343     0086                     	;# 
   344     0087                     	;# 
   345     0088                     	;# 
   346     0089                     	;# 
   347     008C                     	;# 
   348     008D                     	;# 
   349     008E                     	;# 
   350     0091                     	;# 
   351     0092                     	;# 
   352     0093                     	;# 
   353     0094                     	;# 
   354     0098                     	;# 
   355     0099                     	;# 
   356     009C                     	;# 
   357     009D                     	;# 
   358     009E                     	;# 
   359     009F                     	;# 
   360     010C                     	;# 
   361     010D                     	;# 
   362     010E                     	;# 
   363     010F                     	;# 
   364     018C                     	;# 
   365     018D                     	;# 
   366     0000                     	;# 
   367     0001                     	;# 
   368     0002                     	;# 
   369     0003                     	;# 
   370     0004                     	;# 
   371     0005                     	;# 
   372     0006                     	;# 
   373     0007                     	;# 
   374     0008                     	;# 
   375     0009                     	;# 
   376     000A                     	;# 
   377     000B                     	;# 
   378     000C                     	;# 
   379     000D                     	;# 
   380     000E                     	;# 
   381     000E                     	;# 
   382     000F                     	;# 
   383     0010                     	;# 
   384     0011                     	;# 
   385     0012                     	;# 
   386     0013                     	;# 
   387     0014                     	;# 
   388     0015                     	;# 
   389     0015                     	;# 
   390     0016                     	;# 
   391     0017                     	;# 
   392     0018                     	;# 
   393     0019                     	;# 
   394     001A                     	;# 
   395     001B                     	;# 
   396     001B                     	;# 
   397     001C                     	;# 
   398     001D                     	;# 
   399     001E                     	;# 
   400     001F                     	;# 
   401     0081                     	;# 
   402     0085                     	;# 
   403     0086                     	;# 
   404     0087                     	;# 
   405     0088                     	;# 
   406     0089                     	;# 
   407     008C                     	;# 
   408     008D                     	;# 
   409     008E                     	;# 
   410     0091                     	;# 
   411     0092                     	;# 
   412     0093                     	;# 
   413     0094                     	;# 
   414     0098                     	;# 
   415     0099                     	;# 
   416     009C                     	;# 
   417     009D                     	;# 
   418     009E                     	;# 
   419     009F                     	;# 
   420     010C                     	;# 
   421     010D                     	;# 
   422     010E                     	;# 
   423     010F                     	;# 
   424     018C                     	;# 
   425     018D                     	;# 
   426     0000                     	;# 
   427     0001                     	;# 
   428     0002                     	;# 
   429     0003                     	;# 
   430     0004                     	;# 
   431     0005                     	;# 
   432     0006                     	;# 
   433     0007                     	;# 
   434     0008                     	;# 
   435     0009                     	;# 
   436     000A                     	;# 
   437     000B                     	;# 
   438     000C                     	;# 
   439     000D                     	;# 
   440     000E                     	;# 
   441     000E                     	;# 
   442     000F                     	;# 
   443     0010                     	;# 
   444     0011                     	;# 
   445     0012                     	;# 
   446     0013                     	;# 
   447     0014                     	;# 
   448     0015                     	;# 
   449     0015                     	;# 
   450     0016                     	;# 
   451     0017                     	;# 
   452     0018                     	;# 
   453     0019                     	;# 
   454     001A                     	;# 
   455     001B                     	;# 
   456     001B                     	;# 
   457     001C                     	;# 
   458     001D                     	;# 
   459     001E                     	;# 
   460     001F                     	;# 
   461     0081                     	;# 
   462     0085                     	;# 
   463     0086                     	;# 
   464     0087                     	;# 
   465     0088                     	;# 
   466     0089                     	;# 
   467     008C                     	;# 
   468     008D                     	;# 
   469     008E                     	;# 
   470     0091                     	;# 
   471     0092                     	;# 
   472     0093                     	;# 
   473     0094                     	;# 
   474     0098                     	;# 
   475     0099                     	;# 
   476     009C                     	;# 
   477     009D                     	;# 
   478     009E                     	;# 
   479     009F                     	;# 
   480     010C                     	;# 
   481     010D                     	;# 
   482     010E                     	;# 
   483     010F                     	;# 
   484     018C                     	;# 
   485     018D                     	;# 
   486     0000                     	;# 
   487     0001                     	;# 
   488     0002                     	;# 
   489     0003                     	;# 
   490     0004                     	;# 
   491     0005                     	;# 
   492     0006                     	;# 
   493     0007                     	;# 
   494     0008                     	;# 
   495     0009                     	;# 
   496     000A                     	;# 
   497     000B                     	;# 
   498     000C                     	;# 
   499     000D                     	;# 
   500     000E                     	;# 
   501     000E                     	;# 
   502     000F                     	;# 
   503     0010                     	;# 
   504     0011                     	;# 
   505     0012                     	;# 
   506     0013                     	;# 
   507     0014                     	;# 
   508     0015                     	;# 
   509     0015                     	;# 
   510     0016                     	;# 
   511     0017                     	;# 
   512     0018                     	;# 
   513     0019                     	;# 
   514     001A                     	;# 
   515     001B                     	;# 
   516     001B                     	;# 
   517     001C                     	;# 
   518     001D                     	;# 
   519     001E                     	;# 
   520     001F                     	;# 
   521     0081                     	;# 
   522     0085                     	;# 
   523     0086                     	;# 
   524     0087                     	;# 
   525     0088                     	;# 
   526     0089                     	;# 
   527     008C                     	;# 
   528     008D                     	;# 
   529     008E                     	;# 
   530     0091                     	;# 
   531     0092                     	;# 
   532     0093                     	;# 
   533     0094                     	;# 
   534     0098                     	;# 
   535     0099                     	;# 
   536     009C                     	;# 
   537     009D                     	;# 
   538     009E                     	;# 
   539     009F                     	;# 
   540     010C                     	;# 
   541     010D                     	;# 
   542     010E                     	;# 
   543     010F                     	;# 
   544     018C                     	;# 
   545     018D                     	;# 
   546     0000                     	;# 
   547     0001                     	;# 
   548     0002                     	;# 
   549     0003                     	;# 
   550     0004                     	;# 
   551     0005                     	;# 
   552     0006                     	;# 
   553     0007                     	;# 
   554     0008                     	;# 
   555     0009                     	;# 
   556     000A                     	;# 
   557     000B                     	;# 
   558     000C                     	;# 
   559     000D                     	;# 
   560     000E                     	;# 
   561     000E                     	;# 
   562     000F                     	;# 
   563     0010                     	;# 
   564     0011                     	;# 
   565     0012                     	;# 
   566     0013                     	;# 
   567     0014                     	;# 
   568     0015                     	;# 
   569     0015                     	;# 
   570     0016                     	;# 
   571     0017                     	;# 
   572     0018                     	;# 
   573     0019                     	;# 
   574     001A                     	;# 
   575     001B                     	;# 
   576     001B                     	;# 
   577     001C                     	;# 
   578     001D                     	;# 
   579     001E                     	;# 
   580     001F                     	;# 
   581     0081                     	;# 
   582     0085                     	;# 
   583     0086                     	;# 
   584     0087                     	;# 
   585     0088                     	;# 
   586     0089                     	;# 
   587     008C                     	;# 
   588     008D                     	;# 
   589     008E                     	;# 
   590     0091                     	;# 
   591     0092                     	;# 
   592     0093                     	;# 
   593     0094                     	;# 
   594     0098                     	;# 
   595     0099                     	;# 
   596     009C                     	;# 
   597     009D                     	;# 
   598     009E                     	;# 
   599     009F                     	;# 
   600     010C                     	;# 
   601     010D                     	;# 
   602     010E                     	;# 
   603     010F                     	;# 
   604     018C                     	;# 
   605     018D                     	;# 
   606     0000                     	;# 
   607     0001                     	;# 
   608     0002                     	;# 
   609     0003                     	;# 
   610     0004                     	;# 
   611     0005                     	;# 
   612     0006                     	;# 
   613     0007                     	;# 
   614     0008                     	;# 
   615     0009                     	;# 
   616     000A                     	;# 
   617     000B                     	;# 
   618     000C                     	;# 
   619     000D                     	;# 
   620     000E                     	;# 
   621     000E                     	;# 
   622     000F                     	;# 
   623     0010                     	;# 
   624     0011                     	;# 
   625     0012                     	;# 
   626     0013                     	;# 
   627     0014                     	;# 
   628     0015                     	;# 
   629     0015                     	;# 
   630     0016                     	;# 
   631     0017                     	;# 
   632     0018                     	;# 
   633     0019                     	;# 
   634     001A                     	;# 
   635     001B                     	;# 
   636     001B                     	;# 
   637     001C                     	;# 
   638     001D                     	;# 
   639     001E                     	;# 
   640     001F                     	;# 
   641     0081                     	;# 
   642     0085                     	;# 
   643     0086                     	;# 
   644     0087                     	;# 
   645     0088                     	;# 
   646     0089                     	;# 
   647     008C                     	;# 
   648     008D                     	;# 
   649     008E                     	;# 
   650     0091                     	;# 
   651     0092                     	;# 
   652     0093                     	;# 
   653     0094                     	;# 
   654     0098                     	;# 
   655     0099                     	;# 
   656     009C                     	;# 
   657     009D                     	;# 
   658     009E                     	;# 
   659     009F                     	;# 
   660     010C                     	;# 
   661     010D                     	;# 
   662     010E                     	;# 
   663     010F                     	;# 
   664     018C                     	;# 
   665     018D                     	;# 
   666     0000                     	;# 
   667     0001                     	;# 
   668     0002                     	;# 
   669     0003                     	;# 
   670     0004                     	;# 
   671     0005                     	;# 
   672     0006                     	;# 
   673     0007                     	;# 
   674     0008                     	;# 
   675     0009                     	;# 
   676     000A                     	;# 
   677     000B                     	;# 
   678     000C                     	;# 
   679     000D                     	;# 
   680     000E                     	;# 
   681     000E                     	;# 
   682     000F                     	;# 
   683     0010                     	;# 
   684     0011                     	;# 
   685     0012                     	;# 
   686     0013                     	;# 
   687     0014                     	;# 
   688     0015                     	;# 
   689     0015                     	;# 
   690     0016                     	;# 
   691     0017                     	;# 
   692     0018                     	;# 
   693     0019                     	;# 
   694     001A                     	;# 
   695     001B                     	;# 
   696     001B                     	;# 
   697     001C                     	;# 
   698     001D                     	;# 
   699     001E                     	;# 
   700     001F                     	;# 
   701     0081                     	;# 
   702     0085                     	;# 
   703     0086                     	;# 
   704     0087                     	;# 
   705     0088                     	;# 
   706     0089                     	;# 
   707     008C                     	;# 
   708     008D                     	;# 
   709     008E                     	;# 
   710     0091                     	;# 
   711     0092                     	;# 
   712     0093                     	;# 
   713     0094                     	;# 
   714     0098                     	;# 
   715     0099                     	;# 
   716     009C                     	;# 
   717     009D                     	;# 
   718     009E                     	;# 
   719     009F                     	;# 
   720     010C                     	;# 
   721     010D                     	;# 
   722     010E                     	;# 
   723     010F                     	;# 
   724     018C                     	;# 
   725     018D                     	;# 
   726     0000                     	;# 
   727     0001                     	;# 
   728     0002                     	;# 
   729     0003                     	;# 
   730     0004                     	;# 
   731     0005                     	;# 
   732     0006                     	;# 
   733     0007                     	;# 
   734     0008                     	;# 
   735     0009                     	;# 
   736     000A                     	;# 
   737     000B                     	;# 
   738     000C                     	;# 
   739     000D                     	;# 
   740     000E                     	;# 
   741     000E                     	;# 
   742     000F                     	;# 
   743     0010                     	;# 
   744     0011                     	;# 
   745     0012                     	;# 
   746     0013                     	;# 
   747     0014                     	;# 
   748     0015                     	;# 
   749     0015                     	;# 
   750     0016                     	;# 
   751     0017                     	;# 
   752     0018                     	;# 
   753     0019                     	;# 
   754     001A                     	;# 
   755     001B                     	;# 
   756     001B                     	;# 
   757     001C                     	;# 
   758     001D                     	;# 
   759     001E                     	;# 
   760     001F                     	;# 
   761     0081                     	;# 
   762     0085                     	;# 
   763     0086                     	;# 
   764     0087                     	;# 
   765     0088                     	;# 
   766     0089                     	;# 
   767     008C                     	;# 
   768     008D                     	;# 
   769     008E                     	;# 
   770     0091                     	;# 
   771     0092                     	;# 
   772     0093                     	;# 
   773     0094                     	;# 
   774     0098                     	;# 
   775     0099                     	;# 
   776     009C                     	;# 
   777     009D                     	;# 
   778     009E                     	;# 
   779     009F                     	;# 
   780     010C                     	;# 
   781     010D                     	;# 
   782     010E                     	;# 
   783     010F                     	;# 
   784     018C                     	;# 
   785     018D                     	;# 
   786     0000                     	;# 
   787     0001                     	;# 
   788     0002                     	;# 
   789     0003                     	;# 
   790     0004                     	;# 
   791     0005                     	;# 
   792     0006                     	;# 
   793     0007                     	;# 
   794     0008                     	;# 
   795     0009                     	;# 
   796     000A                     	;# 
   797     000B                     	;# 
   798     000C                     	;# 
   799     000D                     	;# 
   800     000E                     	;# 
   801     000E                     	;# 
   802     000F                     	;# 
   803     0010                     	;# 
   804     0011                     	;# 
   805     0012                     	;# 
   806     0013                     	;# 
   807     0014                     	;# 
   808     0015                     	;# 
   809     0015                     	;# 
   810     0016                     	;# 
   811     0017                     	;# 
   812     0018                     	;# 
   813     0019                     	;# 
   814     001A                     	;# 
   815     001B                     	;# 
   816     001B                     	;# 
   817     001C                     	;# 
   818     001D                     	;# 
   819     001E                     	;# 
   820     001F                     	;# 
   821     0081                     	;# 
   822     0085                     	;# 
   823     0086                     	;# 
   824     0087                     	;# 
   825     0088                     	;# 
   826     0089                     	;# 
   827     008C                     	;# 
   828     008D                     	;# 
   829     008E                     	;# 
   830     0091                     	;# 
   831     0092                     	;# 
   832     0093                     	;# 
   833     0094                     	;# 
   834     0098                     	;# 
   835     0099                     	;# 
   836     009C                     	;# 
   837     009D                     	;# 
   838     009E                     	;# 
   839     009F                     	;# 
   840     010C                     	;# 
   841     010D                     	;# 
   842     010E                     	;# 
   843     010F                     	;# 
   844     018C                     	;# 
   845     018D                     	;# 
   846     0000                     	;# 
   847     0001                     	;# 
   848     0002                     	;# 
   849     0003                     	;# 
   850     0004                     	;# 
   851     0005                     	;# 
   852     0006                     	;# 
   853     0007                     	;# 
   854     0008                     	;# 
   855     0009                     	;# 
   856     000A                     	;# 
   857     000B                     	;# 
   858     000C                     	;# 
   859     000D                     	;# 
   860     000E                     	;# 
   861     000E                     	;# 
   862     000F                     	;# 
   863     0010                     	;# 
   864     0011                     	;# 
   865     0012                     	;# 
   866     0013                     	;# 
   867     0014                     	;# 
   868     0015                     	;# 
   869     0015                     	;# 
   870     0016                     	;# 
   871     0017                     	;# 
   872     0018                     	;# 
   873     0019                     	;# 
   874     001A                     	;# 
   875     001B                     	;# 
   876     001B                     	;# 
   877     001C                     	;# 
   878     001D                     	;# 
   879     001E                     	;# 
   880     001F                     	;# 
   881     0081                     	;# 
   882     0085                     	;# 
   883     0086                     	;# 
   884     0087                     	;# 
   885     0088                     	;# 
   886     0089                     	;# 
   887     008C                     	;# 
   888     008D                     	;# 
   889     008E                     	;# 
   890     0091                     	;# 
   891     0092                     	;# 
   892     0093                     	;# 
   893     0094                     	;# 
   894     0098                     	;# 
   895     0099                     	;# 
   896     009C                     	;# 
   897     009D                     	;# 
   898     009E                     	;# 
   899     009F                     	;# 
   900     010C                     	;# 
   901     010D                     	;# 
   902     010E                     	;# 
   903     010F                     	;# 
   904     018C                     	;# 
   905     018D                     	;# 
   906     0000                     	;# 
   907     0001                     	;# 
   908     0002                     	;# 
   909     0003                     	;# 
   910     0004                     	;# 
   911     0005                     	;# 
   912     0006                     	;# 
   913     0007                     	;# 
   914     0008                     	;# 
   915     0009                     	;# 
   916     000A                     	;# 
   917     000B                     	;# 
   918     000C                     	;# 
   919     000D                     	;# 
   920     000E                     	;# 
   921     000E                     	;# 
   922     000F                     	;# 
   923     0010                     	;# 
   924     0011                     	;# 
   925     0012                     	;# 
   926     0013                     	;# 
   927     0014                     	;# 
   928     0015                     	;# 
   929     0015                     	;# 
   930     0016                     	;# 
   931     0017                     	;# 
   932     0018                     	;# 
   933     0019                     	;# 
   934     001A                     	;# 
   935     001B                     	;# 
   936     001B                     	;# 
   937     001C                     	;# 
   938     001D                     	;# 
   939     001E                     	;# 
   940     001F                     	;# 
   941     0081                     	;# 
   942     0085                     	;# 
   943     0086                     	;# 
   944     0087                     	;# 
   945     0088                     	;# 
   946     0089                     	;# 
   947     008C                     	;# 
   948     008D                     	;# 
   949     008E                     	;# 
   950     0091                     	;# 
   951     0092                     	;# 
   952     0093                     	;# 
   953     0094                     	;# 
   954     0098                     	;# 
   955     0099                     	;# 
   956     009C                     	;# 
   957     009D                     	;# 
   958     009E                     	;# 
   959     009F                     	;# 
   960     010C                     	;# 
   961     010D                     	;# 
   962     010E                     	;# 
   963     010F                     	;# 
   964     018C                     	;# 
   965     018D                     	;# 
   966     0000                     	;# 
   967     0001                     	;# 
   968     0002                     	;# 
   969     0003                     	;# 
   970     0004                     	;# 
   971     0005                     	;# 
   972     0006                     	;# 
   973     0007                     	;# 
   974     0008                     	;# 
   975     0009                     	;# 
   976     000A                     	;# 
   977     000B                     	;# 
   978     000C                     	;# 
   979     000D                     	;# 
   980     000E                     	;# 
   981     000E                     	;# 
   982     000F                     	;# 
   983     0010                     	;# 
   984     0011                     	;# 
   985     0012                     	;# 
   986     0013                     	;# 
   987     0014                     	;# 
   988     0015                     	;# 
   989     0015                     	;# 
   990     0016                     	;# 
   991     0017                     	;# 
   992     0018                     	;# 
   993     0019                     	;# 
   994     001A                     	;# 
   995     001B                     	;# 
   996     001B                     	;# 
   997     001C                     	;# 
   998     001D                     	;# 
   999     001E                     	;# 
  1000     001F                     	;# 
  1001     0081                     	;# 
  1002     0085                     	;# 
  1003     0086                     	;# 
  1004     0087                     	;# 
  1005     0088                     	;# 
  1006     0089                     	;# 
  1007     008C                     	;# 
  1008     008D                     	;# 
  1009     008E                     	;# 
  1010     0091                     	;# 
  1011     0092                     	;# 
  1012     0093                     	;# 
  1013     0094                     	;# 
  1014     0098                     	;# 
  1015     0099                     	;# 
  1016     009C                     	;# 
  1017     009D                     	;# 
  1018     009E                     	;# 
  1019     009F                     	;# 
  1020     010C                     	;# 
  1021     010D                     	;# 
  1022     010E                     	;# 
  1023     010F                     	;# 
  1024     018C                     	;# 
  1025     018D                     	;# 
  1026     0000                     	;# 
  1027     0001                     	;# 
  1028     0002                     	;# 
  1029     0003                     	;# 
  1030     0004                     	;# 
  1031     0005                     	;# 
  1032     0006                     	;# 
  1033     0007                     	;# 
  1034     0008                     	;# 
  1035     0009                     	;# 
  1036     000A                     	;# 
  1037     000B                     	;# 
  1038     000C                     	;# 
  1039     000D                     	;# 
  1040     000E                     	;# 
  1041     000E                     	;# 
  1042     000F                     	;# 
  1043     0010                     	;# 
  1044     0011                     	;# 
  1045     0012                     	;# 
  1046     0013                     	;# 
  1047     0014                     	;# 
  1048     0015                     	;# 
  1049     0015                     	;# 
  1050     0016                     	;# 
  1051     0017                     	;# 
  1052     0018                     	;# 
  1053     0019                     	;# 
  1054     001A                     	;# 
  1055     001B                     	;# 
  1056     001B                     	;# 
  1057     001C                     	;# 
  1058     001D                     	;# 
  1059     001E                     	;# 
  1060     001F                     	;# 
  1061     0081                     	;# 
  1062     0085                     	;# 
  1063     0086                     	;# 
  1064     0087                     	;# 
  1065     0088                     	;# 
  1066     0089                     	;# 
  1067     008C                     	;# 
  1068     008D                     	;# 
  1069     008E                     	;# 
  1070     0091                     	;# 
  1071     0092                     	;# 
  1072     0093                     	;# 
  1073     0094                     	;# 
  1074     0098                     	;# 
  1075     0099                     	;# 
  1076     009C                     	;# 
  1077     009D                     	;# 
  1078     009E                     	;# 
  1079     009F                     	;# 
  1080     010C                     	;# 
  1081     010D                     	;# 
  1082     010E                     	;# 
  1083     010F                     	;# 
  1084     018C                     	;# 
  1085     018D                     	;# 
  1086     0000                     	;# 
  1087     0001                     	;# 
  1088     0002                     	;# 
  1089     0003                     	;# 
  1090     0004                     	;# 
  1091     0005                     	;# 
  1092     0006                     	;# 
  1093     0007                     	;# 
  1094     0008                     	;# 
  1095     0009                     	;# 
  1096     000A                     	;# 
  1097     000B                     	;# 
  1098     000C                     	;# 
  1099     000D                     	;# 
  1100     000E                     	;# 
  1101     000E                     	;# 
  1102     000F                     	;# 
  1103     0010                     	;# 
  1104     0011                     	;# 
  1105     0012                     	;# 
  1106     0013                     	;# 
  1107     0014                     	;# 
  1108     0015                     	;# 
  1109     0015                     	;# 
  1110     0016                     	;# 
  1111     0017                     	;# 
  1112     0018                     	;# 
  1113     0019                     	;# 
  1114     001A                     	;# 
  1115     001B                     	;# 
  1116     001B                     	;# 
  1117     001C                     	;# 
  1118     001D                     	;# 
  1119     001E                     	;# 
  1120     001F                     	;# 
  1121     0081                     	;# 
  1122     0085                     	;# 
  1123     0086                     	;# 
  1124     0087                     	;# 
  1125     0088                     	;# 
  1126     0089                     	;# 
  1127     008C                     	;# 
  1128     008D                     	;# 
  1129     008E                     	;# 
  1130     0091                     	;# 
  1131     0092                     	;# 
  1132     0093                     	;# 
  1133     0094                     	;# 
  1134     0098                     	;# 
  1135     0099                     	;# 
  1136     009C                     	;# 
  1137     009D                     	;# 
  1138     009E                     	;# 
  1139     009F                     	;# 
  1140     010C                     	;# 
  1141     010D                     	;# 
  1142     010E                     	;# 
  1143     010F                     	;# 
  1144     018C                     	;# 
  1145     018D                     	;# 
  1146     0000                     	;# 
  1147     0001                     	;# 
  1148     0002                     	;# 
  1149     0003                     	;# 
  1150     0004                     	;# 
  1151     0005                     	;# 
  1152     0006                     	;# 
  1153     0007                     	;# 
  1154     0008                     	;# 
  1155     0009                     	;# 
  1156     000A                     	;# 
  1157     000B                     	;# 
  1158     000C                     	;# 
  1159     000D                     	;# 
  1160     000E                     	;# 
  1161     000E                     	;# 
  1162     000F                     	;# 
  1163     0010                     	;# 
  1164     0011                     	;# 
  1165     0012                     	;# 
  1166     0013                     	;# 
  1167     0014                     	;# 
  1168     0015                     	;# 
  1169     0015                     	;# 
  1170     0016                     	;# 
  1171     0017                     	;# 
  1172     0018                     	;# 
  1173     0019                     	;# 
  1174     001A                     	;# 
  1175     001B                     	;# 
  1176     001B                     	;# 
  1177     001C                     	;# 
  1178     001D                     	;# 
  1179     001E                     	;# 
  1180     001F                     	;# 
  1181     0081                     	;# 
  1182     0085                     	;# 
  1183     0086                     	;# 
  1184     0087                     	;# 
  1185     0088                     	;# 
  1186     0089                     	;# 
  1187     008C                     	;# 
  1188     008D                     	;# 
  1189     008E                     	;# 
  1190     0091                     	;# 
  1191     0092                     	;# 
  1192     0093                     	;# 
  1193     0094                     	;# 
  1194     0098                     	;# 
  1195     0099                     	;# 
  1196     009C                     	;# 
  1197     009D                     	;# 
  1198     009E                     	;# 
  1199     009F                     	;# 
  1200     010C                     	;# 
  1201     010D                     	;# 
  1202     010E                     	;# 
  1203     010F                     	;# 
  1204     018C                     	;# 
  1205     018D                     	;# 
  1206     0000                     	;# 
  1207     0001                     	;# 
  1208     0002                     	;# 
  1209     0003                     	;# 
  1210     0004                     	;# 
  1211     0005                     	;# 
  1212     0006                     	;# 
  1213     0007                     	;# 
  1214     0008                     	;# 
  1215     0009                     	;# 
  1216     000A                     	;# 
  1217     000B                     	;# 
  1218     000C                     	;# 
  1219     000D                     	;# 
  1220     000E                     	;# 
  1221     000E                     	;# 
  1222     000F                     	;# 
  1223     0010                     	;# 
  1224     0011                     	;# 
  1225     0012                     	;# 
  1226     0013                     	;# 
  1227     0014                     	;# 
  1228     0015                     	;# 
  1229     0015                     	;# 
  1230     0016                     	;# 
  1231     0017                     	;# 
  1232     0018                     	;# 
  1233     0019                     	;# 
  1234     001A                     	;# 
  1235     001B                     	;# 
  1236     001B                     	;# 
  1237     001C                     	;# 
  1238     001D                     	;# 
  1239     001E                     	;# 
  1240     001F                     	;# 
  1241     0081                     	;# 
  1242     0085                     	;# 
  1243     0086                     	;# 
  1244     0087                     	;# 
  1245     0088                     	;# 
  1246     0089                     	;# 
  1247     008C                     	;# 
  1248     008D                     	;# 
  1249     008E                     	;# 
  1250     0091                     	;# 
  1251     0092                     	;# 
  1252     0093                     	;# 
  1253     0094                     	;# 
  1254     0098                     	;# 
  1255     0099                     	;# 
  1256     009C                     	;# 
  1257     009D                     	;# 
  1258     009E                     	;# 
  1259     009F                     	;# 
  1260     010C                     	;# 
  1261     010D                     	;# 
  1262     010E                     	;# 
  1263     010F                     	;# 
  1264     018C                     	;# 
  1265     018D                     	;# 
  1266     0000                     	;# 
  1267     0001                     	;# 
  1268     0002                     	;# 
  1269     0003                     	;# 
  1270     0004                     	;# 
  1271     0005                     	;# 
  1272     0006                     	;# 
  1273     0007                     	;# 
  1274     0008                     	;# 
  1275     0009                     	;# 
  1276     000A                     	;# 
  1277     000B                     	;# 
  1278     000C                     	;# 
  1279     000D                     	;# 
  1280     000E                     	;# 
  1281     000E                     	;# 
  1282     000F                     	;# 
  1283     0010                     	;# 
  1284     0011                     	;# 
  1285     0012                     	;# 
  1286     0013                     	;# 
  1287     0014                     	;# 
  1288     0015                     	;# 
  1289     0015                     	;# 
  1290     0016                     	;# 
  1291     0017                     	;# 
  1292     0018                     	;# 
  1293     0019                     	;# 
  1294     001A                     	;# 
  1295     001B                     	;# 
  1296     001B                     	;# 
  1297     001C                     	;# 
  1298     001D                     	;# 
  1299     001E                     	;# 
  1300     001F                     	;# 
  1301     0081                     	;# 
  1302     0085                     	;# 
  1303     0086                     	;# 
  1304     0087                     	;# 
  1305     0088                     	;# 
  1306     0089                     	;# 
  1307     008C                     	;# 
  1308     008D                     	;# 
  1309     008E                     	;# 
  1310     0091                     	;# 
  1311     0092                     	;# 
  1312     0093                     	;# 
  1313     0094                     	;# 
  1314     0098                     	;# 
  1315     0099                     	;# 
  1316     009C                     	;# 
  1317     009D                     	;# 
  1318     009E                     	;# 
  1319     009F                     	;# 
  1320     010C                     	;# 
  1321     010D                     	;# 
  1322     010E                     	;# 
  1323     010F                     	;# 
  1324     018C                     	;# 
  1325     018D                     	;# 
  1326                           
  1327                           	psect	idataCOMMON
  1328     07FE                     __pidataCOMMON:
  1329                           
  1330                           ;initializer for menu@long_press2
  1331     07FE  3401               	retlw	1
  1332                           
  1333                           ;initializer for read_digital_keypad@once
  1334     07FF  3401               	retlw	1
  1335                           
  1336                           	psect	idataBANK0
  1337     1E3B                     __pidataBANK0:
  1338                           
  1339                           ;initializer for _event_10
  1340     1E3B  34FF               	retlw	255
  1341     1E3C  34FF               	retlw	255
  1342                           
  1343                           ;initializer for menu@long_press1
  1344     1E3D  3401               	retlw	1
  1345                           
  1346                           ;initializer for login@blink_pos
  1347     1E3E  3403               	retlw	3
  1348                           
  1349                           ;initializer for login@blink_flag
  1350     1E3F  3401               	retlw	1
  1351                           
  1352                           ;initializer for _passwd_read
  1353     1E40  3401               	retlw	1
  1354                           
  1355                           ;initializer for _no_event
  1356     1E41  3401               	retlw	1
  1357                           
  1358                           ;initializer for _dash_flag
  1359     1E42  3401               	retlw	1
  1360                           
  1361                           ;initializer for _event_count
  1362     1E43  34FF               	retlw	255
  1363     1E44  34FF               	retlw	255
  1364                           
  1365                           	psect	idataBANK1
  1366     1E32                     __pidataBANK1:
  1367                           
  1368                           ;initializer for set_time@F64
  1369     1E32  3420               	retlw	32
  1370     1E33  3420               	retlw	32
  1371     1E34  3400               	retlw	0
  1372                           
  1373                           ;initializer for login@no_attempt_left
  1374     1E35  3403               	retlw	3
  1375     1E36  3400               	retlw	0
  1376                           
  1377                           ;initializer for login@total_attempt
  1378     1E37  3403               	retlw	3
  1379     1E38  3400               	retlw	0
  1380                           
  1381                           ;initializer for view_logs@long_press2
  1382     1E39  3401               	retlw	1
  1383                           
  1384                           ;initializer for view_logs@long_press1
  1385     1E3A  3401               	retlw	1
  1386                           
  1387                           	psect	idataBANK3
  1388     1F42                     __pidataBANK3:
  1389                           
  1390                           ;initializer for _events
  1391     1F42  3470               	retlw	low (STR_1| (0+32768))
  1392     1F43  3491               	retlw	high (STR_1| (0+32768))
  1393     1F44  346D               	retlw	low (STR_2| (0+32768))
  1394     1F45  3491               	retlw	high (STR_2| (0+32768))
  1395     1F46  3473               	retlw	low (STR_3| (0+32768))
  1396     1F47  3491               	retlw	high (STR_3| (0+32768))
  1397     1F48  345E               	retlw	low (STR_4| (0+32768))
  1398     1F49  3491               	retlw	high (STR_4| (0+32768))
  1399     1F4A  3461               	retlw	low (STR_5| (0+32768))
  1400     1F4B  3491               	retlw	high (STR_5| (0+32768))
  1401     1F4C  3464               	retlw	low (STR_6| (0+32768))
  1402     1F4D  3491               	retlw	high (STR_6| (0+32768))
  1403     1F4E  3467               	retlw	low (STR_7| (0+32768))
  1404     1F4F  3491               	retlw	high (STR_7| (0+32768))
  1405     1F50  346A               	retlw	low (STR_8| (0+32768))
  1406     1F51  3491               	retlw	high (STR_8| (0+32768))
  1407     1F52  345B               	retlw	low (STR_9| (0+32768))
  1408     1F53  3491               	retlw	high (STR_9| (0+32768))
  1409                           
  1410                           ;initializer for _option_menu
  1411     1F54  3446               	retlw	low (STR_16| (0+32768))
  1412     1F55  3491               	retlw	high (STR_16| (0+32768))
  1413     1F56  3429               	retlw	low (STR_17| (0+32768))
  1414     1F57  3491               	retlw	high (STR_17| (0+32768))
  1415     1F58  3405               	retlw	low (STR_18| (0+32768))
  1416     1F59  3491               	retlw	high (STR_18| (0+32768))
  1417     1F5A  343D               	retlw	low (STR_19| (0+32768))
  1418     1F5B  3491               	retlw	high (STR_19| (0+32768))
  1419     1F5C  34F7               	retlw	low (STR_20| (0+32768))
  1420     1F5D  3490               	retlw	high (STR_20| (0+32768))
  1421     000B                     _INTCONbits	set	11
  1422     0003                     _STATUSbits	set	3
  1423     0019                     _TXREG	set	25
  1424     001A                     _RCREG	set	26
  1425     0001                     _TMR0	set	1
  1426     0013                     _SSPBUF	set	19
  1427     001E                     _ADRESH	set	30
  1428     0006                     _PORTB	set	6
  1429     0008                     _PORTD	set	8
  1430     0064                     _TXIF	set	100
  1431     0065                     _RCIF	set	101
  1432     00C4                     _CREN	set	196
  1433     00C7                     _SPEN	set	199
  1434     005A                     _TMR0IF	set	90
  1435     005D                     _TMR0IE	set	93
  1436     00A5                     _SSPEN	set	165
  1437     00A3                     _SSPM3	set	163
  1438     005E                     _PEIE	set	94
  1439     005F                     _GIE	set	95
  1440     00FA                     _nDONE	set	250
  1441     00FA                     _GO	set	250
  1442     00F8                     _ADON	set	248
  1443     0049                     _RE1	set	73
  1444     004A                     _RE2	set	74
  1445     0099                     _SPBRG	set	153
  1446     0091                     _SSPCON2	set	145
  1447     0093                     _SSPADD	set	147
  1448     009E                     _ADRESL	set	158
  1449     0086                     _TRISB	set	134
  1450     0088                     _TRISD	set	136
  1451     0464                     _TXIE	set	1124
  1452     0465                     _RCIE	set	1125
  1453     04C2                     _BRGH	set	1218
  1454     04C4                     _SYNC	set	1220
  1455     04C5                     _TXEN	set	1221
  1456     040B                     _PSA	set	1035
  1457     040D                     _T0CS	set	1037
  1458     048E                     _ACKSTAT	set	1166
  1459     048C                     _ACKEN	set	1164
  1460     048D                     _ACKDT	set	1165
  1461     048B                     _RCEN	set	1163
  1462     048A                     _PEN	set	1162
  1463     0488                     _SEN	set	1160
  1464     04A2                     _R_nW	set	1186
  1465     04FF                     _ADFM	set	1279
  1466     0449                     _TRISE1	set	1097
  1467     044A                     _TRISE2	set	1098
  1468     010C                     _EEDATA	set	268
  1469     010D                     _EEADR	set	269
  1470     018D                     _EECON2	set	397
  1471     018C                     _EECON1	set	396
  1472     018C                     _EECON1bits	set	396
  1473                           
  1474                           	psect	strings
  1475     1800                     __pstrings:
  1476     1800                     stringtab:
  1477     1800                     __stringtab:
  1478                           
  1479                           ;	String table - string pointers are 2 bytes each
  1480     1800  1BFF               	btfsc	btemp+1,7
  1481     1801  280A               	ljmp	stringcode
  1482     1802  1383               	bcf	3,7
  1483     1803  187F               	btfsc	btemp+1,0
  1484     1804  1783               	bsf	3,7
  1485     1805  0800               	movf	0,w
  1486     1806  0A84               	incf	4,f
  1487     1807  1903               	skipnz
  1488     1808  0AFF               	incf	btemp+1,f
  1489     1809  0008               	return
  1490     180A                     stringcode:
  1491     180A  087F               	movf	btemp+1,w
  1492     180B  397F               	andlw	127
  1493     180C  008A               	movwf	10
  1494     180D  0804               	movf	4,w
  1495     180E  0A84               	incf	4,f
  1496     180F  1903               	skipnz
  1497     1810  0AFF               	incf	btemp+1,f
  1498     1811  0082               	movwf	2
  1499     1812                     __stringbase:
  1500     1812                     __end_of__stringtab:
  1501                           
  1502                           	psect	stringtext
  1503     1000                     __pstringtext:
  1504     1000                     STR_26:
  1505     1000  344E               	retlw	78	;'N'
  1506     1001  344F               	retlw	79	;'O'
  1507     1002  3420               	retlw	32	;' '
  1508     1003  344C               	retlw	76	;'L'
  1509     1004  344F               	retlw	79	;'O'
  1510     1005  3447               	retlw	71	;'G'
  1511     1006  3453               	retlw	83	;'S'
  1512     1007  3420               	retlw	32	;' '
  1513     1008  3441               	retlw	65	;'A'
  1514     1009  3456               	retlw	86	;'V'
  1515     100A  3441               	retlw	65	;'A'
  1516     100B  3449               	retlw	73	;'I'
  1517     100C  344C               	retlw	76	;'L'
  1518     100D  3441               	retlw	65	;'A'
  1519     100E  3442               	retlw	66	;'B'
  1520     100F  344C               	retlw	76	;'L'
  1521     1010  3445               	retlw	69	;'E'
  1522     1011  340A               	retlw	10
  1523     1012  3400               	retlw	0
  1524     1013                     STR_31:
  1525     1013  3450               	retlw	80	;'P'
  1526     1014  3461               	retlw	97	;'a'
  1527     1015  3473               	retlw	115	;'s'
  1528     1016  3473               	retlw	115	;'s'
  1529     1017  3477               	retlw	119	;'w'
  1530     1018  346F               	retlw	111	;'o'
  1531     1019  3472               	retlw	114	;'r'
  1532     101A  3464               	retlw	100	;'d'
  1533     101B  3420               	retlw	32	;' '
  1534     101C  3463               	retlw	99	;'c'
  1535     101D  3468               	retlw	104	;'h'
  1536     101E  3461               	retlw	97	;'a'
  1537     101F  346E               	retlw	110	;'n'
  1538     1020  3467               	retlw	103	;'g'
  1539     1021  3465               	retlw	101	;'e'
  1540     1022  3464               	retlw	100	;'d'
  1541     1023  3400               	retlw	0
  1542     1024                     STR_30:
  1543     1024  3443               	retlw	67	;'C'
  1544     1025  346F               	retlw	111	;'o'
  1545     1026  346E               	retlw	110	;'n'
  1546     1027  3466               	retlw	102	;'f'
  1547     1028  3472               	retlw	114	;'r'
  1548     1029  346D               	retlw	109	;'m'
  1549     102A  3420               	retlw	32	;' '
  1550     102B  346E               	retlw	110	;'n'
  1551     102C  3465               	retlw	101	;'e'
  1552     102D  3477               	retlw	119	;'w'
  1553     102E  3420               	retlw	32	;' '
  1554     102F  3450               	retlw	80	;'P'
  1555     1030  3461               	retlw	97	;'a'
  1556     1031  3473               	retlw	115	;'s'
  1557     1032  3477               	retlw	119	;'w'
  1558     1033  3464               	retlw	100	;'d'
  1559     1034  3400               	retlw	0
  1560     1035                     STR_29:
  1561     1035  3445               	retlw	69	;'E'
  1562     1036  346E               	retlw	110	;'n'
  1563     1037  3474               	retlw	116	;'t'
  1564     1038  3465               	retlw	101	;'e'
  1565     1039  3472               	retlw	114	;'r'
  1566     103A  3420               	retlw	32	;' '
  1567     103B  346E               	retlw	110	;'n'
  1568     103C  3465               	retlw	101	;'e'
  1569     103D  3477               	retlw	119	;'w'
  1570     103E  3420               	retlw	32	;' '
  1571     103F  3450               	retlw	80	;'P'
  1572     1040  3461               	retlw	97	;'a'
  1573     1041  3473               	retlw	115	;'s'
  1574     1042  3473               	retlw	115	;'s'
  1575     1043  3477               	retlw	119	;'w'
  1576     1044  3464               	retlw	100	;'d'
  1577     1045  3400               	retlw	0
  1578     1046                     STR_28:
  1579     1046  3454               	retlw	84	;'T'
  1580     1047  3469               	retlw	105	;'i'
  1581     1048  346D               	retlw	109	;'m'
  1582     1049  3465               	retlw	101	;'e'
  1583     104A  3420               	retlw	32	;' '
  1584     104B  343C               	retlw	60	;'<'
  1585     104C  3448               	retlw	72	;'H'
  1586     104D  3448               	retlw	72	;'H'
  1587     104E  343A               	retlw	58	;':'
  1588     104F  344D               	retlw	77	;'M'
  1589     1050  344D               	retlw	77	;'M'
  1590     1051  343A               	retlw	58	;':'
  1591     1052  3453               	retlw	83	;'S'
  1592     1053  3453               	retlw	83	;'S'
  1593     1054  343E               	retlw	62	;'>'
  1594     1055  3420               	retlw	32	;' '
  1595     1056  3400               	retlw	0
  1596     1057                     STR_23:
  1597     1057  3420               	retlw	32	;' '
  1598     1058  3420               	retlw	32	;' '
  1599     1059  346C               	retlw	108	;'l'
  1600     105A  346F               	retlw	111	;'o'
  1601     105B  3467               	retlw	103	;'g'
  1602     105C  3473               	retlw	115	;'s'
  1603     105D  3420               	retlw	32	;' '
  1604     105E  3463               	retlw	99	;'c'
  1605     105F  346C               	retlw	108	;'l'
  1606     1060  3465               	retlw	101	;'e'
  1607     1061  3461               	retlw	97	;'a'
  1608     1062  3472               	retlw	114	;'r'
  1609     1063  3465               	retlw	101	;'e'
  1610     1064  3464               	retlw	100	;'d'
  1611     1065  3420               	retlw	32	;' '
  1612     1066  3420               	retlw	32	;' '
  1613     1067  3400               	retlw	0
  1614     1068                     STR_24:
  1615     1068  3420               	retlw	32	;' '
  1616     1069  3420               	retlw	32	;' '
  1617     106A  3473               	retlw	115	;'s'
  1618     106B  3475               	retlw	117	;'u'
  1619     106C  3463               	retlw	99	;'c'
  1620     106D  3463               	retlw	99	;'c'
  1621     106E  3465               	retlw	101	;'e'
  1622     106F  3473               	retlw	115	;'s'
  1623     1070  3473               	retlw	115	;'s'
  1624     1071  3466               	retlw	102	;'f'
  1625     1072  3475               	retlw	117	;'u'
  1626     1073  346C               	retlw	108	;'l'
  1627     1074  346C               	retlw	108	;'l'
  1628     1075  3479               	retlw	121	;'y'
  1629     1076  3420               	retlw	32	;' '
  1630     1077  3420               	retlw	32	;' '
  1631     1078  3400               	retlw	0
  1632     1079                     STR_11:
  1633     1079  3420               	retlw	32	;' '
  1634     107A  3445               	retlw	69	;'E'
  1635     107B  346E               	retlw	110	;'n'
  1636     107C  3474               	retlw	116	;'t'
  1637     107D  3465               	retlw	101	;'e'
  1638     107E  3472               	retlw	114	;'r'
  1639     107F  3420               	retlw	32	;' '
  1640     1080  3450               	retlw	80	;'P'
  1641     1081  3461               	retlw	97	;'a'
  1642     1082  3473               	retlw	115	;'s'
  1643     1083  3473               	retlw	115	;'s'
  1644     1084  3477               	retlw	119	;'w'
  1645     1085  346F               	retlw	111	;'o'
  1646     1086  3472               	retlw	114	;'r'
  1647     1087  3464               	retlw	100	;'d'
  1648     1088  3420               	retlw	32	;' '
  1649     1089  3400               	retlw	0
  1650     108A                     STR_13:
  1651     108A  3452               	retlw	82	;'R'
  1652     108B  3465               	retlw	101	;'e'
  1653     108C  3420               	retlw	32	;' '
  1654     108D  3445               	retlw	69	;'E'
  1655     108E  346E               	retlw	110	;'n'
  1656     108F  3474               	retlw	116	;'t'
  1657     1090  3465               	retlw	101	;'e'
  1658     1091  3472               	retlw	114	;'r'
  1659     1092  3420               	retlw	32	;' '
  1660     1093  3450               	retlw	80	;'P'
  1661     1094  3461               	retlw	97	;'a'
  1662     1095  3473               	retlw	115	;'s'
  1663     1096  3473               	retlw	115	;'s'
  1664     1097  3477               	retlw	119	;'w'
  1665     1098  3464               	retlw	100	;'d'
  1666     1099  3420               	retlw	32	;' '
  1667     109A  3400               	retlw	0
  1668     109B                     STR_32:
  1669     109B  3420               	retlw	32	;' '
  1670     109C  3420               	retlw	32	;' '
  1671     109D  3453               	retlw	83	;'S'
  1672     109E  3475               	retlw	117	;'u'
  1673     109F  3463               	retlw	99	;'c'
  1674     10A0  3463               	retlw	99	;'c'
  1675     10A1  3465               	retlw	101	;'e'
  1676     10A2  3473               	retlw	115	;'s'
  1677     10A3  3466               	retlw	102	;'f'
  1678     10A4  3475               	retlw	117	;'u'
  1679     10A5  346C               	retlw	108	;'l'
  1680     10A6  346C               	retlw	108	;'l'
  1681     10A7  3479               	retlw	121	;'y'
  1682     10A8  3420               	retlw	32	;' '
  1683     10A9  3420               	retlw	32	;' '
  1684     10AA  3400               	retlw	0
  1685     10AB                     STR_22:
  1686     10AB  3420               	retlw	32	;' '
  1687     10AC  3420               	retlw	32	;' '
  1688     10AD  3454               	retlw	84	;'T'
  1689     10AE  3449               	retlw	73	;'I'
  1690     10AF  344D               	retlw	77	;'M'
  1691     10B0  3445               	retlw	69	;'E'
  1692     10B1  3420               	retlw	32	;' '
  1693     10B2  3420               	retlw	32	;' '
  1694     10B3  3420               	retlw	32	;' '
  1695     10B4  3420               	retlw	32	;' '
  1696     10B5  3445               	retlw	69	;'E'
  1697     10B6  3420               	retlw	32	;' '
  1698     10B7  3420               	retlw	32	;' '
  1699     10B8  3453               	retlw	83	;'S'
  1700     10B9  3450               	retlw	80	;'P'
  1701     10BA  3400               	retlw	0
  1702     10BB                     STR_10:
  1703     10BB  3420               	retlw	32	;' '
  1704     10BC  3454               	retlw	84	;'T'
  1705     10BD  3449               	retlw	73	;'I'
  1706     10BE  344D               	retlw	77	;'M'
  1707     10BF  3445               	retlw	69	;'E'
  1708     10C0  3420               	retlw	32	;' '
  1709     10C1  3420               	retlw	32	;' '
  1710     10C2  3420               	retlw	32	;' '
  1711     10C3  3420               	retlw	32	;' '
  1712     10C4  3420               	retlw	32	;' '
  1713     10C5  3445               	retlw	69	;'E'
  1714     10C6  3420               	retlw	32	;' '
  1715     10C7  3420               	retlw	32	;' '
  1716     10C8  3453               	retlw	83	;'S'
  1717     10C9  3450               	retlw	80	;'P'
  1718     10CA  3400               	retlw	0
  1719     10CB                     STR_33:
  1720     10CB  3477               	retlw	119	;'w'
  1721     10CC  3472               	retlw	114	;'r'
  1722     10CD  346F               	retlw	111	;'o'
  1723     10CE  346E               	retlw	110	;'n'
  1724     10CF  3467               	retlw	103	;'g'
  1725     10D0  3420               	retlw	32	;' '
  1726     10D1  3470               	retlw	112	;'p'
  1727     10D2  3461               	retlw	97	;'a'
  1728     10D3  3473               	retlw	115	;'s'
  1729     10D4  3473               	retlw	115	;'s'
  1730     10D5  3477               	retlw	119	;'w'
  1731     10D6  346F               	retlw	111	;'o'
  1732     10D7  3472               	retlw	114	;'r'
  1733     10D8  3464               	retlw	100	;'d'
  1734     10D9  3400               	retlw	0
  1735     10DA                     STR_12:
  1736     10DA  3461               	retlw	97	;'a'
  1737     10DB  3474               	retlw	116	;'t'
  1738     10DC  3474               	retlw	116	;'t'
  1739     10DD  3465               	retlw	101	;'e'
  1740     10DE  346D               	retlw	109	;'m'
  1741     10DF  3470               	retlw	112	;'p'
  1742     10E0  3474               	retlw	116	;'t'
  1743     10E1  3473               	retlw	115	;'s'
  1744     10E2  3420               	retlw	32	;' '
  1745     10E3  346C               	retlw	108	;'l'
  1746     10E4  3465               	retlw	101	;'e'
  1747     10E5  3466               	retlw	102	;'f'
  1748     10E6  3474               	retlw	116	;'t'
  1749     10E7  3420               	retlw	32	;' '
  1750     10E8  3400               	retlw	0
  1751     10E9                     STR_34:
  1752     10E9  3420               	retlw	32	;' '
  1753     10EA  3420               	retlw	32	;' '
  1754     10EB  3474               	retlw	116	;'t'
  1755     10EC  3472               	retlw	114	;'r'
  1756     10ED  3479               	retlw	121	;'y'
  1757     10EE  3420               	retlw	32	;' '
  1758     10EF  3461               	retlw	97	;'a'
  1759     10F0  3467               	retlw	103	;'g'
  1760     10F1  3461               	retlw	97	;'a'
  1761     10F2  3469               	retlw	105	;'i'
  1762     10F3  346E               	retlw	110	;'n'
  1763     10F4  3420               	retlw	32	;' '
  1764     10F5  3420               	retlw	32	;' '
  1765     10F6  3400               	retlw	0
  1766     10F7                     STR_20:
  1767     10F7  3463               	retlw	99	;'c'
  1768     10F8  3468               	retlw	104	;'h'
  1769     10F9  3461               	retlw	97	;'a'
  1770     10FA  346E               	retlw	110	;'n'
  1771     10FB  3467               	retlw	103	;'g'
  1772     10FC  3465               	retlw	101	;'e'
  1773     10FD  3420               	retlw	32	;' '
  1774     10FE  3470               	retlw	112	;'p'
  1775     10FF  3461               	retlw	97	;'a'
  1776     1100  3473               	retlw	115	;'s'
  1777     1101  3473               	retlw	115	;'s'
  1778     1102  3477               	retlw	119	;'w'
  1779     1103  3464               	retlw	100	;'d'
  1780     1104  3400               	retlw	0
  1781     1105                     STR_18:
  1782     1105  3464               	retlw	100	;'d'
  1783     1106  346F               	retlw	111	;'o'
  1784     1107  3477               	retlw	119	;'w'
  1785     1108  346E               	retlw	110	;'n'
  1786     1109  346C               	retlw	108	;'l'
  1787     110A  346F               	retlw	111	;'o'
  1788     110B  3461               	retlw	97	;'a'
  1789     110C  3464               	retlw	100	;'d'
  1790     110D  3420               	retlw	32	;' '
  1791     110E  346C               	retlw	108	;'l'
  1792     110F  346F               	retlw	111	;'o'
  1793     1110  3467               	retlw	103	;'g'
  1794     1111  3400               	retlw	0
  1795     1112                     STR_21:
  1796     1112  3420               	retlw	32	;' '
  1797     1113  344E               	retlw	78	;'N'
  1798     1114  344F               	retlw	79	;'O'
  1799     1115  3420               	retlw	32	;' '
  1800     1116  3445               	retlw	69	;'E'
  1801     1117  3456               	retlw	86	;'V'
  1802     1118  3445               	retlw	69	;'E'
  1803     1119  344E               	retlw	78	;'N'
  1804     111A  3454               	retlw	84	;'T'
  1805     111B  3453               	retlw	83	;'S'
  1806     111C  3420               	retlw	32	;' '
  1807     111D  3400               	retlw	0
  1808     111E                     STR_25:
  1809     111E  346C               	retlw	108	;'l'
  1810     111F  346F               	retlw	111	;'o'
  1811     1120  3467               	retlw	103	;'g'
  1812     1121  3473               	retlw	115	;'s'
  1813     1122  3420               	retlw	32	;' '
  1814     1123  3470               	retlw	112	;'p'
  1815     1124  3472               	retlw	114	;'r'
  1816     1125  3469               	retlw	105	;'i'
  1817     1126  346E               	retlw	110	;'n'
  1818     1127  3474               	retlw	116	;'t'
  1819     1128  3400               	retlw	0
  1820     1129                     STR_17:
  1821     1129  3463               	retlw	99	;'c'
  1822     112A  346C               	retlw	108	;'l'
  1823     112B  3465               	retlw	101	;'e'
  1824     112C  3461               	retlw	97	;'a'
  1825     112D  3472               	retlw	114	;'r'
  1826     112E  3420               	retlw	32	;' '
  1827     112F  346C               	retlw	108	;'l'
  1828     1130  346F               	retlw	111	;'o'
  1829     1131  3467               	retlw	103	;'g'
  1830     1132  3400               	retlw	0
  1831     1133                     STR_14:
  1832     1133  3457               	retlw	87	;'W'
  1833     1134  3461               	retlw	97	;'a'
  1834     1135  3469               	retlw	105	;'i'
  1835     1136  3474               	retlw	116	;'t'
  1836     1137  3420               	retlw	32	;' '
  1837     1138  3466               	retlw	102	;'f'
  1838     1139  346F               	retlw	111	;'o'
  1839     113A  3472               	retlw	114	;'r'
  1840     113B  3420               	retlw	32	;' '
  1841     113C  3400               	retlw	0
  1842     113D                     STR_19:
  1843     113D  3473               	retlw	115	;'s'
  1844     113E  3465               	retlw	101	;'e'
  1845     113F  3474               	retlw	116	;'t'
  1846     1140  3420               	retlw	32	;' '
  1847     1141  3474               	retlw	116	;'t'
  1848     1142  3469               	retlw	105	;'i'
  1849     1143  346D               	retlw	109	;'m'
  1850     1144  3465               	retlw	101	;'e'
  1851     1145  3400               	retlw	0
  1852     1146                     STR_16:
  1853     1146  3476               	retlw	118	;'v'
  1854     1147  3469               	retlw	105	;'i'
  1855     1148  3465               	retlw	101	;'e'
  1856     1149  3477               	retlw	119	;'w'
  1857     114A  3420               	retlw	32	;' '
  1858     114B  346C               	retlw	108	;'l'
  1859     114C  346F               	retlw	111	;'o'
  1860     114D  3467               	retlw	103	;'g'
  1861     114E  3400               	retlw	0
  1862     114F                     STR_27:
  1863     114F  346C               	retlw	108	;'l'
  1864     1150  346F               	retlw	111	;'o'
  1865     1151  3467               	retlw	103	;'g'
  1866     1152  3420               	retlw	32	;' '
  1867     1153  3431               	retlw	49	;'1'
  1868     1154  340A               	retlw	10
  1869     1155  3400               	retlw	0
  1870     1156                     STR_15:
  1871     1156  3420               	retlw	32	;' '
  1872     1157  3473               	retlw	115	;'s'
  1873     1158  3465               	retlw	101	;'e'
  1874     1159  3463               	retlw	99	;'c'
  1875     115A  3400               	retlw	0
  1876     115B                     STR_9:
  1877     115B  3443               	retlw	67	;'C'
  1878     115C  3420               	retlw	32	;' '
  1879     115D  3400               	retlw	0
  1880     115E                     STR_4:
  1881     115E  3447               	retlw	71	;'G'
  1882     115F  3431               	retlw	49	;'1'
  1883     1160  3400               	retlw	0
  1884     1161                     STR_5:
  1885     1161  3447               	retlw	71	;'G'
  1886     1162  3432               	retlw	50	;'2'
  1887     1163  3400               	retlw	0
  1888     1164                     STR_6:
  1889     1164  3447               	retlw	71	;'G'
  1890     1165  3433               	retlw	51	;'3'
  1891     1166  3400               	retlw	0
  1892     1167                     STR_7:
  1893     1167  3447               	retlw	71	;'G'
  1894     1168  3434               	retlw	52	;'4'
  1895     1169  3400               	retlw	0
  1896     116A                     STR_8:
  1897     116A  3447               	retlw	71	;'G'
  1898     116B  3435               	retlw	53	;'5'
  1899     116C  3400               	retlw	0
  1900     116D                     STR_2:
  1901     116D  3447               	retlw	71	;'G'
  1902     116E  344E               	retlw	78	;'N'
  1903     116F  3400               	retlw	0
  1904     1170                     STR_1:
  1905     1170  344F               	retlw	79	;'O'
  1906     1171  344E               	retlw	78	;'N'
  1907     1172  3400               	retlw	0
  1908     1173                     STR_3:
  1909     1173  3447               	retlw	71	;'G'
  1910     1174  3452               	retlw	82	;'R'
  1911     1175  3400               	retlw	0
  1912                           
  1913                           	psect	cinit
  1914     0011                     start_initialization:	
  1915                           ; #config settings
  1916                           
  1917     0011                     __initialization:
  1918                           
  1919                           ; Initialize objects allocated to BANK3
  1920     0011  1783               	bsf	3,7	;select IRP bank2
  1921     0012  30DC               	movlw	low (__pdataBANK3+28)
  1922     0013  00FD               	movwf	btemp+-1
  1923     0014  301F               	movlw	high __pidataBANK3
  1924     0015  00FE               	movwf	btemp
  1925     0016  3042               	movlw	low __pidataBANK3
  1926     0017  00FF               	movwf	btemp+1
  1927     0018  30C0               	movlw	low __pdataBANK3
  1928     0019  0084               	movwf	4
  1929     001A  160A  158A  26D6  120A  118A  	fcall	init_ram0
  1930                           
  1931                           ; Initialize objects allocated to BANK1
  1932     001F  1383               	bcf	3,7	;select IRP bank0
  1933     0020  30EE               	movlw	low (__pdataBANK1+9)
  1934     0021  00FD               	movwf	btemp+-1
  1935     0022  301E               	movlw	high __pidataBANK1
  1936     0023  00FE               	movwf	btemp
  1937     0024  3032               	movlw	low __pidataBANK1
  1938     0025  00FF               	movwf	btemp+1
  1939     0026  30E5               	movlw	low __pdataBANK1
  1940     0027  0084               	movwf	4
  1941     0028  160A  158A  26D6  120A  118A  	fcall	init_ram0
  1942                           
  1943                           ; Initialize objects allocated to BANK0
  1944     002D  306F               	movlw	low (__pdataBANK0+10)
  1945     002E  00FD               	movwf	btemp+-1
  1946     002F  301E               	movlw	high __pidataBANK0
  1947     0030  00FE               	movwf	btemp
  1948     0031  303B               	movlw	low __pidataBANK0
  1949     0032  00FF               	movwf	btemp+1
  1950     0033  3065               	movlw	low __pdataBANK0
  1951     0034  0084               	movwf	4
  1952     0035  160A  158A  26D6  120A  118A  	fcall	init_ram0
  1953                           
  1954                           ; Initialize objects allocated to COMMON
  1955     003A  120A  118A  27FE  120A  118A  	fcall	__pidataCOMMON	;fetch initializer
  1956     003F  00F8               	movwf	__pdataCOMMON& (0+127)
  1957     0040  120A  118A  27FF  120A  118A  	fcall	__pidataCOMMON+1	;fetch initializer
  1958     0045  00F9               	movwf	(__pdataCOMMON+1)& (0+127)
  1959                           
  1960                           ; Clear objects allocated to BANK3
  1961     0046  1783               	bsf	3,7	;select IRP bank2
  1962     0047  3090               	movlw	low __pbssBANK3
  1963     0048  0084               	movwf	4
  1964     0049  30C0               	movlw	low (__pbssBANK3+48)
  1965     004A  160A  158A  2618  120A  118A  	fcall	clear_ram0
  1966                           
  1967                           ; Clear objects allocated to BANK1
  1968     004F  1383               	bcf	3,7	;select IRP bank0
  1969     0050  30A0               	movlw	low __pbssBANK1
  1970     0051  0084               	movwf	4
  1971     0052  30E5               	movlw	low (__pbssBANK1+69)
  1972     0053  160A  158A  2618  120A  118A  	fcall	clear_ram0
  1973                           
  1974                           ; Clear objects allocated to BANK0
  1975     0058  3059               	movlw	low __pbssBANK0
  1976     0059  0084               	movwf	4
  1977     005A  3065               	movlw	low (__pbssBANK0+12)
  1978     005B  160A  158A  2618  120A  118A  	fcall	clear_ram0
  1979                           
  1980                           ; Clear objects allocated to COMMON
  1981     0060  01FA               	clrf	__pbssCOMMON& (0+127)
  1982     0061                     end_of_initialization:	
  1983                           ;End of C runtime variable initialization code
  1984                           
  1985     0061                     __end_of__initialization:
  1986     0061  0183               	clrf	3
  1987     0062  160A  118A  2D59   	ljmp	_main	;jump to C main() function
  1988                           
  1989                           	psect	bssCOMMON
  1990     007A                     __pbssCOMMON:
  1991     007A                     _index:
  1992     007A                     	ds	1
  1993                           
  1994                           	psect	dataCOMMON
  1995     0078                     __pdataCOMMON:
  1996     0078                     menu@long_press2:
  1997     0078                     	ds	1
  1998     0079                     read_digital_keypad@once:
  1999     0079                     	ds	1
  2000                           
  2001                           	psect	bssBANK0
  2002     0059                     __pbssBANK0:
  2003     0059                     login@index:
  2004     0059                     	ds	2
  2005     005B                     view_logs@log_key:
  2006     005B                     	ds	1
  2007     005C                     view_logs@log_no:
  2008     005C                     	ds	1
  2009     005D                     menu@scroll_key:
  2010     005D                     	ds	1
  2011     005E                     _menu_select:
  2012     005E                     	ds	1
  2013     005F                     _set_time_flag:
  2014     005F                     	ds	1
  2015     0060                     login@passwd_flag:
  2016     0060                     	ds	1
  2017     0061                     _passwd_reset:
  2018     0061                     	ds	1
  2019     0062                     _timer_flag:
  2020     0062                     	ds	1
  2021     0063                     dashboard@i:
  2022     0063                     	ds	1
  2023     0064                     _pwd_success:
  2024     0064                     	ds	1
  2025                           
  2026                           	psect	dataBANK0
  2027     0065                     __pdataBANK0:
  2028     0065                     _event_10:
  2029     0065                     	ds	2
  2030     0067                     menu@long_press1:
  2031     0067                     	ds	1
  2032     0068                     login@blink_pos:
  2033     0068                     	ds	1
  2034     0069                     login@blink_flag:
  2035     0069                     	ds	1
  2036     006A                     _passwd_read:
  2037     006A                     	ds	1
  2038     006B                     _no_event:
  2039     006B                     	ds	1
  2040     006C                     _dash_flag:
  2041     006C                     	ds	1
  2042     006D                     _event_count:
  2043     006D                     	ds	2
  2044                           
  2045                           	psect	bssBANK1
  2046     00A0                     __pbssBANK1:
  2047     00A0                     change_psswd@F920:
  2048     00A0                     	ds	5
  2049     00A5                     change_psswd@F918:
  2050     00A5                     	ds	5
  2051     00AA                     isr@count:
  2052     00AA                     	ds	4
  2053     00AE                     print_sec@F955:
  2054     00AE                     	ds	4
  2055     00B2                     _count2:
  2056     00B2                     	ds	4
  2057     00B6                     set_time@F67:
  2058     00B6                     	ds	3
  2059     00B9                     _clock_write:
  2060     00B9                     	ds	3
  2061     00BC                     _addr:
  2062     00BC                     	ds	2
  2063     00BE                     menu@dkp5_press:
  2064     00BE                     	ds	2
  2065     00C0                     menu@dkp4_press:
  2066     00C0                     	ds	2
  2067     00C2                     login@wait:
  2068     00C2                     	ds	2
  2069     00C4                     login@attempt:
  2070     00C4                     	ds	2
  2071     00C6                     _ind@download$F463:
  2072     00C6                     	ds	1
  2073     00C7                     _clear:
  2074     00C7                     	ds	1
  2075     00C8                     view_logs@press5:
  2076     00C8                     	ds	1
  2077     00C9                     view_logs@press4:
  2078     00C9                     	ds	1
  2079     00CA                     _ind:
  2080     00CA                     	ds	1
  2081     00CB                     _time:
  2082     00CB                     	ds	9
  2083     00D4                     login@user:
  2084     00D4                     	ds	5
  2085     00D9                     _password:
  2086     00D9                     	ds	5
  2087     00DE                     _speed:
  2088     00DE                     	ds	4
  2089     00E2                     _clock_reg:
  2090     00E2                     	ds	3
  2091                           
  2092                           	psect	dataBANK1
  2093     00E5                     __pdataBANK1:
  2094     00E5                     set_time@F64:
  2095     00E5                     	ds	3
  2096     00E8                     login@no_attempt_left:
  2097     00E8                     	ds	2
  2098     00EA                     login@total_attempt:
  2099     00EA                     	ds	2
  2100     00EC                     view_logs@long_press2:
  2101     00EC                     	ds	1
  2102     00ED                     view_logs@long_press1:
  2103     00ED                     	ds	1
  2104                           
  2105                           	psect	bssBANK3
  2106     0190                     __pbssBANK3:
  2107     0190                     _download_log:
  2108     0190                     	ds	17
  2109     01A1                     _view_log:
  2110     01A1                     	ds	16
  2111     01B1                     _event_log:
  2112     01B1                     	ds	15
  2113                           
  2114                           	psect	dataBANK3
  2115     01C0                     __pdataBANK3:
  2116     01C0                     _events:
  2117     01C0                     	ds	18
  2118     01D2                     _option_menu:
  2119     01D2                     	ds	10
  2120                           
  2121                           	psect	inittext
  2122     1ED2                     init_fetch0:	
  2123                           ;	Called with low address in FSR and high address in W
  2124                           
  2125     1ED2  087E               	movf	btemp,w
  2126     1ED3  008A               	movwf	10
  2127     1ED4  087F               	movf	btemp+1,w
  2128     1ED5  0082               	movwf	2
  2129     1ED6                     init_ram0:	
  2130                           ;Called with:
  2131                           ;	high address of idata address in btemp 
  2132                           ;	low address of idata address in btemp+1 
  2133                           ;	low address of data in FSR
  2134                           ;	high address + 1 of data in btemp-1
  2135                           
  2136     1ED6  160A  158A  26D2  160A  158A  	fcall	init_fetch0
  2137     1EDB  0080               	movwf	0
  2138     1EDC  0A84               	incf	4,f
  2139     1EDD  0804               	movf	4,w
  2140     1EDE  067D               	xorwf	btemp+-1,w
  2141     1EDF  1903               	btfsc	3,2
  2142     1EE0  3400               	retlw	0
  2143     1EE1  0AFF               	incf	btemp+1,f
  2144     1EE2  1903               	btfsc	3,2
  2145     1EE3  0AFE               	incf	btemp,f
  2146     1EE4  2ED6               	goto	init_ram0
  2147                           
  2148                           	psect	clrtext
  2149     1E18                     clear_ram0:	
  2150                           ;	Called with FSR containing the base address, and
  2151                           ;	W with the last address+1
  2152                           
  2153     1E18  0064               	clrwdt	;clear the watchdog before getting into this loop
  2154     1E19                     clrloop0:
  2155     1E19  0180               	clrf	0	;clear RAM location pointed to by FSR
  2156     1E1A  0A84               	incf	4,f	;increment pointer
  2157     1E1B  0604               	xorwf	4,w	;XOR with final address
  2158     1E1C  1903               	btfsc	3,2	;have we reached the end yet?
  2159     1E1D  3400               	retlw	0	;all done for this memory range, return
  2160     1E1E  0604               	xorwf	4,w	;XOR again to restore value
  2161     1E1F  2E19               	goto	clrloop0	;do the next byte
  2162                           
  2163                           	psect	cstackBANK3
  2164     01DC                     __pcstackBANK3:
  2165     01DC                     dashboard@reg:
  2166                           
  2167                           ; 2 bytes @ 0x0
  2168     01DC                     	ds	2
  2169     01DE                     dashboard@event_key:
  2170                           
  2171                           ; 1 bytes @ 0x2
  2172     01DE                     	ds	1
  2173     01DF                     dashboard@j:
  2174                           
  2175                           ; 2 bytes @ 0x3
  2176     01DF                     	ds	2
  2177                           
  2178                           	psect	cstackCOMMON
  2179     0070                     __pcstackCOMMON:
  2180     0070                     ?_init_timer:
  2181     0070                     ?_init_ds1307:	
  2182                           ; 1 bytes @ 0x0
  2183                           
  2184     0070                     ?_dashboard:	
  2185                           ; 1 bytes @ 0x0
  2186                           
  2187     0070                     ?_login:	
  2188                           ; 1 bytes @ 0x0
  2189                           
  2190     0070                     ?_menu:	
  2191                           ; 1 bytes @ 0x0
  2192                           
  2193     0070                     ?_get_time:	
  2194                           ; 1 bytes @ 0x0
  2195                           
  2196     0070                     ?_display_time:	
  2197                           ; 1 bytes @ 0x0
  2198                           
  2199     0070                     ?_write_event_log:	
  2200                           ; 1 bytes @ 0x0
  2201                           
  2202     0070                     ?_read_ds1307:	
  2203                           ; 1 bytes @ 0x0
  2204                           
  2205     0070                     ?_i2c_start:	
  2206                           ; 1 bytes @ 0x0
  2207                           
  2208     0070                     ?_i2c_rep_start:	
  2209                           ; 1 bytes @ 0x0
  2210                           
  2211     0070                     ?_i2c_read:	
  2212                           ; 1 bytes @ 0x0
  2213                           
  2214     0070                     ?_i2c_stop:	
  2215                           ; 1 bytes @ 0x0
  2216                           
  2217     0070                     ?_eeprom_read:	
  2218                           ; 1 bytes @ 0x0
  2219                           
  2220     0070                     ?_clear_arr:	
  2221                           ; 1 bytes @ 0x0
  2222                           
  2223     0070                     ?_view_logs:	
  2224                           ; 1 bytes @ 0x0
  2225                           
  2226     0070                     ?_clear_log:	
  2227                           ; 1 bytes @ 0x0
  2228                           
  2229     0070                     ?_download:	
  2230                           ; 1 bytes @ 0x0
  2231                           
  2232     0070                     ?_set_time:	
  2233                           ; 1 bytes @ 0x0
  2234                           
  2235     0070                     ?_change_psswd:	
  2236                           ; 1 bytes @ 0x0
  2237                           
  2238     0070                     ?_view_log_events:	
  2239                           ; 1 bytes @ 0x0
  2240                           
  2241     0070                     ?_ext_eeprom_read:	
  2242                           ; 1 bytes @ 0x0
  2243                           
  2244     0070                     ?_write_time:	
  2245                           ; 1 bytes @ 0x0
  2246                           
  2247     0070                     ?_write_speed:	
  2248                           ; 1 bytes @ 0x0
  2249                           
  2250     0070                     ?_ext_eeprom_write:	
  2251                           ; 1 bytes @ 0x0
  2252                           
  2253     0070                     ?_write_time_rtc:	
  2254                           ; 1 bytes @ 0x0
  2255                           
  2256     0070                     ?_write_password:	
  2257                           ; 1 bytes @ 0x0
  2258                           
  2259     0070                     ?_init_display_controller:	
  2260                           ; 1 bytes @ 0x0
  2261                           
  2262     0070                     ?_init_clcd:	
  2263                           ; 1 bytes @ 0x0
  2264                           
  2265     0070                     ?_clear_clcd:	
  2266                           ; 1 bytes @ 0x0
  2267                           
  2268     0070                     ?_init_digital_keypad:	
  2269                           ; 1 bytes @ 0x0
  2270                           
  2271     0070                     ?_read_digital_keypad:	
  2272                           ; 1 bytes @ 0x0
  2273                           
  2274     0070                     ?_init_adc:	
  2275                           ; 1 bytes @ 0x0
  2276                           
  2277     0070                     ?_init_config:	
  2278                           ; 1 bytes @ 0x0
  2279                           
  2280     0070                     ?_main:	
  2281                           ; 1 bytes @ 0x0
  2282                           
  2283     0070                     ?_i2c_wait_for_idle:	
  2284                           ; 1 bytes @ 0x0
  2285                           
  2286     0070                     ?_isr:	
  2287                           ; 1 bytes @ 0x0
  2288                           
  2289     0070                     ??_isr:	
  2290                           ; 1 bytes @ 0x0
  2291                           
  2292     0070                     ?_putchar:	
  2293                           ; 1 bytes @ 0x0
  2294                           
  2295     0070                     ?_i2c_write:	
  2296                           ; 1 bytes @ 0x0
  2297                           
  2298                           
  2299                           ; 2 bytes @ 0x0
  2300     0070                     	ds	3
  2301     0073                     ??_init_timer:
  2302     0073                     ??_i2c_start:	
  2303                           ; 1 bytes @ 0x3
  2304                           
  2305     0073                     ??_i2c_write:	
  2306                           ; 1 bytes @ 0x3
  2307                           
  2308     0073                     ??_i2c_rep_start:	
  2309                           ; 1 bytes @ 0x3
  2310                           
  2311     0073                     ??_i2c_read:	
  2312                           ; 1 bytes @ 0x3
  2313                           
  2314     0073                     ??_i2c_stop:	
  2315                           ; 1 bytes @ 0x3
  2316                           
  2317     0073                     ?_eeprom_write:	
  2318                           ; 1 bytes @ 0x3
  2319                           
  2320     0073                     ??_eeprom_read:	
  2321                           ; 1 bytes @ 0x3
  2322                           
  2323     0073                     ??_clear_arr:	
  2324                           ; 1 bytes @ 0x3
  2325                           
  2326     0073                     ??_write_time:	
  2327                           ; 1 bytes @ 0x3
  2328                           
  2329     0073                     ?_write_event:	
  2330                           ; 1 bytes @ 0x3
  2331                           
  2332     0073                     ??_write_speed:	
  2333                           ; 1 bytes @ 0x3
  2334                           
  2335     0073                     ?_clcd_write:	
  2336                           ; 1 bytes @ 0x3
  2337                           
  2338     0073                     ??_init_digital_keypad:	
  2339                           ; 1 bytes @ 0x3
  2340                           
  2341     0073                     ??_read_digital_keypad:	
  2342                           ; 1 bytes @ 0x3
  2343                           
  2344     0073                     ??_init_adc:	
  2345                           ; 1 bytes @ 0x3
  2346                           
  2347     0073                     ??_i2c_wait_for_idle:	
  2348                           ; 1 bytes @ 0x3
  2349                           
  2350     0073                     ??_putchar:	
  2351                           ; 1 bytes @ 0x3
  2352                           
  2353     0073                     ?___bmul:	
  2354                           ; 1 bytes @ 0x3
  2355                           
  2356     0073                     ??___lldiv:	
  2357                           ; 1 bytes @ 0x3
  2358                           
  2359     0073                     ??___llmod:	
  2360                           ; 1 bytes @ 0x3
  2361                           
  2362     0073                     ?_my_strcmp:	
  2363                           ; 1 bytes @ 0x3
  2364                           
  2365     0073                     ?_read_adc:	
  2366                           ; 2 bytes @ 0x3
  2367                           
  2368     0073                     ?___wmul:	
  2369                           ; 2 bytes @ 0x3
  2370                           
  2371     0073                     ?___awmod:	
  2372                           ; 2 bytes @ 0x3
  2373                           
  2374     0073                     ?___lwdiv:	
  2375                           ; 2 bytes @ 0x3
  2376                           
  2377     0073                     ?___lwmod:	
  2378                           ; 2 bytes @ 0x3
  2379                           
  2380     0073                     clcd_write@mode:	
  2381                           ; 2 bytes @ 0x3
  2382                           
  2383     0073                     i2c_read@ack:	
  2384                           ; 1 bytes @ 0x3
  2385                           
  2386     0073                     i2c_write@data:	
  2387                           ; 1 bytes @ 0x3
  2388                           
  2389     0073                     clear_arr@arr:	
  2390                           ; 1 bytes @ 0x3
  2391                           
  2392     0073                     my_strcmp@str2:	
  2393                           ; 1 bytes @ 0x3
  2394                           
  2395     0073                     write_speed@speed:	
  2396                           ; 1 bytes @ 0x3
  2397                           
  2398     0073                     putchar@data:	
  2399                           ; 1 bytes @ 0x3
  2400                           
  2401     0073                     eeprom_read@addr:	
  2402                           ; 1 bytes @ 0x3
  2403                           
  2404     0073                     eeprom_write@value:	
  2405                           ; 1 bytes @ 0x3
  2406                           
  2407     0073                     ___bmul@multiplicand:	
  2408                           ; 1 bytes @ 0x3
  2409                           
  2410     0073                     write_event@event:	
  2411                           ; 1 bytes @ 0x3
  2412                           
  2413     0073                     ___wmul@multiplier:	
  2414                           ; 2 bytes @ 0x3
  2415                           
  2416     0073                     ___awmod@divisor:	
  2417                           ; 2 bytes @ 0x3
  2418                           
  2419     0073                     ___lwdiv@divisor:	
  2420                           ; 2 bytes @ 0x3
  2421                           
  2422     0073                     ___lwmod@divisor:	
  2423                           ; 2 bytes @ 0x3
  2424                           
  2425                           
  2426                           ; 2 bytes @ 0x3
  2427     0073                     	ds	1
  2428     0074                     ??_init_i2c:
  2429     0074                     ??_init_uart:	
  2430                           ; 1 bytes @ 0x4
  2431                           
  2432     0074                     ?_write_ds1307:	
  2433                           ; 1 bytes @ 0x4
  2434                           
  2435     0074                     ??_eeprom_write:	
  2436                           ; 1 bytes @ 0x4
  2437                           
  2438     0074                     ?_puts:	
  2439                           ; 1 bytes @ 0x4
  2440                           
  2441     0074                     ??_clcd_write:	
  2442                           ; 1 bytes @ 0x4
  2443                           
  2444     0074                     ??___bmul:	
  2445                           ; 1 bytes @ 0x4
  2446                           
  2447     0074                     read_digital_keypad@mode:	
  2448                           ; 1 bytes @ 0x4
  2449                           
  2450     0074                     write_ds1307@data:	
  2451                           ; 1 bytes @ 0x4
  2452                           
  2453     0074                     i2c_read@data:	
  2454                           ; 1 bytes @ 0x4
  2455                           
  2456     0074                     write_time@clock_reg:	
  2457                           ; 1 bytes @ 0x4
  2458                           
  2459     0074                     eeprom_write@addr:	
  2460                           ; 1 bytes @ 0x4
  2461                           
  2462     0074                     ___bmul@product:	
  2463                           ; 1 bytes @ 0x4
  2464                           
  2465     0074                     ___llmod@counter:	
  2466                           ; 1 bytes @ 0x4
  2467                           
  2468     0074                     puts@s:	
  2469                           ; 1 bytes @ 0x4
  2470                           
  2471                           
  2472                           ; 2 bytes @ 0x4
  2473     0074                     	ds	1
  2474     0075                     ??_read_ds1307:
  2475     0075                     ??_write_ds1307:	
  2476                           ; 1 bytes @ 0x5
  2477                           
  2478     0075                     ??_my_strcmp:	
  2479                           ; 1 bytes @ 0x5
  2480                           
  2481     0075                     ??_ext_eeprom_read:	
  2482                           ; 1 bytes @ 0x5
  2483                           
  2484     0075                     ??_write_event:	
  2485                           ; 1 bytes @ 0x5
  2486                           
  2487     0075                     ??_write_password:	
  2488                           ; 1 bytes @ 0x5
  2489                           
  2490     0075                     ??_read_adc:	
  2491                           ; 1 bytes @ 0x5
  2492                           
  2493     0075                     read_ds1307@addr:	
  2494                           ; 1 bytes @ 0x5
  2495                           
  2496     0075                     write_ds1307@addr:	
  2497                           ; 1 bytes @ 0x5
  2498                           
  2499     0075                     ext_eeprom_read@addr:	
  2500                           ; 1 bytes @ 0x5
  2501                           
  2502     0075                     write_password@str:	
  2503                           ; 1 bytes @ 0x5
  2504                           
  2505     0075                     ___bmul@multiplier:	
  2506                           ; 1 bytes @ 0x5
  2507                           
  2508     0075                     read_adc@adc_reg_val:	
  2509                           ; 1 bytes @ 0x5
  2510                           
  2511     0075                     ___wmul@multiplicand:	
  2512                           ; 2 bytes @ 0x5
  2513                           
  2514     0075                     ___awmod@dividend:	
  2515                           ; 2 bytes @ 0x5
  2516                           
  2517     0075                     ___lwdiv@dividend:	
  2518                           ; 2 bytes @ 0x5
  2519                           
  2520     0075                     ___lwmod@dividend:	
  2521                           ; 2 bytes @ 0x5
  2522                           
  2523                           
  2524                           ; 2 bytes @ 0x5
  2525     0075                     	ds	1
  2526     0076                     ??_puts:
  2527     0076                     ??_write_time_rtc:	
  2528                           ; 1 bytes @ 0x6
  2529                           
  2530     0076                     clcd_write@byte:	
  2531                           ; 1 bytes @ 0x6
  2532                           
  2533     0076                     read_ds1307@data:	
  2534                           ; 1 bytes @ 0x6
  2535                           
  2536     0076                     ext_eeprom_read@data:	
  2537                           ; 1 bytes @ 0x6
  2538                           
  2539     0076                     write_password@ind:	
  2540                           ; 1 bytes @ 0x6
  2541                           
  2542                           
  2543                           ; 1 bytes @ 0x6
  2544     0076                     	ds	1
  2545     0077                     ??_init_ds1307:
  2546     0077                     ??_get_time:	
  2547                           ; 1 bytes @ 0x7
  2548                           
  2549     0077                     ??_display_time:	
  2550                           ; 1 bytes @ 0x7
  2551                           
  2552     0077                     ??_print_sec:	
  2553                           ; 1 bytes @ 0x7
  2554                           
  2555     0077                     ??_ext_eeprom_write:	
  2556                           ; 1 bytes @ 0x7
  2557                           
  2558     0077                     ??_init_clcd:	
  2559                           ; 1 bytes @ 0x7
  2560                           
  2561     0077                     ?_clcd_putch:	
  2562                           ; 1 bytes @ 0x7
  2563                           
  2564     0077                     ??_clcd_print:	
  2565                           ; 1 bytes @ 0x7
  2566                           
  2567     0077                     ??___wmul:	
  2568                           ; 1 bytes @ 0x7
  2569                           
  2570     0077                     ??___awmod:	
  2571                           ; 1 bytes @ 0x7
  2572                           
  2573     0077                     ??___lwdiv:	
  2574                           ; 1 bytes @ 0x7
  2575                           
  2576     0077                     ??___lwmod:	
  2577                           ; 1 bytes @ 0x7
  2578                           
  2579     0077                     clcd_putch@addr:	
  2580                           ; 1 bytes @ 0x7
  2581                           
  2582     0077                     get_time@clock_reg:	
  2583                           ; 1 bytes @ 0x7
  2584                           
  2585     0077                     init_ds1307@dummy:	
  2586                           ; 1 bytes @ 0x7
  2587                           
  2588     0077                     my_strcmp@str1:	
  2589                           ; 1 bytes @ 0x7
  2590                           
  2591     0077                     write_event_log@i:	
  2592                           ; 1 bytes @ 0x7
  2593                           
  2594     0077                     ___lwmod@counter:	
  2595                           ; 1 bytes @ 0x7
  2596                           
  2597                           
  2598                           ; 1 bytes @ 0x7
  2599     0077                     	ds	1
  2600     0078                     ??_clcd_putch:
  2601     0078                     ??_init_config:	
  2602                           ; 1 bytes @ 0x8
  2603                           
  2604                           
  2605                           	psect	cstackBANK0
  2606     0020                     __pcstackBANK0:	
  2607                           ; 1 bytes @ 0x8
  2608                           
  2609     0020                     ??_init_display_controller:
  2610     0020                     ?_clcd_print:	
  2611                           ; 1 bytes @ 0x0
  2612                           
  2613     0020                     ??_clear_clcd:	
  2614                           ; 1 bytes @ 0x0
  2615                           
  2616     0020                     ?___lldiv:	
  2617                           ; 1 bytes @ 0x0
  2618                           
  2619     0020                     ?___llmod:	
  2620                           ; 4 bytes @ 0x0
  2621                           
  2622     0020                     ?___xxtofl:	
  2623                           ; 4 bytes @ 0x0
  2624                           
  2625     0020                     clcd_putch@data:	
  2626                           ; 4 bytes @ 0x0
  2627                           
  2628     0020                     ___awmod@counter:	
  2629                           ; 1 bytes @ 0x0
  2630                           
  2631     0020                     ___lwdiv@counter:	
  2632                           ; 1 bytes @ 0x0
  2633                           
  2634     0020                     clcd_print@str:	
  2635                           ; 1 bytes @ 0x0
  2636                           
  2637     0020                     ___wmul@product:	
  2638                           ; 2 bytes @ 0x0
  2639                           
  2640     0020                     ___lldiv@divisor:	
  2641                           ; 2 bytes @ 0x0
  2642                           
  2643     0020                     ___llmod@divisor:	
  2644                           ; 4 bytes @ 0x0
  2645                           
  2646     0020                     ___xxtofl@val:	
  2647                           ; 4 bytes @ 0x0
  2648                           
  2649                           
  2650                           ; 4 bytes @ 0x0
  2651     0020                     	ds	1
  2652     0021                     ___awmod@sign:
  2653     0021                     ___lwdiv@quotient:	
  2654                           ; 1 bytes @ 0x1
  2655                           
  2656                           
  2657                           ; 2 bytes @ 0x1
  2658     0021                     	ds	1
  2659     0022                     clcd_print@addr:
  2660     0022                     ext_eeprom_write@event_log:	
  2661                           ; 1 bytes @ 0x2
  2662                           
  2663                           
  2664                           ; 1 bytes @ 0x2
  2665     0022                     	ds	1
  2666     0023                     ??_clear_log:
  2667     0023                     ??_download:	
  2668                           ; 1 bytes @ 0x3
  2669                           
  2670     0023                     ??_set_time:	
  2671                           ; 1 bytes @ 0x3
  2672                           
  2673     0023                     ??_change_psswd:	
  2674                           ; 1 bytes @ 0x3
  2675                           
  2676     0023                     ?_display_menu:	
  2677                           ; 1 bytes @ 0x3
  2678                           
  2679     0023                     ??_view_log_events:	
  2680                           ; 1 bytes @ 0x3
  2681                           
  2682     0023                     display_time@clock_reg:	
  2683                           ; 1 bytes @ 0x3
  2684                           
  2685     0023                     display_menu@menu_select:	
  2686                           ; 1 bytes @ 0x3
  2687                           
  2688     0023                     ext_eeprom_write@i:	
  2689                           ; 1 bytes @ 0x3
  2690                           
  2691                           
  2692                           ; 1 bytes @ 0x3
  2693     0023                     	ds	1
  2694     0024                     ??_write_event_log:
  2695     0024                     ??_display_menu:	
  2696                           ; 1 bytes @ 0x4
  2697                           
  2698     0024                     ??___xxtofl:	
  2699                           ; 1 bytes @ 0x4
  2700                           
  2701     0024                     ___lldiv@dividend:	
  2702                           ; 1 bytes @ 0x4
  2703                           
  2704     0024                     ___llmod@dividend:	
  2705                           ; 4 bytes @ 0x4
  2706                           
  2707                           
  2708                           ; 4 bytes @ 0x4
  2709     0024                     	ds	1
  2710     0025                     view_log_events@i:
  2711                           
  2712                           ; 2 bytes @ 0x5
  2713     0025                     	ds	1
  2714     0026                     download@i:
  2715     0026                     change_psswd@attempt:	
  2716                           ; 2 bytes @ 0x6
  2717                           
  2718                           
  2719                           ; 2 bytes @ 0x6
  2720     0026                     	ds	1
  2721     0027                     display_menu@menu:
  2722     0027                     view_log_events@log_no:	
  2723                           ; 1 bytes @ 0x7
  2724                           
  2725     0027                     set_time@time_field:	
  2726                           ; 1 bytes @ 0x7
  2727                           
  2728                           
  2729                           ; 3 bytes @ 0x7
  2730     0027                     	ds	1
  2731     0028                     ??_view_logs:
  2732     0028                     ___xxtofl@sign:	
  2733                           ; 1 bytes @ 0x8
  2734                           
  2735     0028                     download@index:	
  2736                           ; 1 bytes @ 0x8
  2737                           
  2738     0028                     change_psswd@wait2:	
  2739                           ; 2 bytes @ 0x8
  2740                           
  2741     0028                     ___lldiv@quotient:	
  2742                           ; 2 bytes @ 0x8
  2743                           
  2744                           
  2745                           ; 4 bytes @ 0x8
  2746     0028                     	ds	1
  2747     0029                     ___xxtofl@exp:
  2748                           
  2749                           ; 1 bytes @ 0x9
  2750     0029                     	ds	1
  2751     002A                     set_time@blink:
  2752     002A                     ___xxtofl@arg:	
  2753                           ; 3 bytes @ 0xA
  2754                           
  2755     002A                     change_psswd@confirm:	
  2756                           ; 4 bytes @ 0xA
  2757                           
  2758                           
  2759                           ; 5 bytes @ 0xA
  2760     002A                     	ds	2
  2761     002C                     ___lldiv@counter:
  2762                           
  2763                           ; 1 bytes @ 0xC
  2764     002C                     	ds	1
  2765     002D                     ?_init_i2c:
  2766     002D                     ?_init_uart:	
  2767                           ; 1 bytes @ 0xD
  2768                           
  2769     002D                     ?_print_sec:	
  2770                           ; 1 bytes @ 0xD
  2771                           
  2772     002D                     init_i2c@baud:	
  2773                           ; 1 bytes @ 0xD
  2774                           
  2775     002D                     print_sec@count:	
  2776                           ; 4 bytes @ 0xD
  2777                           
  2778     002D                     init_uart@baud:	
  2779                           ; 4 bytes @ 0xD
  2780                           
  2781     002D                     set_time@wait:	
  2782                           ; 4 bytes @ 0xD
  2783                           
  2784                           
  2785                           ; 4 bytes @ 0xD
  2786     002D                     	ds	1
  2787     002E                     ?___fldiv:
  2788     002E                     ___fldiv@a:	
  2789                           ; 4 bytes @ 0xE
  2790                           
  2791                           
  2792                           ; 4 bytes @ 0xE
  2793     002E                     	ds	1
  2794     002F                     change_psswd@user:
  2795                           
  2796                           ; 5 bytes @ 0xF
  2797     002F                     	ds	2
  2798     0031                     print_sec@sec:
  2799     0031                     set_time@key_press2:	
  2800                           ; 4 bytes @ 0x11
  2801                           
  2802                           
  2803                           ; 4 bytes @ 0x11
  2804     0031                     	ds	1
  2805     0032                     ___fldiv@b:
  2806                           
  2807                           ; 4 bytes @ 0x12
  2808     0032                     	ds	2
  2809     0034                     change_psswd@confirm_flag:
  2810                           
  2811                           ; 1 bytes @ 0x14
  2812     0034                     	ds	1
  2813     0035                     print_sec@pos:
  2814     0035                     change_psswd@wait:	
  2815                           ; 1 bytes @ 0x15
  2816                           
  2817     0035                     set_time@key_press1:	
  2818                           ; 2 bytes @ 0x15
  2819                           
  2820                           
  2821                           ; 4 bytes @ 0x15
  2822     0035                     	ds	1
  2823     0036                     ??___fldiv:
  2824     0036                     print_sec@i:	
  2825                           ; 1 bytes @ 0x16
  2826                           
  2827                           
  2828                           ; 2 bytes @ 0x16
  2829     0036                     	ds	1
  2830     0037                     change_psswd@key:
  2831                           
  2832                           ; 1 bytes @ 0x17
  2833     0037                     	ds	1
  2834     0038                     ??_login:
  2835     0038                     change_psswd@blink_flag:	
  2836                           ; 1 bytes @ 0x18
  2837                           
  2838                           
  2839                           ; 1 bytes @ 0x18
  2840     0038                     	ds	1
  2841     0039                     set_time@long_press1:
  2842     0039                     change_psswd@index:	
  2843                           ; 1 bytes @ 0x19
  2844                           
  2845                           
  2846                           ; 2 bytes @ 0x19
  2847     0039                     	ds	1
  2848     003A                     set_time@long_press2:
  2849                           
  2850                           ; 1 bytes @ 0x1A
  2851     003A                     	ds	1
  2852     003B                     set_time@flag:
  2853     003B                     change_psswd@blink_pos:	
  2854                           ; 1 bytes @ 0x1B
  2855                           
  2856     003B                     ___fldiv@rem:	
  2857                           ; 1 bytes @ 0x1B
  2858                           
  2859                           
  2860                           ; 4 bytes @ 0x1B
  2861     003B                     	ds	1
  2862     003C                     login@key:
  2863     003C                     set_time@blink_pos:	
  2864                           ; 1 bytes @ 0x1C
  2865                           
  2866                           
  2867                           ; 1 bytes @ 0x1C
  2868     003C                     	ds	1
  2869     003D                     login@i:
  2870     003D                     set_time@time_key:	
  2871                           ; 1 bytes @ 0x1D
  2872                           
  2873                           
  2874                           ; 1 bytes @ 0x1D
  2875     003D                     	ds	1
  2876     003E                     set_time@time_digit:
  2877                           
  2878                           ; 2 bytes @ 0x1E
  2879     003E                     	ds	1
  2880     003F                     ___fldiv@sign:
  2881                           
  2882                           ; 1 bytes @ 0x1F
  2883     003F                     	ds	1
  2884     0040                     ??_menu:
  2885     0040                     ___fldiv@new_exp:	
  2886                           ; 1 bytes @ 0x20
  2887                           
  2888                           
  2889                           ; 2 bytes @ 0x20
  2890     0040                     	ds	2
  2891     0042                     ___fldiv@grs:
  2892                           
  2893                           ; 4 bytes @ 0x22
  2894     0042                     	ds	4
  2895     0046                     ___fldiv@bexp:
  2896                           
  2897                           ; 1 bytes @ 0x26
  2898     0046                     	ds	1
  2899     0047                     ___fldiv@aexp:
  2900                           
  2901                           ; 1 bytes @ 0x27
  2902     0047                     	ds	1
  2903     0048                     ?___fltol:
  2904     0048                     ___fltol@f1:	
  2905                           ; 4 bytes @ 0x28
  2906                           
  2907                           
  2908                           ; 4 bytes @ 0x28
  2909     0048                     	ds	4
  2910     004C                     ??___fltol:
  2911                           
  2912                           ; 1 bytes @ 0x2C
  2913     004C                     	ds	4
  2914     0050                     ___fltol@sign1:
  2915                           
  2916                           ; 1 bytes @ 0x30
  2917     0050                     	ds	1
  2918     0051                     ___fltol@exp1:
  2919                           
  2920                           ; 1 bytes @ 0x31
  2921     0051                     	ds	1
  2922     0052                     ??_dashboard:
  2923                           
  2924                           ; 1 bytes @ 0x32
  2925     0052                     	ds	4
  2926     0056                     ??_main:
  2927                           
  2928                           ; 1 bytes @ 0x36
  2929     0056                     	ds	2
  2930     0058                     main@key:
  2931                           
  2932                           ; 1 bytes @ 0x38
  2933     0058                     	ds	1
  2934                           
  2935                           	psect	maintext
  2936     1559                     __pmaintext:	
  2937 ;;
  2938 ;;Main: autosize = 0, tempsize = 2, incstack = 0, save=0
  2939 ;;
  2940 ;; *************** function _main *****************
  2941 ;; Defined at:
  2942 ;;		line 35 in file "main.c"
  2943 ;; Parameters:    Size  Location     Type
  2944 ;;		None
  2945 ;; Auto vars:     Size  Location     Type
  2946 ;;  key             1   56[BANK0 ] unsigned char 
  2947 ;; Return value:  Size  Location     Type
  2948 ;;                  1    wreg      void 
  2949 ;; Registers used:
  2950 ;;		wreg, fsr0l, fsr0h, status,2, status,0, btemp+1, pclath, cstack
  2951 ;; Tracked objects:
  2952 ;;		On entry : B00/0
  2953 ;;		On exit  : 0/0
  2954 ;;		Unchanged: 0/0
  2955 ;; Data sizes:     COMMON   BANK0   BANK1   BANK3   BANK2
  2956 ;;      Params:         0       0       0       0       0
  2957 ;;      Locals:         0       1       0       0       0
  2958 ;;      Temps:          0       2       0       0       0
  2959 ;;      Totals:         0       3       0       0       0
  2960 ;;Total ram usage:        3 bytes
  2961 ;; Hardware stack levels required when called: 8
  2962 ;; This function calls:
  2963 ;;		_clear_clcd
  2964 ;;		_dashboard
  2965 ;;		_init_config
  2966 ;;		_login
  2967 ;;		_menu
  2968 ;;		_read_digital_keypad
  2969 ;; This function is called by:
  2970 ;;		Startup code after reset
  2971 ;; This function uses a non-reentrant model
  2972 ;;
  2973                           
  2974     1559                     _main:	
  2975                           ;psect for function _main
  2976                           
  2977     1559                     l6079:	
  2978                           ;incstack = 0
  2979                           ; Regs used in _main: [wreg-fsr0h+status,2+status,0+btemp+1+pclath+cstack]
  2980                           
  2981                           
  2982                           ;main.c: 37:             case 1 : dashboard(key);
  2983     1559  160A  118A  231D  160A  118A  	fcall	_init_config
  2984     155E                     l6081:
  2985                           
  2986                           ;main.c: 42:                          login();
  2987     155E  1283               	bcf	3,5	;RP0=0, select bank0
  2988     155F  1303               	bcf	3,6	;RP1=0, select bank0
  2989     1560  086C               	movf	_dash_flag,w
  2990     1561  1903               	btfsc	3,2
  2991     1562  2D64               	goto	u6901
  2992     1563  2D65               	goto	u6900
  2993     1564                     u6901:
  2994     1564  2D6E               	goto	l6085
  2995     1565                     u6900:
  2996     1565                     l6083:
  2997                           
  2998                           ;main.c: 43:                      };main.c: 44:                      else if(pwd_success
      +                           == 1)
  2999     1565  3001               	movlw	1
  3000     1566  160A  118A  2178  160A  118A  	fcall	_read_digital_keypad
  3001     156B  1283               	bcf	3,5	;RP0=0, select bank0
  3002     156C  1303               	bcf	3,6	;RP1=0, select bank0
  3003     156D  00D8               	movwf	main@key
  3004     156E                     l6085:
  3005                           
  3006                           ;main.c: 46:                          menu();
  3007     156E  3037               	movlw	55
  3008     156F  0658               	xorwf	main@key,w
  3009     1570  1D03               	btfss	3,2
  3010     1571  2D73               	goto	u6911
  3011     1572  2D74               	goto	u6910
  3012     1573                     u6911:
  3013     1573  2D9F               	goto	l6105
  3014     1574                     u6910:
  3015     1574                     l6087:
  3016     1574  086C               	movf	_dash_flag,w
  3017     1575  1903               	btfsc	3,2
  3018     1576  2D78               	goto	u6921
  3019     1577  2D79               	goto	u6920
  3020     1578                     u6921:
  3021     1578  2D9F               	goto	l6105
  3022     1579                     u6920:
  3023     1579                     l6089:
  3024                           
  3025                           ;main.c: 47:                      };main.c: 48:                      break;
  3026     1579  160A  158A  26AD  160A  118A  	fcall	_clear_clcd
  3027     157E                     l6091:
  3028                           
  3029                           ;main.c: 49:         }
  3030     157E  1283               	bcf	3,5	;RP0=0, select bank0
  3031     157F  1303               	bcf	3,6	;RP1=0, select bank0
  3032     1580  01EC               	clrf	_dash_flag
  3033     1581  2D9F               	goto	l6105
  3034     1582                     l6093:
  3035     1582  0858               	movf	main@key,w
  3036     1583  120A  158A  2473  160A  118A  	fcall	_dashboard
  3037     1588  2D5E               	goto	l6081
  3038     1589                     l6095:
  3039     1589  0864               	movf	_pwd_success,w
  3040     158A  1D03               	btfss	3,2
  3041     158B  2D8D               	goto	u6931
  3042     158C  2D8E               	goto	u6930
  3043     158D                     u6931:
  3044     158D  2D94               	goto	l6099
  3045     158E                     u6930:
  3046     158E                     l6097:
  3047     158E  120A  118A  24FA  160A  118A  	fcall	_login
  3048     1593  2D5E               	goto	l6081
  3049     1594                     l6099:
  3050     1594  0364               	decf	_pwd_success,w
  3051     1595  1D03               	btfss	3,2
  3052     1596  2D98               	goto	u6941
  3053     1597  2D99               	goto	u6940
  3054     1598                     u6941:
  3055     1598  2DAF               	goto	l118
  3056     1599                     u6940:
  3057     1599                     l6101:
  3058     1599  120A  118A  26FA  160A  118A  	fcall	_menu
  3059     159E  2D5E               	goto	l6081
  3060     159F                     l6105:
  3061     159F  086C               	movf	_dash_flag,w
  3062     15A0  00D6               	movwf	??_main
  3063     15A1  01D7               	clrf	??_main+1
  3064                           
  3065                           ; Switch on 2 bytes has been partitioned into a top level switch of size 1, and 1 sub-sw
      +                          itches
  3066                           ; Switch size 1, requested type "simple"
  3067                           ; Number of cases is 1, Range of values is 0 to 0
  3068                           ; switch strategies available:
  3069                           ; Name         Instructions Cycles
  3070                           ; simple_byte            4     3 (average)
  3071                           ; direct_byte           11     8 (fixed)
  3072                           ; jumptable            260     6 (fixed)
  3073                           ;	Chosen strategy is simple_byte
  3074     15A2  0857               	movf	??_main+1,w
  3075     15A3  3A00               	xorlw	0	; case 0
  3076     15A4  1903               	skipnz
  3077     15A5  2DA7               	goto	l6171
  3078     15A6  2D5E               	goto	l6081
  3079     15A7                     l6171:
  3080                           
  3081                           ; Switch size 1, requested type "simple"
  3082                           ; Number of cases is 2, Range of values is 0 to 1
  3083                           ; switch strategies available:
  3084                           ; Name         Instructions Cycles
  3085                           ; simple_byte            7     4 (average)
  3086                           ; direct_byte           14     8 (fixed)
  3087                           ; jumptable            260     6 (fixed)
  3088                           ;	Chosen strategy is simple_byte
  3089     15A7  0856               	movf	??_main,w
  3090     15A8  3A00               	xorlw	0	; case 0
  3091     15A9  1903               	skipnz
  3092     15AA  2D89               	goto	l6095
  3093     15AB  3A01               	xorlw	1	; case 1
  3094     15AC  1903               	skipnz
  3095     15AD  2D82               	goto	l6093
  3096     15AE  2D5E               	goto	l6081
  3097     15AF                     l118:
  3098     15AF  2D5E               	goto	l6081
  3099     15B0  120A  118A  280E   	ljmp	start
  3100     15B3                     __end_of_main:
  3101                           
  3102                           	psect	text1
  3103     06FA                     __ptext1:	
  3104 ;; *************** function _menu *****************
  3105 ;; Defined at:
  3106 ;;		line 12 in file "menu.c"
  3107 ;; Parameters:    Size  Location     Type
  3108 ;;		None
  3109 ;; Auto vars:     Size  Location     Type
  3110 ;;		None
  3111 ;; Return value:  Size  Location     Type
  3112 ;;                  1    wreg      void 
  3113 ;; Registers used:
  3114 ;;		wreg, fsr0l, fsr0h, status,2, status,0, btemp+1, pclath, cstack
  3115 ;; Tracked objects:
  3116 ;;		On entry : 0/0
  3117 ;;		On exit  : 0/0
  3118 ;;		Unchanged: 0/0
  3119 ;; Data sizes:     COMMON   BANK0   BANK1   BANK3   BANK2
  3120 ;;      Params:         0       0       0       0       0
  3121 ;;      Locals:         0       0       0       0       0
  3122 ;;      Temps:          0       2       0       0       0
  3123 ;;      Totals:         0       2       0       0       0
  3124 ;;Total ram usage:        2 bytes
  3125 ;; Hardware stack levels used: 1
  3126 ;; Hardware stack levels required when called: 7
  3127 ;; This function calls:
  3128 ;;		_change_psswd
  3129 ;;		_clear_clcd
  3130 ;;		_clear_log
  3131 ;;		_display_menu
  3132 ;;		_download
  3133 ;;		_read_digital_keypad
  3134 ;;		_set_time
  3135 ;;		_view_logs
  3136 ;; This function is called by:
  3137 ;;		_main
  3138 ;; This function uses a non-reentrant model
  3139 ;;
  3140                           
  3141     06FA                     _menu:	
  3142                           ;psect for function _menu
  3143                           
  3144     06FA                     l5997:	
  3145                           ;incstack = 0
  3146                           ; Regs used in _menu: [wreg-fsr0h+status,2+status,0+btemp+1+pclath+cstack]
  3147                           
  3148                           
  3149                           ;menu.c: 15:     static unsigned char scroll_key,long_press1=1,long_press2 = 1;;menu.c: 
      +                          18:     static unsigned int dkp4_press = 0,dkp5_press = 0;;menu.c: 19:     scroll_key = 
      +                          read_digital_keypad(0);
  3150     06FA  3000               	movlw	0
  3151     06FB  160A  118A  2178  120A  118A  	fcall	_read_digital_keypad
  3152     0700  1283               	bcf	3,5	;RP0=0, select bank0
  3153     0701  1303               	bcf	3,6	;RP1=0, select bank0
  3154     0702  00DD               	movwf	menu@scroll_key
  3155     0703                     l5999:
  3156                           
  3157                           ;menu.c: 20:     if(scroll_key == 0x37)
  3158     0703  3037               	movlw	55
  3159     0704  065D               	xorwf	menu@scroll_key,w
  3160     0705  1D03               	btfss	3,2
  3161     0706  2F08               	goto	u6791
  3162     0707  2F09               	goto	u6790
  3163     0708                     u6791:
  3164     0708  2F15               	goto	l6005
  3165     0709                     u6790:
  3166     0709                     l6001:
  3167                           
  3168                           ;menu.c: 21:     {;menu.c: 22:         dkp4_press++;
  3169     0709  3001               	movlw	1
  3170     070A  1683               	bsf	3,5	;RP0=1, select bank1
  3171     070B  1303               	bcf	3,6	;RP1=0, select bank1
  3172     070C  07C0               	addwf	menu@dkp4_press^(0+128),f
  3173     070D  1803               	skipnc
  3174     070E  0AC1               	incf	(menu@dkp4_press+1)^(0+128),f
  3175     070F  3000               	movlw	0
  3176     0710  07C1               	addwf	(menu@dkp4_press+1)^(0+128),f
  3177     0711                     l6003:
  3178                           
  3179                           ;menu.c: 23:         long_press1 = 0;
  3180     0711  1283               	bcf	3,5	;RP0=0, select bank0
  3181     0712  1303               	bcf	3,6	;RP1=0, select bank0
  3182     0713  01E7               	clrf	menu@long_press1
  3183                           
  3184                           ;menu.c: 24:     }
  3185     0714  2F7C               	goto	l6035
  3186     0715                     l6005:
  3187     0715  303F               	movlw	63
  3188     0716  065D               	xorwf	menu@scroll_key,w
  3189     0717  1D03               	btfss	3,2
  3190     0718  2F1A               	goto	u6801
  3191     0719  2F1B               	goto	u6800
  3192     071A                     u6801:
  3193     071A  2F7C               	goto	l6035
  3194     071B                     u6800:
  3195     071B                     l6007:
  3196     071B  0867               	movf	menu@long_press1,w
  3197     071C  1D03               	btfss	3,2
  3198     071D  2F1F               	goto	u6811
  3199     071E  2F20               	goto	u6810
  3200     071F                     u6811:
  3201     071F  2F7C               	goto	l6035
  3202     0720                     u6810:
  3203     0720                     l6009:
  3204                           
  3205                           ;menu.c: 26:     {;menu.c: 27:         long_press1 = 1;
  3206     0720  01E7               	clrf	menu@long_press1
  3207     0721  0AE7               	incf	menu@long_press1,f
  3208     0722                     l6011:
  3209                           
  3210                           ;menu.c: 28:         if(dkp4_press < 20)
  3211     0722  3000               	movlw	0
  3212     0723  1683               	bsf	3,5	;RP0=1, select bank1
  3213     0724  1303               	bcf	3,6	;RP1=0, select bank1
  3214     0725  0241               	subwf	(menu@dkp4_press+1)^(0+128),w
  3215     0726  3014               	movlw	20
  3216     0727  1903               	skipnz
  3217     0728  0240               	subwf	menu@dkp4_press^(0+128),w
  3218     0729  1803               	skipnc
  3219     072A  2F2C               	goto	u6821
  3220     072B  2F2D               	goto	u6820
  3221     072C                     u6821:
  3222     072C  2F5A               	goto	l6031
  3223     072D                     u6820:
  3224     072D                     l6013:
  3225                           
  3226                           ;menu.c: 29:         {;menu.c: 30:             if(menu_select > 0)
  3227     072D  1283               	bcf	3,5	;RP0=0, select bank0
  3228     072E  1303               	bcf	3,6	;RP1=0, select bank0
  3229     072F  085E               	movf	_menu_select,w
  3230     0730  1903               	btfsc	3,2
  3231     0731  2F33               	goto	u6831
  3232     0732  2F34               	goto	u6830
  3233     0733                     u6831:
  3234     0733  2F78               	goto	l434
  3235     0734                     u6830:
  3236     0734                     l6015:
  3237                           
  3238                           ;menu.c: 31:             {;menu.c: 32:                 menu_select--;
  3239     0734  3001               	movlw	1
  3240     0735  02DE               	subwf	_menu_select,f
  3241     0736                     l6017:
  3242                           
  3243                           ;menu.c: 33:                 clear_clcd();
  3244     0736  160A  158A  26AD  120A  118A  	fcall	_clear_clcd
  3245     073B  2F78               	goto	l434
  3246     073C                     l6019:
  3247     073C  120A  158A  23AB  120A  118A  	fcall	_view_logs
  3248                           
  3249                           ;menu.c: 41:                          break;
  3250     0741  2F75               	goto	l6033
  3251     0742                     l6021:
  3252     0742  160A  118A  2396  120A  118A  	fcall	_clear_log
  3253                           
  3254                           ;menu.c: 43:                          break;
  3255     0747  2F75               	goto	l6033
  3256     0748                     l6023:
  3257     0748  120A  158A  22EE  120A  118A  	fcall	_download
  3258                           
  3259                           ;menu.c: 45:                          break;
  3260     074D  2F75               	goto	l6033
  3261     074E                     l6025:
  3262     074E  120A  118A  2065  120A  118A  	fcall	_set_time
  3263                           
  3264                           ;menu.c: 47:                          break;
  3265     0753  2F75               	goto	l6033
  3266     0754                     l6027:
  3267     0754  120A  118A  22F4  120A  118A  	fcall	_change_psswd
  3268                           
  3269                           ;menu.c: 49:                          break;
  3270     0759  2F75               	goto	l6033
  3271     075A                     l6031:
  3272     075A  1283               	bcf	3,5	;RP0=0, select bank0
  3273     075B  1303               	bcf	3,6	;RP1=0, select bank0
  3274     075C  085E               	movf	_menu_select,w
  3275     075D  00C0               	movwf	??_menu
  3276     075E  01C1               	clrf	??_menu+1
  3277                           
  3278                           ; Switch on 2 bytes has been partitioned into a top level switch of size 1, and 1 sub-sw
      +                          itches
  3279                           ; Switch size 1, requested type "simple"
  3280                           ; Number of cases is 1, Range of values is 0 to 0
  3281                           ; switch strategies available:
  3282                           ; Name         Instructions Cycles
  3283                           ; simple_byte            4     3 (average)
  3284                           ; direct_byte           11     8 (fixed)
  3285                           ; jumptable            260     6 (fixed)
  3286                           ;	Chosen strategy is simple_byte
  3287     075F  0841               	movf	??_menu+1,w
  3288     0760  3A00               	xorlw	0	; case 0
  3289     0761  1903               	skipnz
  3290     0762  2F64               	goto	l6173
  3291     0763  2F75               	goto	l6033
  3292     0764                     l6173:
  3293                           
  3294                           ; Switch size 1, requested type "simple"
  3295                           ; Number of cases is 5, Range of values is 0 to 4
  3296                           ; switch strategies available:
  3297                           ; Name         Instructions Cycles
  3298                           ; simple_byte           16     9 (average)
  3299                           ; direct_byte           23     8 (fixed)
  3300                           ; jumptable            260     6 (fixed)
  3301                           ;	Chosen strategy is simple_byte
  3302     0764  0840               	movf	??_menu,w
  3303     0765  3A00               	xorlw	0	; case 0
  3304     0766  1903               	skipnz
  3305     0767  2F3C               	goto	l6019
  3306     0768  3A01               	xorlw	1	; case 1
  3307     0769  1903               	skipnz
  3308     076A  2F42               	goto	l6021
  3309     076B  3A03               	xorlw	3	; case 2
  3310     076C  1903               	skipnz
  3311     076D  2F48               	goto	l6023
  3312     076E  3A01               	xorlw	1	; case 3
  3313     076F  1903               	skipnz
  3314     0770  2F4E               	goto	l6025
  3315     0771  3A07               	xorlw	7	; case 4
  3316     0772  1903               	skipnz
  3317     0773  2F54               	goto	l6027
  3318     0774  2F75               	goto	l6033
  3319     0775                     l6033:
  3320                           
  3321                           ;menu.c: 52:             menu_select = 0;
  3322     0775  1283               	bcf	3,5	;RP0=0, select bank0
  3323     0776  1303               	bcf	3,6	;RP1=0, select bank0
  3324     0777  01DE               	clrf	_menu_select
  3325     0778                     l434:	
  3326                           ;menu.c: 53:         }
  3327                           
  3328                           
  3329                           ;menu.c: 54:         dkp4_press = 0;
  3330     0778  1683               	bsf	3,5	;RP0=1, select bank1
  3331     0779  1303               	bcf	3,6	;RP1=0, select bank1
  3332     077A  01C0               	clrf	menu@dkp4_press^(0+128)
  3333     077B  01C1               	clrf	(menu@dkp4_press+1)^(0+128)
  3334     077C                     l6035:
  3335                           
  3336                           ;menu.c: 56:     if(scroll_key == 0x2F )
  3337     077C  302F               	movlw	47
  3338     077D  1283               	bcf	3,5	;RP0=0, select bank0
  3339     077E  065D               	xorwf	menu@scroll_key,w
  3340     077F  1D03               	btfss	3,2
  3341     0780  2F82               	goto	u6841
  3342     0781  2F83               	goto	u6840
  3343     0782                     u6841:
  3344     0782  2F8D               	goto	l6041
  3345     0783                     u6840:
  3346     0783                     l6037:
  3347                           
  3348                           ;menu.c: 57:     {;menu.c: 58:         dkp5_press++;
  3349     0783  3001               	movlw	1
  3350     0784  1683               	bsf	3,5	;RP0=1, select bank1
  3351     0785  1303               	bcf	3,6	;RP1=0, select bank1
  3352     0786  07BE               	addwf	menu@dkp5_press^(0+128),f
  3353     0787  1803               	skipnc
  3354     0788  0ABF               	incf	(menu@dkp5_press+1)^(0+128),f
  3355     0789  3000               	movlw	0
  3356     078A  07BF               	addwf	(menu@dkp5_press+1)^(0+128),f
  3357     078B                     l6039:
  3358                           
  3359                           ;menu.c: 59:         long_press2 = 0;
  3360     078B  01F8               	clrf	menu@long_press2
  3361                           
  3362                           ;menu.c: 60:     }
  3363     078C  2FC9               	goto	l6067
  3364     078D                     l6041:
  3365     078D  303F               	movlw	63
  3366     078E  065D               	xorwf	menu@scroll_key,w
  3367     078F  1D03               	btfss	3,2
  3368     0790  2F92               	goto	u6851
  3369     0791  2F93               	goto	u6850
  3370     0792                     u6851:
  3371     0792  2FC9               	goto	l6067
  3372     0793                     u6850:
  3373     0793                     l6043:
  3374     0793  0878               	movf	menu@long_press2,w
  3375     0794  1D03               	btfss	3,2
  3376     0795  2F97               	goto	u6861
  3377     0796  2F98               	goto	u6860
  3378     0797                     u6861:
  3379     0797  2FC9               	goto	l6067
  3380     0798                     u6860:
  3381     0798                     l6045:
  3382                           
  3383                           ;menu.c: 62:     {;menu.c: 63:         long_press2 = 1;
  3384     0798  01F8               	clrf	menu@long_press2
  3385     0799  0AF8               	incf	menu@long_press2,f
  3386     079A                     l6047:
  3387                           
  3388                           ;menu.c: 64:         if(dkp5_press < 50)
  3389     079A  3000               	movlw	0
  3390     079B  1683               	bsf	3,5	;RP0=1, select bank1
  3391     079C  1303               	bcf	3,6	;RP1=0, select bank1
  3392     079D  023F               	subwf	(menu@dkp5_press+1)^(0+128),w
  3393     079E  3032               	movlw	50
  3394     079F  1903               	skipnz
  3395     07A0  023E               	subwf	menu@dkp5_press^(0+128),w
  3396     07A1  1803               	skipnc
  3397     07A2  2FA4               	goto	u6871
  3398     07A3  2FA5               	goto	u6870
  3399     07A4                     u6871:
  3400     07A4  2FB9               	goto	l6057
  3401     07A5                     u6870:
  3402     07A5                     l6049:
  3403                           
  3404                           ;menu.c: 65:         {;menu.c: 66:             dkp5_press = 0;
  3405     07A5  01BE               	clrf	menu@dkp5_press^(0+128)
  3406     07A6  01BF               	clrf	(menu@dkp5_press+1)^(0+128)
  3407     07A7                     l6051:
  3408                           
  3409                           ;menu.c: 68:             if(menu_select < 4 )
  3410     07A7  3004               	movlw	4
  3411     07A8  1283               	bcf	3,5	;RP0=0, select bank0
  3412     07A9  1303               	bcf	3,6	;RP1=0, select bank0
  3413     07AA  025E               	subwf	_menu_select,w
  3414     07AB  1803               	skipnc
  3415     07AC  2FAE               	goto	u6881
  3416     07AD  2FAF               	goto	u6880
  3417     07AE                     u6881:
  3418     07AE  2FC9               	goto	l444
  3419     07AF                     u6880:
  3420     07AF                     l6053:
  3421                           
  3422                           ;menu.c: 69:             {;menu.c: 70:                 menu_select++;
  3423     07AF  3001               	movlw	1
  3424     07B0  00FF               	movwf	btemp+1
  3425     07B1  087F               	movf	btemp+1,w
  3426     07B2  07DE               	addwf	_menu_select,f
  3427     07B3                     l6055:
  3428                           
  3429                           ;menu.c: 71:                 clear_clcd();
  3430     07B3  160A  158A  26AD  120A  118A  	fcall	_clear_clcd
  3431     07B8  2FC9               	goto	l6067
  3432     07B9                     l6057:
  3433                           
  3434                           ;menu.c: 75:         {;menu.c: 76:             dkp5_press = 0;
  3435     07B9  01BE               	clrf	menu@dkp5_press^(0+128)
  3436     07BA  01BF               	clrf	(menu@dkp5_press+1)^(0+128)
  3437     07BB                     l6059:
  3438                           
  3439                           ;menu.c: 77:             passwd_read = 1;
  3440     07BB  1283               	bcf	3,5	;RP0=0, select bank0
  3441     07BC  1303               	bcf	3,6	;RP1=0, select bank0
  3442     07BD  01EA               	clrf	_passwd_read
  3443     07BE  0AEA               	incf	_passwd_read,f
  3444                           
  3445                           ;menu.c: 78:             pwd_success = 0;
  3446     07BF  01E4               	clrf	_pwd_success
  3447     07C0                     l6061:
  3448                           
  3449                           ;menu.c: 79:             dash_flag = 1;
  3450     07C0  01EC               	clrf	_dash_flag
  3451     07C1  0AEC               	incf	_dash_flag,f
  3452                           
  3453                           ;menu.c: 80:             menu_select = 0;
  3454     07C2  01DE               	clrf	_menu_select
  3455     07C3                     l6063:
  3456                           
  3457                           ;menu.c: 81:             clear_clcd();
  3458     07C3  160A  158A  26AD  120A  118A  	fcall	_clear_clcd
  3459     07C8  2FDC               	goto	l448
  3460     07C9                     l444:	
  3461                           ;menu.c: 85:     }
  3462                           
  3463     07C9                     l6067:
  3464                           
  3465                           ;menu.c: 86:     display_menu(option_menu,menu_select);
  3466     07C9  1283               	bcf	3,5	;RP0=0, select bank0
  3467     07CA  1303               	bcf	3,6	;RP1=0, select bank0
  3468     07CB  085E               	movf	_menu_select,w
  3469     07CC  00A3               	movwf	display_menu@menu_select
  3470     07CD  30D2               	movlw	(low (_option_menu| (0+256)))& (0+255)
  3471     07CE  120A  158A  2135  120A  118A  	fcall	_display_menu
  3472     07D3                     l6069:
  3473                           
  3474                           ;menu.c: 87:     if(set_time_flag)
  3475     07D3  1283               	bcf	3,5	;RP0=0, select bank0
  3476     07D4  1303               	bcf	3,6	;RP1=0, select bank0
  3477     07D5  085F               	movf	_set_time_flag,w
  3478     07D6  1903               	btfsc	3,2
  3479     07D7  2FD9               	goto	u6891
  3480     07D8  2FDA               	goto	u6890
  3481     07D9                     u6891:
  3482     07D9  2FDC               	goto	l448
  3483     07DA                     u6890:
  3484     07DA                     l6071:
  3485                           
  3486                           ;menu.c: 88:     {;menu.c: 89:         set_time_flag = 0;
  3487     07DA  01DF               	clrf	_set_time_flag
  3488     07DB  2FC3               	goto	l6063
  3489     07DC                     l448:
  3490     07DC  0008               	return
  3491     07DD                     __end_of_menu:
  3492                           
  3493                           	psect	text2
  3494     0BAB                     __ptext2:	
  3495 ;; *************** function _view_logs *****************
  3496 ;; Defined at:
  3497 ;;		line 18 in file "view_log.c"
  3498 ;; Parameters:    Size  Location     Type
  3499 ;;		None
  3500 ;; Auto vars:     Size  Location     Type
  3501 ;;		None
  3502 ;; Return value:  Size  Location     Type
  3503 ;;                  1    wreg      void 
  3504 ;; Registers used:
  3505 ;;		wreg, fsr0l, fsr0h, status,2, status,0, btemp+1, pclath, cstack
  3506 ;; Tracked objects:
  3507 ;;		On entry : 0/0
  3508 ;;		On exit  : 0/0
  3509 ;;		Unchanged: 0/0
  3510 ;; Data sizes:     COMMON   BANK0   BANK1   BANK3   BANK2
  3511 ;;      Params:         0       0       0       0       0
  3512 ;;      Locals:         0       0       0       0       0
  3513 ;;      Temps:          0       3       0       0       0
  3514 ;;      Totals:         0       3       0       0       0
  3515 ;;Total ram usage:        3 bytes
  3516 ;; Hardware stack levels used: 1
  3517 ;; Hardware stack levels required when called: 6
  3518 ;; This function calls:
  3519 ;;		_clcd_print
  3520 ;;		_clear_clcd
  3521 ;;		_read_digital_keypad
  3522 ;;		_view_log_events
  3523 ;; This function is called by:
  3524 ;;		_menu
  3525 ;; This function uses a non-reentrant model
  3526 ;;
  3527                           
  3528     0BAB                     _view_logs:	
  3529                           ;psect for function _view_logs
  3530                           
  3531     0BAB                     l491:	
  3532                           ;incstack = 0
  3533                           ; Regs used in _view_logs: [wreg-fsr0h+status,2+status,0+btemp+1+pclath+cstack]
  3534                           ;view_log.c: 20:     static unsigned char log_no = 0;;view_log.c: 21:     static unsigne
      +                          d char log_key;;view_log.c: 22:     static unsigned char long_press1 = 1, long_press2 = 
      +                          1;;view_log.c: 23:     static unsigned char press4 = 0, press5 = 0;;view_log.c: 24:     
      +                          while(1)
  3535                           
  3536     0BAB                     l5101:
  3537                           
  3538                           ;view_log.c: 25:     {;view_log.c: 26:         log_key = read_digital_keypad(0);
  3539     0BAB  3000               	movlw	0
  3540     0BAC  160A  118A  2178  120A  158A  	fcall	_read_digital_keypad
  3541     0BB1  1283               	bcf	3,5	;RP0=0, select bank0
  3542     0BB2  1303               	bcf	3,6	;RP1=0, select bank0
  3543     0BB3  00DB               	movwf	view_logs@log_key
  3544     0BB4                     l5103:
  3545                           
  3546                           ;view_log.c: 27:         if(no_event)
  3547     0BB4  086B               	movf	_no_event,w
  3548     0BB5  1903               	btfsc	3,2
  3549     0BB6  2BB8               	goto	u5421
  3550     0BB7  2BB9               	goto	u5420
  3551     0BB8                     u5421:
  3552     0BB8  2BE0               	goto	l5117
  3553     0BB9                     u5420:
  3554     0BB9                     l5105:
  3555                           
  3556                           ;view_log.c: 28:         {;view_log.c: 29:             clear_clcd();
  3557     0BB9  160A  158A  26AD  120A  158A  	fcall	_clear_clcd
  3558     0BBE                     l5107:
  3559                           
  3560                           ;view_log.c: 30:             clcd_print(" NO EVENTS ",(0x80 + 0));
  3561     0BBE  3012               	movlw	low (STR_21| (0+32768))
  3562     0BBF  1283               	bcf	3,5	;RP0=0, select bank0
  3563     0BC0  1303               	bcf	3,6	;RP1=0, select bank0
  3564     0BC1  00A0               	movwf	clcd_print@str
  3565     0BC2  3091               	movlw	high (STR_21| (0+32768))
  3566     0BC3  00A1               	movwf	clcd_print@str+1
  3567     0BC4  3080               	movlw	128
  3568     0BC5  00A2               	movwf	clcd_print@addr
  3569     0BC6  160A  118A  227C  120A  158A  	fcall	_clcd_print
  3570     0BCB                     l5109:
  3571                           
  3572                           ;view_log.c: 31:             _delay((unsigned long)((1000)*(20000000/4000.0)));
  3573     0BCB  301A               	movlw	26
  3574     0BCC  1283               	bcf	3,5	;RP0=0, select bank0
  3575     0BCD  1303               	bcf	3,6	;RP1=0, select bank0
  3576     0BCE  00AA               	movwf	??_view_logs+2
  3577     0BCF  305E               	movlw	94
  3578     0BD0  00A9               	movwf	??_view_logs+1
  3579     0BD1  306D               	movlw	109
  3580     0BD2  00A8               	movwf	??_view_logs
  3581     0BD3                     u6957:
  3582     0BD3  0BA8               	decfsz	??_view_logs,f
  3583     0BD4  2BD3               	goto	u6957
  3584     0BD5  0BA9               	decfsz	??_view_logs+1,f
  3585     0BD6  2BD3               	goto	u6957
  3586     0BD7  0BAA               	decfsz	??_view_logs+2,f
  3587     0BD8  2BD3               	goto	u6957
  3588     0BD9  2BDA               	nop2
  3589     0BDA                     l5111:
  3590                           
  3591                           ;view_log.c: 32:             clear_clcd();
  3592     0BDA  160A  158A  26AD  120A  158A  	fcall	_clear_clcd
  3593     0BDF  2C72               	goto	l493
  3594     0BE0                     l5117:
  3595                           
  3596                           ;view_log.c: 36:         {;view_log.c: 37:             if(log_key == 0x37)
  3597     0BE0  3037               	movlw	55
  3598     0BE1  065B               	xorwf	view_logs@log_key,w
  3599     0BE2  1D03               	btfss	3,2
  3600     0BE3  2BE5               	goto	u5431
  3601     0BE4  2BE6               	goto	u5430
  3602     0BE5                     u5431:
  3603     0BE5  2BEE               	goto	l5123
  3604     0BE6                     u5430:
  3605     0BE6                     l5119:
  3606                           
  3607                           ;view_log.c: 38:             {;view_log.c: 39:                 press4++;
  3608     0BE6  3001               	movlw	1
  3609     0BE7  00FF               	movwf	btemp+1
  3610     0BE8  087F               	movf	btemp+1,w
  3611     0BE9  1683               	bsf	3,5	;RP0=1, select bank1
  3612     0BEA  1303               	bcf	3,6	;RP1=0, select bank1
  3613     0BEB  07C9               	addwf	view_logs@press4^(0+128),f
  3614     0BEC                     l5121:
  3615                           
  3616                           ;view_log.c: 40:                 long_press1 = 0;
  3617     0BEC  01ED               	clrf	view_logs@long_press1^(0+128)
  3618                           
  3619                           ;view_log.c: 41:             }
  3620     0BED  2C13               	goto	l5139
  3621     0BEE                     l5123:
  3622     0BEE  303F               	movlw	63
  3623     0BEF  065B               	xorwf	view_logs@log_key,w
  3624     0BF0  1D03               	btfss	3,2
  3625     0BF1  2BF3               	goto	u5441
  3626     0BF2  2BF4               	goto	u5440
  3627     0BF3                     u5441:
  3628     0BF3  2C13               	goto	l5139
  3629     0BF4                     u5440:
  3630     0BF4                     l5125:
  3631     0BF4  1683               	bsf	3,5	;RP0=1, select bank1
  3632     0BF5  1303               	bcf	3,6	;RP1=0, select bank1
  3633     0BF6  086D               	movf	view_logs@long_press1^(0+128),w
  3634     0BF7  1D03               	btfss	3,2
  3635     0BF8  2BFA               	goto	u5451
  3636     0BF9  2BFB               	goto	u5450
  3637     0BFA                     u5451:
  3638     0BFA  2C13               	goto	l5139
  3639     0BFB                     u5450:
  3640     0BFB                     l5127:
  3641                           
  3642                           ;view_log.c: 43:             {;view_log.c: 44:                 long_press1 = 1;
  3643     0BFB  01ED               	clrf	view_logs@long_press1^(0+128)
  3644     0BFC  0AED               	incf	view_logs@long_press1^(0+128),f
  3645     0BFD                     l5129:
  3646                           
  3647                           ;view_log.c: 45:                 if(press4 < 10)
  3648     0BFD  300A               	movlw	10
  3649     0BFE  0249               	subwf	view_logs@press4^(0+128),w
  3650     0BFF  1803               	skipnc
  3651     0C00  2C02               	goto	u5461
  3652     0C01  2C03               	goto	u5460
  3653     0C02                     u5461:
  3654     0C02  2C13               	goto	l5139
  3655     0C03                     u5460:
  3656     0C03                     l5131:
  3657                           
  3658                           ;view_log.c: 46:                 {;view_log.c: 47:                     press4 = 0;
  3659     0C03  01C9               	clrf	view_logs@press4^(0+128)
  3660     0C04                     l5133:
  3661                           
  3662                           ;view_log.c: 48:                     if(log_no > 0)
  3663     0C04  1283               	bcf	3,5	;RP0=0, select bank0
  3664     0C05  1303               	bcf	3,6	;RP1=0, select bank0
  3665     0C06  085C               	movf	view_logs@log_no,w
  3666     0C07  1903               	btfsc	3,2
  3667     0C08  2C0A               	goto	u5471
  3668     0C09  2C0B               	goto	u5470
  3669     0C0A                     u5471:
  3670     0C0A  2C13               	goto	l497
  3671     0C0B                     u5470:
  3672     0C0B                     l5135:
  3673                           
  3674                           ;view_log.c: 49:                     {;view_log.c: 50:                         log_no--;
  3675     0C0B  3001               	movlw	1
  3676     0C0C  02DC               	subwf	view_logs@log_no,f
  3677     0C0D                     l5137:
  3678                           
  3679                           ;view_log.c: 51:                         clear_clcd();
  3680     0C0D  160A  158A  26AD  120A  158A  	fcall	_clear_clcd
  3681     0C12  2C13               	goto	l5139
  3682     0C13                     l497:	
  3683                           ;view_log.c: 54:             }
  3684                           
  3685     0C13                     l5139:
  3686                           
  3687                           ;view_log.c: 55:             if(log_key == 0x2F )
  3688     0C13  302F               	movlw	47
  3689     0C14  1283               	bcf	3,5	;RP0=0, select bank0
  3690     0C15  1303               	bcf	3,6	;RP1=0, select bank0
  3691     0C16  065B               	xorwf	view_logs@log_key,w
  3692     0C17  1D03               	btfss	3,2
  3693     0C18  2C1A               	goto	u5481
  3694     0C19  2C1B               	goto	u5480
  3695     0C1A                     u5481:
  3696     0C1A  2C23               	goto	l5145
  3697     0C1B                     u5480:
  3698     0C1B                     l5141:
  3699                           
  3700                           ;view_log.c: 56:             {;view_log.c: 57:                 press5++;
  3701     0C1B  3001               	movlw	1
  3702     0C1C  00FF               	movwf	btemp+1
  3703     0C1D  087F               	movf	btemp+1,w
  3704     0C1E  1683               	bsf	3,5	;RP0=1, select bank1
  3705     0C1F  1303               	bcf	3,6	;RP1=0, select bank1
  3706     0C20  07C8               	addwf	view_logs@press5^(0+128),f
  3707     0C21                     l5143:
  3708                           
  3709                           ;view_log.c: 58:                 long_press2 = 0;
  3710     0C21  01EC               	clrf	view_logs@long_press2^(0+128)
  3711                           
  3712                           ;view_log.c: 59:             }
  3713     0C22  2C69               	goto	l5171
  3714     0C23                     l5145:
  3715     0C23  303F               	movlw	63
  3716     0C24  065B               	xorwf	view_logs@log_key,w
  3717     0C25  1D03               	btfss	3,2
  3718     0C26  2C28               	goto	u5491
  3719     0C27  2C29               	goto	u5490
  3720     0C28                     u5491:
  3721     0C28  2C69               	goto	l5171
  3722     0C29                     u5490:
  3723     0C29                     l5147:
  3724     0C29  1683               	bsf	3,5	;RP0=1, select bank1
  3725     0C2A  1303               	bcf	3,6	;RP1=0, select bank1
  3726     0C2B  086C               	movf	view_logs@long_press2^(0+128),w
  3727     0C2C  1D03               	btfss	3,2
  3728     0C2D  2C2F               	goto	u5501
  3729     0C2E  2C30               	goto	u5500
  3730     0C2F                     u5501:
  3731     0C2F  2C69               	goto	l5171
  3732     0C30                     u5500:
  3733     0C30                     l5149:
  3734                           
  3735                           ;view_log.c: 61:             {;view_log.c: 62:                 long_press2 = 1;
  3736     0C30  01EC               	clrf	view_logs@long_press2^(0+128)
  3737     0C31  0AEC               	incf	view_logs@long_press2^(0+128),f
  3738     0C32                     l5151:
  3739                           
  3740                           ;view_log.c: 63:                 if(press5 < 10)
  3741     0C32  300A               	movlw	10
  3742     0C33  0248               	subwf	view_logs@press5^(0+128),w
  3743     0C34  1803               	skipnc
  3744     0C35  2C37               	goto	u5511
  3745     0C36  2C38               	goto	u5510
  3746     0C37                     u5511:
  3747     0C37  2C64               	goto	l5165
  3748     0C38                     u5510:
  3749     0C38                     l5153:
  3750                           
  3751                           ;view_log.c: 64:                 {;view_log.c: 65:                     press5 = 0;
  3752     0C38  01C8               	clrf	view_logs@press5^(0+128)
  3753     0C39                     l5155:
  3754                           
  3755                           ;view_log.c: 66:                     if(log_no <= event_10 )
  3756     0C39  1283               	bcf	3,5	;RP0=0, select bank0
  3757     0C3A  1303               	bcf	3,6	;RP1=0, select bank0
  3758     0C3B  0866               	movf	_event_10+1,w
  3759     0C3C  3A80               	xorlw	128
  3760     0C3D  00A8               	movwf	??_view_logs
  3761     0C3E  3080               	movlw	128
  3762     0C3F  0228               	subwf	??_view_logs,w
  3763     0C40  1D03               	skipz
  3764     0C41  2C44               	goto	u5525
  3765     0C42  085C               	movf	view_logs@log_no,w
  3766     0C43  0265               	subwf	_event_10,w
  3767     0C44                     u5525:
  3768     0C44  1C03               	skipc
  3769     0C45  2C47               	goto	u5521
  3770     0C46  2C48               	goto	u5520
  3771     0C47                     u5521:
  3772     0C47  2C69               	goto	l502
  3773     0C48                     u5520:
  3774     0C48                     l5157:
  3775                           
  3776                           ;view_log.c: 67:                     {;view_log.c: 68:                         log_no++;
  3777     0C48  3001               	movlw	1
  3778     0C49  00FF               	movwf	btemp+1
  3779     0C4A  087F               	movf	btemp+1,w
  3780     0C4B  1283               	bcf	3,5	;RP0=0, select bank0
  3781     0C4C  1303               	bcf	3,6	;RP1=0, select bank0
  3782     0C4D  07DC               	addwf	view_logs@log_no,f
  3783     0C4E                     l5159:
  3784                           
  3785                           ;view_log.c: 69:                         if(log_no == event_10+1)
  3786     0C4E  0865               	movf	_event_10,w
  3787     0C4F  3E01               	addlw	1
  3788     0C50  00A8               	movwf	??_view_logs
  3789     0C51  0866               	movf	_event_10+1,w
  3790     0C52  1803               	skipnc
  3791     0C53  3E01               	addlw	1
  3792     0C54  3E00               	addlw	0
  3793     0C55  00A9               	movwf	??_view_logs+1
  3794     0C56  085C               	movf	view_logs@log_no,w
  3795     0C57  0628               	xorwf	??_view_logs,w
  3796     0C58  0429               	iorwf	??_view_logs+1,w
  3797     0C59  1D03               	skipz
  3798     0C5A  2C5C               	goto	u5531
  3799     0C5B  2C5D               	goto	u5530
  3800     0C5C                     u5531:
  3801     0C5C  2C5E               	goto	l5163
  3802     0C5D                     u5530:
  3803     0C5D                     l5161:
  3804                           
  3805                           ;view_log.c: 70:                         {;view_log.c: 71:                             l
      +                          og_no = 0;
  3806     0C5D  01DC               	clrf	view_logs@log_no
  3807     0C5E                     l5163:
  3808                           
  3809                           ;view_log.c: 74:                         clear_clcd();
  3810     0C5E  160A  158A  26AD  120A  158A  	fcall	_clear_clcd
  3811     0C63  2C69               	goto	l5171
  3812     0C64                     l5165:
  3813                           
  3814                           ;view_log.c: 79:                 {;view_log.c: 80:                     press5 = 0;
  3815     0C64  01C8               	clrf	view_logs@press5^(0+128)
  3816                           
  3817                           ;view_log.c: 81:                     log_no = 0;
  3818     0C65  1283               	bcf	3,5	;RP0=0, select bank0
  3819     0C66  1303               	bcf	3,6	;RP1=0, select bank0
  3820     0C67  01DC               	clrf	view_logs@log_no
  3821     0C68  2BDA               	goto	l5111
  3822     0C69                     l502:	
  3823                           ;view_log.c: 85:             }
  3824                           
  3825     0C69                     l5171:
  3826                           
  3827                           ;view_log.c: 86:             view_log_events(log_no);
  3828     0C69  1283               	bcf	3,5	;RP0=0, select bank0
  3829     0C6A  1303               	bcf	3,6	;RP1=0, select bank0
  3830     0C6B  085C               	movf	view_logs@log_no,w
  3831     0C6C  120A  158A  21AE  120A  158A  	fcall	_view_log_events
  3832     0C71  2BAB               	goto	l491
  3833     0C72                     l493:
  3834     0C72  0008               	return
  3835     0C73                     __end_of_view_logs:
  3836                           
  3837                           	psect	text3
  3838     09AE                     __ptext3:	
  3839 ;; *************** function _view_log_events *****************
  3840 ;; Defined at:
  3841 ;;		line 91 in file "view_log.c"
  3842 ;; Parameters:    Size  Location     Type
  3843 ;;  log_no          1    wreg     unsigned char 
  3844 ;; Auto vars:     Size  Location     Type
  3845 ;;  log_no          1    7[BANK0 ] unsigned char 
  3846 ;;  i               2    5[BANK0 ] unsigned int 
  3847 ;; Return value:  Size  Location     Type
  3848 ;;                  1    wreg      void 
  3849 ;; Registers used:
  3850 ;;		wreg, fsr0l, fsr0h, status,2, status,0, btemp+1, pclath, cstack
  3851 ;; Tracked objects:
  3852 ;;		On entry : 0/0
  3853 ;;		On exit  : 0/0
  3854 ;;		Unchanged: 0/0
  3855 ;; Data sizes:     COMMON   BANK0   BANK1   BANK3   BANK2
  3856 ;;      Params:         0       0       0       0       0
  3857 ;;      Locals:         0       3       0       0       0
  3858 ;;      Temps:          0       2       0       0       0
  3859 ;;      Totals:         0       5       0       0       0
  3860 ;;Total ram usage:        5 bytes
  3861 ;; Hardware stack levels used: 1
  3862 ;; Hardware stack levels required when called: 5
  3863 ;; This function calls:
  3864 ;;		___wmul
  3865 ;;		_clcd_print
  3866 ;;		_clcd_putch
  3867 ;;		_ext_eeprom_read
  3868 ;; This function is called by:
  3869 ;;		_view_logs
  3870 ;; This function uses a non-reentrant model
  3871 ;;
  3872                           
  3873     09AE                     _view_log_events:	
  3874                           ;psect for function _view_log_events
  3875                           
  3876                           
  3877                           ;incstack = 0
  3878                           ; Regs used in _view_log_events: [wreg-fsr0h+status,2+status,0+btemp+1+pclath+cstack]
  3879                           ;view_log_events@log_no stored from wreg
  3880     09AE  1283               	bcf	3,5	;RP0=0, select bank0
  3881     09AF  1303               	bcf	3,6	;RP1=0, select bank0
  3882     09B0  00A7               	movwf	view_log_events@log_no
  3883     09B1                     l4797:
  3884                           
  3885                           ;view_log.c: 91: static void view_log_events(unsigned char log_no);view_log.c: 92: {;vie
      +                          w_log.c: 93:     ind = 0;
  3886     09B1  1683               	bsf	3,5	;RP0=1, select bank1
  3887     09B2  1303               	bcf	3,6	;RP1=0, select bank1
  3888     09B3  01CA               	clrf	_ind^(0+128)
  3889     09B4                     l4799:
  3890                           
  3891                           ;view_log.c: 94:     for(unsigned int i = log_no*15; i<((log_no+1)*15);i++)
  3892     09B4  1283               	bcf	3,5	;RP0=0, select bank0
  3893     09B5  1303               	bcf	3,6	;RP1=0, select bank0
  3894     09B6  0827               	movf	view_log_events@log_no,w
  3895     09B7  00A3               	movwf	??_view_log_events
  3896     09B8  01A4               	clrf	??_view_log_events+1
  3897     09B9  0823               	movf	??_view_log_events,w
  3898     09BA  00F3               	movwf	___wmul@multiplier
  3899     09BB  0824               	movf	??_view_log_events+1,w
  3900     09BC  00F4               	movwf	___wmul@multiplier+1
  3901     09BD  300F               	movlw	15
  3902     09BE  00F5               	movwf	___wmul@multiplicand
  3903     09BF  3000               	movlw	0
  3904     09C0  00F6               	movwf	___wmul@multiplicand+1
  3905     09C1  160A  118A  21CD  120A  158A  	fcall	___wmul
  3906     09C6  0874               	movf	?___wmul+1,w
  3907     09C7  1283               	bcf	3,5	;RP0=0, select bank0
  3908     09C8  1303               	bcf	3,6	;RP1=0, select bank0
  3909     09C9  00A6               	movwf	view_log_events@i+1
  3910     09CA  0873               	movf	?___wmul,w
  3911     09CB  00A5               	movwf	view_log_events@i
  3912     09CC  29EA               	goto	l4807
  3913     09CD                     l4801:
  3914                           
  3915                           ;view_log.c: 95:     {;view_log.c: 96:         view_log[ind++] = ext_eeprom_read(i);
  3916     09CD  1683               	bsf	3,5	;RP0=1, select bank1
  3917     09CE  1303               	bcf	3,6	;RP1=0, select bank1
  3918     09CF  084A               	movf	_ind^(0+128),w
  3919     09D0  3EA1               	addlw	(low (_view_log| (0+256)))& (0+255)
  3920     09D1  0084               	movwf	4
  3921     09D2  1283               	bcf	3,5	;RP0=0, select bank0
  3922     09D3  1303               	bcf	3,6	;RP1=0, select bank0
  3923     09D4  0825               	movf	view_log_events@i,w
  3924     09D5  160A  118A  21F8  120A  158A  	fcall	_ext_eeprom_read
  3925     09DA  1783               	bsf	3,7	;select IRP bank3
  3926     09DB  0080               	movwf	0
  3927     09DC                     l4803:
  3928     09DC  3001               	movlw	1
  3929     09DD  00FF               	movwf	btemp+1
  3930     09DE  087F               	movf	btemp+1,w
  3931     09DF  1683               	bsf	3,5	;RP0=1, select bank1
  3932     09E0  1303               	bcf	3,6	;RP1=0, select bank1
  3933     09E1  07CA               	addwf	_ind^(0+128),f
  3934     09E2                     l4805:
  3935                           
  3936                           ;view_log.c: 97:     }
  3937     09E2  3001               	movlw	1
  3938     09E3  1283               	bcf	3,5	;RP0=0, select bank0
  3939     09E4  1303               	bcf	3,6	;RP1=0, select bank0
  3940     09E5  07A5               	addwf	view_log_events@i,f
  3941     09E6  1803               	skipnc
  3942     09E7  0AA6               	incf	view_log_events@i+1,f
  3943     09E8  3000               	movlw	0
  3944     09E9  07A6               	addwf	view_log_events@i+1,f
  3945     09EA                     l4807:
  3946     09EA  0827               	movf	view_log_events@log_no,w
  3947     09EB  3E01               	addlw	1
  3948     09EC  00F3               	movwf	___wmul@multiplier
  3949     09ED  3000               	movlw	0
  3950     09EE  1803               	skipnc
  3951     09EF  3001               	movlw	1
  3952     09F0  00F4               	movwf	___wmul@multiplier+1
  3953     09F1  300F               	movlw	15
  3954     09F2  00F5               	movwf	___wmul@multiplicand
  3955     09F3  3000               	movlw	0
  3956     09F4  00F6               	movwf	___wmul@multiplicand+1
  3957     09F5  160A  118A  21CD  120A  158A  	fcall	___wmul
  3958     09FA  0874               	movf	?___wmul+1,w
  3959     09FB  1283               	bcf	3,5	;RP0=0, select bank0
  3960     09FC  1303               	bcf	3,6	;RP1=0, select bank0
  3961     09FD  0226               	subwf	view_log_events@i+1,w
  3962     09FE  1D03               	skipz
  3963     09FF  2A02               	goto	u4895
  3964     0A00  0873               	movf	?___wmul,w
  3965     0A01  0225               	subwf	view_log_events@i,w
  3966     0A02                     u4895:
  3967     0A02  1C03               	skipc
  3968     0A03  2A05               	goto	u4891
  3969     0A04  2A06               	goto	u4890
  3970     0A05                     u4891:
  3971     0A05  29CD               	goto	l4801
  3972     0A06                     u4890:
  3973     0A06                     l4809:
  3974                           
  3975                           ;view_log.c: 98:     clcd_putch('#',(0x80 + 0));
  3976     0A06  3080               	movlw	128
  3977     0A07  00F7               	movwf	clcd_putch@addr
  3978     0A08  3023               	movlw	35
  3979     0A09  160A  158A  26FA  120A  158A  	fcall	_clcd_putch
  3980                           
  3981                           ;view_log.c: 99:     clcd_putch(log_no+48,(0xC0 + 0));
  3982     0A0E  30C0               	movlw	192
  3983     0A0F  00F7               	movwf	clcd_putch@addr
  3984     0A10  1283               	bcf	3,5	;RP0=0, select bank0
  3985     0A11  1303               	bcf	3,6	;RP1=0, select bank0
  3986     0A12  0827               	movf	view_log_events@log_no,w
  3987     0A13  3E30               	addlw	48
  3988     0A14  160A  158A  26FA  120A  158A  	fcall	_clcd_putch
  3989     0A19                     l4811:
  3990                           
  3991                           ;view_log.c: 100:     clcd_print("  TIME    E  SP",(0x80 + 1));
  3992     0A19  30AB               	movlw	low (STR_22| (0+32768))
  3993     0A1A  1283               	bcf	3,5	;RP0=0, select bank0
  3994     0A1B  1303               	bcf	3,6	;RP1=0, select bank0
  3995     0A1C  00A0               	movwf	clcd_print@str
  3996     0A1D  3090               	movlw	high (STR_22| (0+32768))
  3997     0A1E  00A1               	movwf	clcd_print@str+1
  3998     0A1F  3081               	movlw	129
  3999     0A20  00A2               	movwf	clcd_print@addr
  4000     0A21  160A  118A  227C  120A  158A  	fcall	_clcd_print
  4001     0A26                     l4813:
  4002                           
  4003                           ;view_log.c: 102:     clcd_print(view_log,(0xC0 + 2));
  4004     0A26  30A1               	movlw	(low (_view_log| (0+256)))& (0+255)
  4005     0A27  1283               	bcf	3,5	;RP0=0, select bank0
  4006     0A28  1303               	bcf	3,6	;RP1=0, select bank0
  4007     0A29  00A0               	movwf	clcd_print@str
  4008     0A2A  3001               	movlw	1
  4009     0A2B  00A1               	movwf	clcd_print@str+1
  4010     0A2C  30C2               	movlw	194
  4011     0A2D  00A2               	movwf	clcd_print@addr
  4012     0A2E  160A  118A  227C  120A  158A  	fcall	_clcd_print
  4013     0A33                     l514:
  4014     0A33  0008               	return
  4015     0A34                     __end_of_view_log_events:
  4016                           
  4017                           	psect	text4
  4018     0065                     __ptext4:	
  4019 ;; *************** function _set_time *****************
  4020 ;; Defined at:
  4021 ;;		line 15 in file "set_time.c"
  4022 ;; Parameters:    Size  Location     Type
  4023 ;;		None
  4024 ;; Auto vars:     Size  Location     Type
  4025 ;;  key_press1      4   21[BANK0 ] unsigned long 
  4026 ;;  key_press2      4   17[BANK0 ] unsigned long 
  4027 ;;  wait            4   13[BANK0 ] unsigned long 
  4028 ;;  blink           3   10[BANK0 ] unsigned char [3]
  4029 ;;  time_field      3    7[BANK0 ] unsigned char [3]
  4030 ;;  time_digit      2   30[BANK0 ] unsigned int 
  4031 ;;  time_key        1   29[BANK0 ] unsigned char 
  4032 ;;  blink_pos       1   28[BANK0 ] unsigned char 
  4033 ;;  flag            1   27[BANK0 ] unsigned char 
  4034 ;;  long_press2     1   26[BANK0 ] unsigned char 
  4035 ;;  long_press1     1   25[BANK0 ] unsigned char 
  4036 ;; Return value:  Size  Location     Type
  4037 ;;                  1    wreg      void 
  4038 ;; Registers used:
  4039 ;;		wreg, fsr0l, fsr0h, status,2, status,0, btemp+1, pclath, cstack
  4040 ;; Tracked objects:
  4041 ;;		On entry : 0/0
  4042 ;;		On exit  : 0/0
  4043 ;;		Unchanged: 0/0
  4044 ;; Data sizes:     COMMON   BANK0   BANK1   BANK3   BANK2
  4045 ;;      Params:         0       0       0       0       0
  4046 ;;      Locals:         0      25       0       0       0
  4047 ;;      Temps:          0       4       0       0       0
  4048 ;;      Totals:         0      29       0       0       0
  4049 ;;Total ram usage:       29 bytes
  4050 ;; Hardware stack levels used: 1
  4051 ;; Hardware stack levels required when called: 5
  4052 ;; This function calls:
  4053 ;;		___awmod
  4054 ;;		___bmul
  4055 ;;		___lwdiv
  4056 ;;		___lwmod
  4057 ;;		___wmul
  4058 ;;		_clcd_print
  4059 ;;		_clear_clcd
  4060 ;;		_read_digital_keypad
  4061 ;;		_write_time_rtc
  4062 ;; This function is called by:
  4063 ;;		_menu
  4064 ;; This function uses a non-reentrant model
  4065 ;;
  4066                           
  4067     0065                     _set_time:	
  4068                           ;psect for function _set_time
  4069                           
  4070     0065                     l5225:	
  4071                           ;incstack = 0
  4072                           ; Regs used in _set_time: [wreg-fsr0h+status,2+status,0+btemp+1+pclath+cstack]
  4073                           
  4074                           
  4075                           ;set_time.c: 17:     clear_clcd();
  4076     0065  160A  158A  26AD  120A  118A  	fcall	_clear_clcd
  4077     006A                     l5227:
  4078                           
  4079                           ;set_time.c: 18:     set_time_flag = 0;
  4080     006A  1283               	bcf	3,5	;RP0=0, select bank0
  4081     006B  1303               	bcf	3,6	;RP1=0, select bank0
  4082     006C  01DF               	clrf	_set_time_flag
  4083     006D                     l5229:
  4084                           
  4085                           ;set_time.c: 19:     clcd_print("Time <HH:MM:SS> ",(0x80 + 0));
  4086     006D  3046               	movlw	low (STR_28| (0+32768))
  4087     006E  00A0               	movwf	clcd_print@str
  4088     006F  3090               	movlw	high (STR_28| (0+32768))
  4089     0070  00A1               	movwf	clcd_print@str+1
  4090     0071  3080               	movlw	128
  4091     0072  00A2               	movwf	clcd_print@addr
  4092     0073  160A  118A  227C  120A  118A  	fcall	_clcd_print
  4093     0078                     l5231:
  4094                           
  4095                           ;set_time.c: 20:     clcd_print(time,(0xC0 + 0));
  4096     0078  30CB               	movlw	(low (_time| 0))& (0+255)
  4097     0079  1283               	bcf	3,5	;RP0=0, select bank0
  4098     007A  1303               	bcf	3,6	;RP1=0, select bank0
  4099     007B  00A0               	movwf	clcd_print@str
  4100     007C  3000               	movlw	0
  4101     007D  00A1               	movwf	clcd_print@str+1
  4102     007E  30C0               	movlw	192
  4103     007F  00A2               	movwf	clcd_print@addr
  4104     0080  160A  118A  227C  120A  118A  	fcall	_clcd_print
  4105     0085                     l5233:
  4106                           
  4107                           ;set_time.c: 21:     unsigned char time_key ;;set_time.c: 22:     unsigned char long_pre
      +                          ss1=1,long_press2 =1;
  4108     0085  1283               	bcf	3,5	;RP0=0, select bank0
  4109     0086  1303               	bcf	3,6	;RP1=0, select bank0
  4110     0087  01B9               	clrf	set_time@long_press1
  4111     0088  0AB9               	incf	set_time@long_press1,f
  4112     0089                     l5235:
  4113     0089  01BA               	clrf	set_time@long_press2
  4114     008A  0ABA               	incf	set_time@long_press2,f
  4115     008B                     l5237:
  4116                           
  4117                           ;set_time.c: 23:     unsigned long int key_press1=0,key_press2=0;
  4118     008B  3000               	movlw	0
  4119     008C  00B8               	movwf	set_time@key_press1+3
  4120     008D  3000               	movlw	0
  4121     008E  00B7               	movwf	set_time@key_press1+2
  4122     008F  3000               	movlw	0
  4123     0090  00B6               	movwf	set_time@key_press1+1
  4124     0091  3000               	movlw	0
  4125     0092  00B5               	movwf	set_time@key_press1
  4126     0093                     l5239:
  4127     0093  3000               	movlw	0
  4128     0094  00B4               	movwf	set_time@key_press2+3
  4129     0095  3000               	movlw	0
  4130     0096  00B3               	movwf	set_time@key_press2+2
  4131     0097  3000               	movlw	0
  4132     0098  00B2               	movwf	set_time@key_press2+1
  4133     0099  3000               	movlw	0
  4134     009A  00B1               	movwf	set_time@key_press2
  4135     009B                     l5241:
  4136                           
  4137                           ;set_time.c: 24:     unsigned char blink[3] = "  ",blink_pos = 2;
  4138     009B  1683               	bsf	3,5	;RP0=1, select bank1
  4139     009C  1303               	bcf	3,6	;RP1=0, select bank1
  4140     009D  0865               	movf	set_time@F64^(0+128),w
  4141     009E  1283               	bcf	3,5	;RP0=0, select bank0
  4142     009F  1303               	bcf	3,6	;RP1=0, select bank0
  4143     00A0  00AA               	movwf	set_time@blink
  4144     00A1  1683               	bsf	3,5	;RP0=1, select bank1
  4145     00A2  1303               	bcf	3,6	;RP1=0, select bank1
  4146     00A3  0866               	movf	(set_time@F64+1)^(0+128),w
  4147     00A4  1283               	bcf	3,5	;RP0=0, select bank0
  4148     00A5  1303               	bcf	3,6	;RP1=0, select bank0
  4149     00A6  00AB               	movwf	set_time@blink+1
  4150     00A7  1683               	bsf	3,5	;RP0=1, select bank1
  4151     00A8  1303               	bcf	3,6	;RP1=0, select bank1
  4152     00A9  0867               	movf	(set_time@F64+2)^(0+128),w
  4153     00AA  1283               	bcf	3,5	;RP0=0, select bank0
  4154     00AB  1303               	bcf	3,6	;RP1=0, select bank0
  4155     00AC  00AC               	movwf	set_time@blink+2
  4156     00AD                     l5243:
  4157     00AD  3002               	movlw	2
  4158     00AE  00BC               	movwf	set_time@blink_pos
  4159     00AF                     l5245:
  4160                           
  4161                           ;set_time.c: 25:     unsigned char time_field[3] = {'\0'};
  4162     00AF  3000               	movlw	0
  4163     00B0  00A7               	movwf	set_time@time_field
  4164     00B1  3000               	movlw	0
  4165     00B2  00A8               	movwf	set_time@time_field+1
  4166     00B3  3000               	movlw	0
  4167     00B4  00A9               	movwf	set_time@time_field+2
  4168     00B5                     l5247:
  4169                           
  4170                           ;set_time.c: 26:     unsigned char flag = 1;
  4171     00B5  01BB               	clrf	set_time@flag
  4172     00B6  0ABB               	incf	set_time@flag,f
  4173     00B7                     l5249:
  4174                           
  4175                           ;set_time.c: 27:     unsigned long int wait = 0;
  4176     00B7  3000               	movlw	0
  4177     00B8  00B0               	movwf	set_time@wait+3
  4178     00B9  3000               	movlw	0
  4179     00BA  00AF               	movwf	set_time@wait+2
  4180     00BB  3000               	movlw	0
  4181     00BC  00AE               	movwf	set_time@wait+1
  4182     00BD  3000               	movlw	0
  4183     00BE  00AD               	movwf	set_time@wait
  4184     00BF                     l5251:
  4185     00BF                     l691:	
  4186                           ;set_time.c: 31:     while(1)
  4187                           
  4188                           
  4189                           ;set_time.c: 32:     {;set_time.c: 33:         time_key = read_digital_keypad(0);
  4190     00BF  3000               	movlw	0
  4191     00C0  160A  118A  2178  120A  118A  	fcall	_read_digital_keypad
  4192     00C5  1283               	bcf	3,5	;RP0=0, select bank0
  4193     00C6  1303               	bcf	3,6	;RP1=0, select bank0
  4194     00C7  00BD               	movwf	set_time@time_key
  4195     00C8                     l5253:
  4196                           
  4197                           ;set_time.c: 34:         if(wait++ == 20000)
  4198     00C8  3001               	movlw	1
  4199     00C9  07AD               	addwf	set_time@wait,f
  4200     00CA  3000               	movlw	0
  4201     00CB  1803               	skipnc
  4202     00CC  3001               	movlw	1
  4203     00CD  07AE               	addwf	set_time@wait+1,f
  4204     00CE  3000               	movlw	0
  4205     00CF  1803               	skipnc
  4206     00D0  3001               	movlw	1
  4207     00D1  07AF               	addwf	set_time@wait+2,f
  4208     00D2  3000               	movlw	0
  4209     00D3  1803               	skipnc
  4210     00D4  3001               	movlw	1
  4211     00D5  07B0               	addwf	set_time@wait+3,f
  4212     00D6  3021               	movlw	33
  4213     00D7  062D               	xorwf	set_time@wait,w
  4214     00D8  304E               	movlw	78
  4215     00D9  1903               	skipnz
  4216     00DA  062E               	xorwf	set_time@wait+1,w
  4217     00DB  042F               	iorwf	set_time@wait+2,w
  4218     00DC  0430               	iorwf	set_time@wait+3,w
  4219     00DD  1D03               	btfss	3,2
  4220     00DE  28E0               	goto	u5571
  4221     00DF  28E1               	goto	u5570
  4222     00E0                     u5571:
  4223     00E0  2918               	goto	l5267
  4224     00E1                     u5570:
  4225     00E1                     l5255:
  4226                           
  4227                           ;set_time.c: 35:         {;set_time.c: 36:             wait = 0;
  4228     00E1  3000               	movlw	0
  4229     00E2  1283               	bcf	3,5	;RP0=0, select bank0
  4230     00E3  1303               	bcf	3,6	;RP1=0, select bank0
  4231     00E4  00B0               	movwf	set_time@wait+3
  4232     00E5  3000               	movlw	0
  4233     00E6  00AF               	movwf	set_time@wait+2
  4234     00E7  3000               	movlw	0
  4235     00E8  00AE               	movwf	set_time@wait+1
  4236     00E9  3000               	movlw	0
  4237     00EA  00AD               	movwf	set_time@wait
  4238     00EB                     l5257:
  4239                           
  4240                           ;set_time.c: 37:             if(flag)
  4241     00EB  083B               	movf	set_time@flag,w
  4242     00EC  1903               	btfsc	3,2
  4243     00ED  28EF               	goto	u5581
  4244     00EE  28F0               	goto	u5580
  4245     00EF                     u5581:
  4246     00EF  28FF               	goto	l5263
  4247     00F0                     u5580:
  4248     00F0                     l5259:
  4249                           
  4250                           ;set_time.c: 38:             {;set_time.c: 40:                 clcd_print(time,(0xC0 + 0
      +                          ));
  4251     00F0  30CB               	movlw	(low (_time| 0))& (0+255)
  4252     00F1  00A0               	movwf	clcd_print@str
  4253     00F2  3000               	movlw	0
  4254     00F3  00A1               	movwf	clcd_print@str+1
  4255     00F4  30C0               	movlw	192
  4256     00F5  00A2               	movwf	clcd_print@addr
  4257     00F6  160A  118A  227C  120A  118A  	fcall	_clcd_print
  4258     00FB                     l5261:
  4259                           
  4260                           ;set_time.c: 42:                 flag = 0;
  4261     00FB  1283               	bcf	3,5	;RP0=0, select bank0
  4262     00FC  1303               	bcf	3,6	;RP1=0, select bank0
  4263     00FD  01BB               	clrf	set_time@flag
  4264                           
  4265                           ;set_time.c: 43:             }
  4266     00FE  2918               	goto	l5267
  4267     00FF                     l5263:
  4268                           
  4269                           ;set_time.c: 45:             {;set_time.c: 47:                 clcd_print(blink,(0xC0 + 
      +                          3*blink_pos));
  4270     00FF  302A               	movlw	(low (set_time@blink| 0))& (0+255)
  4271     0100  00A0               	movwf	clcd_print@str
  4272     0101  3000               	movlw	0
  4273     0102  00A1               	movwf	clcd_print@str+1
  4274     0103  3003               	movlw	3
  4275     0104  00F3               	movwf	___bmul@multiplicand
  4276     0105  083C               	movf	set_time@blink_pos,w
  4277     0106  160A  158A  26E5  120A  118A  	fcall	___bmul
  4278     010B  3EC0               	addlw	192
  4279     010C  1283               	bcf	3,5	;RP0=0, select bank0
  4280     010D  1303               	bcf	3,6	;RP1=0, select bank0
  4281     010E  00A2               	movwf	clcd_print@addr
  4282     010F  160A  118A  227C  120A  118A  	fcall	_clcd_print
  4283     0114                     l5265:
  4284                           
  4285                           ;set_time.c: 49:                 flag = 1;
  4286     0114  1283               	bcf	3,5	;RP0=0, select bank0
  4287     0115  1303               	bcf	3,6	;RP1=0, select bank0
  4288     0116  01BB               	clrf	set_time@flag
  4289     0117  0ABB               	incf	set_time@flag,f
  4290     0118                     l5267:
  4291                           
  4292                           ;set_time.c: 52:         if(time_key == 0x37)
  4293     0118  3037               	movlw	55
  4294     0119  1283               	bcf	3,5	;RP0=0, select bank0
  4295     011A  1303               	bcf	3,6	;RP1=0, select bank0
  4296     011B  063D               	xorwf	set_time@time_key,w
  4297     011C  1D03               	btfss	3,2
  4298     011D  291F               	goto	u5591
  4299     011E  2920               	goto	u5590
  4300     011F                     u5591:
  4301     011F  2930               	goto	l5273
  4302     0120                     u5590:
  4303     0120                     l5269:
  4304                           
  4305                           ;set_time.c: 53:         {;set_time.c: 54:             key_press1++;
  4306     0120  3001               	movlw	1
  4307     0121  07B5               	addwf	set_time@key_press1,f
  4308     0122  3000               	movlw	0
  4309     0123  1803               	skipnc
  4310     0124  3001               	movlw	1
  4311     0125  07B6               	addwf	set_time@key_press1+1,f
  4312     0126  3000               	movlw	0
  4313     0127  1803               	skipnc
  4314     0128  3001               	movlw	1
  4315     0129  07B7               	addwf	set_time@key_press1+2,f
  4316     012A  3000               	movlw	0
  4317     012B  1803               	skipnc
  4318     012C  3001               	movlw	1
  4319     012D  07B8               	addwf	set_time@key_press1+3,f
  4320     012E                     l5271:
  4321                           
  4322                           ;set_time.c: 55:             long_press1 = 0;
  4323     012E  01B9               	clrf	set_time@long_press1
  4324                           
  4325                           ;set_time.c: 57:         }
  4326     012F  2A9C               	goto	l5339
  4327     0130                     l5273:
  4328     0130  303F               	movlw	63
  4329     0131  063D               	xorwf	set_time@time_key,w
  4330     0132  1D03               	btfss	3,2
  4331     0133  2935               	goto	u5601
  4332     0134  2936               	goto	u5600
  4333     0135                     u5601:
  4334     0135  2A9C               	goto	l5339
  4335     0136                     u5600:
  4336     0136                     l5275:
  4337     0136  0839               	movf	set_time@long_press1,w
  4338     0137  1D03               	btfss	3,2
  4339     0138  293A               	goto	u5611
  4340     0139  293B               	goto	u5610
  4341     013A                     u5611:
  4342     013A  2A9C               	goto	l5339
  4343     013B                     u5610:
  4344     013B                     l5277:
  4345                           
  4346                           ;set_time.c: 59:         {;set_time.c: 60:             long_press1 = 1;
  4347     013B  01B9               	clrf	set_time@long_press1
  4348     013C  0AB9               	incf	set_time@long_press1,f
  4349     013D                     l5279:
  4350                           
  4351                           ;set_time.c: 64:             if(key_press1 < 15000)
  4352     013D  0838               	movf	set_time@key_press1+3,w
  4353     013E  1D03               	btfss	3,2
  4354     013F  294E               	goto	u5621
  4355     0140  0837               	movf	set_time@key_press1+2,w
  4356     0141  1D03               	btfss	3,2
  4357     0142  294E               	goto	u5621
  4358     0143  303A               	movlw	58
  4359     0144  0236               	subwf	set_time@key_press1+1,w
  4360     0145  1D03               	skipz
  4361     0146  294B               	goto	u5623
  4362     0147  3098               	movlw	152
  4363     0148  0235               	subwf	set_time@key_press1,w
  4364     0149  1D03               	skipz
  4365     014A  294B               	goto	u5623
  4366     014B                     u5623:
  4367     014B  1803               	btfsc	3,0
  4368     014C  294E               	goto	u5621
  4369     014D  294F               	goto	u5620
  4370     014E                     u5621:
  4371     014E  2A87               	goto	l5323
  4372     014F                     u5620:
  4373     014F                     l5281:
  4374                           
  4375                           ;set_time.c: 65:             {;set_time.c: 66:                 key_press1 = 0;
  4376     014F  3000               	movlw	0
  4377     0150  1283               	bcf	3,5	;RP0=0, select bank0
  4378     0151  1303               	bcf	3,6	;RP1=0, select bank0
  4379     0152  00B8               	movwf	set_time@key_press1+3
  4380     0153  3000               	movlw	0
  4381     0154  00B7               	movwf	set_time@key_press1+2
  4382     0155  3000               	movlw	0
  4383     0156  00B6               	movwf	set_time@key_press1+1
  4384     0157  3000               	movlw	0
  4385     0158  00B5               	movwf	set_time@key_press1
  4386                           
  4387                           ;set_time.c: 67:                 switch(blink_pos)
  4388     0159  2A74               	goto	l5321
  4389     015A                     l5283:
  4390                           
  4391                           ;set_time.c: 70:                             time_digit = ((time[0]-48)*10)+(time[1]-48)
      +                          ;
  4392     015A  1683               	bsf	3,5	;RP0=1, select bank1
  4393     015B  1303               	bcf	3,6	;RP1=0, select bank1
  4394     015C  084B               	movf	_time^(0+128),w
  4395     015D  1283               	bcf	3,5	;RP0=0, select bank0
  4396     015E  1303               	bcf	3,6	;RP1=0, select bank0
  4397     015F  00A3               	movwf	??_set_time
  4398     0160  01A4               	clrf	??_set_time+1
  4399     0161  0823               	movf	??_set_time,w
  4400     0162  00F3               	movwf	___wmul@multiplier
  4401     0163  0824               	movf	??_set_time+1,w
  4402     0164  00F4               	movwf	___wmul@multiplier+1
  4403     0165  300A               	movlw	10
  4404     0166  00F5               	movwf	___wmul@multiplicand
  4405     0167  3000               	movlw	0
  4406     0168  00F6               	movwf	___wmul@multiplicand+1
  4407     0169  160A  118A  21CD  120A  118A  	fcall	___wmul
  4408     016E  1683               	bsf	3,5	;RP0=1, select bank1
  4409     016F  1303               	bcf	3,6	;RP1=0, select bank1
  4410     0170  084C               	movf	(_time^(0+128)+1),w
  4411     0171  0773               	addwf	?___wmul,w
  4412     0172  1283               	bcf	3,5	;RP0=0, select bank0
  4413     0173  1303               	bcf	3,6	;RP1=0, select bank0
  4414     0174  00A5               	movwf	??_set_time+2
  4415     0175  3000               	movlw	0
  4416     0176  1803               	skipnc
  4417     0177  3001               	movlw	1
  4418     0178  0774               	addwf	?___wmul+1,w
  4419     0179  00A6               	movwf	??_set_time+3
  4420     017A  0825               	movf	??_set_time+2,w
  4421     017B  3EF0               	addlw	240
  4422     017C  00BE               	movwf	set_time@time_digit
  4423     017D  0826               	movf	??_set_time+3,w
  4424     017E  1803               	skipnc
  4425     017F  3E01               	addlw	1
  4426     0180  3EFD               	addlw	253
  4427     0181  00BF               	movwf	set_time@time_digit+1
  4428     0182                     l5285:
  4429                           
  4430                           ;set_time.c: 71:                             time_digit++;
  4431     0182  3001               	movlw	1
  4432     0183  07BE               	addwf	set_time@time_digit,f
  4433     0184  1803               	skipnc
  4434     0185  0ABF               	incf	set_time@time_digit+1,f
  4435     0186  3000               	movlw	0
  4436     0187  07BF               	addwf	set_time@time_digit+1,f
  4437     0188                     l5287:
  4438                           
  4439                           ;set_time.c: 72:                             if(time_digit == 24)
  4440     0188  3018               	movlw	24
  4441     0189  063E               	xorwf	set_time@time_digit,w
  4442     018A  043F               	iorwf	set_time@time_digit+1,w
  4443     018B  1D03               	btfss	3,2
  4444     018C  298E               	goto	u5631
  4445     018D  298F               	goto	u5630
  4446     018E                     u5631:
  4447     018E  2991               	goto	l5291
  4448     018F                     u5630:
  4449     018F                     l5289:
  4450                           
  4451                           ;set_time.c: 73:                             {;set_time.c: 74:                          
      +                                  time_digit = 0;
  4452     018F  01BE               	clrf	set_time@time_digit
  4453     0190  01BF               	clrf	set_time@time_digit+1
  4454     0191                     l5291:
  4455                           
  4456                           ;set_time.c: 76:                             time[0] = (time_digit/10)+48;
  4457     0191  300A               	movlw	10
  4458     0192  00F3               	movwf	___lwdiv@divisor
  4459     0193  3000               	movlw	0
  4460     0194  00F4               	movwf	___lwdiv@divisor+1
  4461     0195  083F               	movf	set_time@time_digit+1,w
  4462     0196  00F6               	movwf	___lwdiv@dividend+1
  4463     0197  083E               	movf	set_time@time_digit,w
  4464     0198  00F5               	movwf	___lwdiv@dividend
  4465     0199  160A  118A  2418  120A  118A  	fcall	___lwdiv
  4466     019E  0873               	movf	?___lwdiv,w
  4467     019F  3E30               	addlw	48
  4468     01A0  1683               	bsf	3,5	;RP0=1, select bank1
  4469     01A1  1303               	bcf	3,6	;RP1=0, select bank1
  4470     01A2  00CB               	movwf	_time^(0+128)
  4471     01A3                     l5293:
  4472                           
  4473                           ;set_time.c: 77:                             time[1] = (time_digit%10)+48;
  4474     01A3  300A               	movlw	10
  4475     01A4  00F3               	movwf	___lwmod@divisor
  4476     01A5  3000               	movlw	0
  4477     01A6  00F4               	movwf	___lwmod@divisor+1
  4478     01A7  1283               	bcf	3,5	;RP0=0, select bank0
  4479     01A8  1303               	bcf	3,6	;RP1=0, select bank0
  4480     01A9  083F               	movf	set_time@time_digit+1,w
  4481     01AA  00F6               	movwf	___lwmod@dividend+1
  4482     01AB  083E               	movf	set_time@time_digit,w
  4483     01AC  00F5               	movwf	___lwmod@dividend
  4484     01AD  160A  118A  22E3  120A  118A  	fcall	___lwmod
  4485     01B2  0873               	movf	?___lwmod,w
  4486     01B3  3E30               	addlw	48
  4487     01B4  1683               	bsf	3,5	;RP0=1, select bank1
  4488     01B5  1303               	bcf	3,6	;RP1=0, select bank1
  4489     01B6  00CC               	movwf	(_time^(0+128)+1)
  4490                           
  4491                           ;set_time.c: 78:                             break;
  4492     01B7  2A9C               	goto	l5339
  4493     01B8                     l5295:
  4494                           
  4495                           ;set_time.c: 80:                             time_digit = ((time[3]-48)*10)+(time[4]-48)
      +                          ;
  4496     01B8  1683               	bsf	3,5	;RP0=1, select bank1
  4497     01B9  1303               	bcf	3,6	;RP1=0, select bank1
  4498     01BA  084E               	movf	(_time^(0+128)+3),w
  4499     01BB  1283               	bcf	3,5	;RP0=0, select bank0
  4500     01BC  1303               	bcf	3,6	;RP1=0, select bank0
  4501     01BD  00A3               	movwf	??_set_time
  4502     01BE  01A4               	clrf	??_set_time+1
  4503     01BF  0823               	movf	??_set_time,w
  4504     01C0  00F3               	movwf	___wmul@multiplier
  4505     01C1  0824               	movf	??_set_time+1,w
  4506     01C2  00F4               	movwf	___wmul@multiplier+1
  4507     01C3  300A               	movlw	10
  4508     01C4  00F5               	movwf	___wmul@multiplicand
  4509     01C5  3000               	movlw	0
  4510     01C6  00F6               	movwf	___wmul@multiplicand+1
  4511     01C7  160A  118A  21CD  120A  118A  	fcall	___wmul
  4512     01CC  1683               	bsf	3,5	;RP0=1, select bank1
  4513     01CD  1303               	bcf	3,6	;RP1=0, select bank1
  4514     01CE  084F               	movf	(_time^(0+128)+4),w
  4515     01CF  0773               	addwf	?___wmul,w
  4516     01D0  1283               	bcf	3,5	;RP0=0, select bank0
  4517     01D1  1303               	bcf	3,6	;RP1=0, select bank0
  4518     01D2  00A5               	movwf	??_set_time+2
  4519     01D3  3000               	movlw	0
  4520     01D4  1803               	skipnc
  4521     01D5  3001               	movlw	1
  4522     01D6  0774               	addwf	?___wmul+1,w
  4523     01D7  00A6               	movwf	??_set_time+3
  4524     01D8  0825               	movf	??_set_time+2,w
  4525     01D9  3EF0               	addlw	240
  4526     01DA  00BE               	movwf	set_time@time_digit
  4527     01DB  0826               	movf	??_set_time+3,w
  4528     01DC  1803               	skipnc
  4529     01DD  3E01               	addlw	1
  4530     01DE  3EFD               	addlw	253
  4531     01DF  00BF               	movwf	set_time@time_digit+1
  4532     01E0                     l5297:
  4533                           
  4534                           ;set_time.c: 81:                             time_digit++;
  4535     01E0  3001               	movlw	1
  4536     01E1  07BE               	addwf	set_time@time_digit,f
  4537     01E2  1803               	skipnc
  4538     01E3  0ABF               	incf	set_time@time_digit+1,f
  4539     01E4  3000               	movlw	0
  4540     01E5  07BF               	addwf	set_time@time_digit+1,f
  4541     01E6                     l5299:
  4542                           
  4543                           ;set_time.c: 82:                             if(time_digit == 60)
  4544     01E6  303C               	movlw	60
  4545     01E7  063E               	xorwf	set_time@time_digit,w
  4546     01E8  043F               	iorwf	set_time@time_digit+1,w
  4547     01E9  1D03               	btfss	3,2
  4548     01EA  29EC               	goto	u5641
  4549     01EB  29ED               	goto	u5640
  4550     01EC                     u5641:
  4551     01EC  29EF               	goto	l5303
  4552     01ED                     u5640:
  4553     01ED                     l5301:
  4554                           
  4555                           ;set_time.c: 83:                             {;set_time.c: 84:                          
      +                                  time_digit = 0;
  4556     01ED  01BE               	clrf	set_time@time_digit
  4557     01EE  01BF               	clrf	set_time@time_digit+1
  4558     01EF                     l5303:
  4559                           
  4560                           ;set_time.c: 86:                             time[3] = (time_digit/10)+48;
  4561     01EF  300A               	movlw	10
  4562     01F0  00F3               	movwf	___lwdiv@divisor
  4563     01F1  3000               	movlw	0
  4564     01F2  00F4               	movwf	___lwdiv@divisor+1
  4565     01F3  083F               	movf	set_time@time_digit+1,w
  4566     01F4  00F6               	movwf	___lwdiv@dividend+1
  4567     01F5  083E               	movf	set_time@time_digit,w
  4568     01F6  00F5               	movwf	___lwdiv@dividend
  4569     01F7  160A  118A  2418  120A  118A  	fcall	___lwdiv
  4570     01FC  0873               	movf	?___lwdiv,w
  4571     01FD  3E30               	addlw	48
  4572     01FE  1683               	bsf	3,5	;RP0=1, select bank1
  4573     01FF  1303               	bcf	3,6	;RP1=0, select bank1
  4574     0200  00CE               	movwf	(_time^(0+128)+3)
  4575     0201                     l5305:
  4576                           
  4577                           ;set_time.c: 87:                             time[4] = (time_digit%10)+48;
  4578     0201  300A               	movlw	10
  4579     0202  00F3               	movwf	___lwmod@divisor
  4580     0203  3000               	movlw	0
  4581     0204  00F4               	movwf	___lwmod@divisor+1
  4582     0205  1283               	bcf	3,5	;RP0=0, select bank0
  4583     0206  1303               	bcf	3,6	;RP1=0, select bank0
  4584     0207  083F               	movf	set_time@time_digit+1,w
  4585     0208  00F6               	movwf	___lwmod@dividend+1
  4586     0209  083E               	movf	set_time@time_digit,w
  4587     020A  00F5               	movwf	___lwmod@dividend
  4588     020B  160A  118A  22E3  120A  118A  	fcall	___lwmod
  4589     0210  0873               	movf	?___lwmod,w
  4590     0211  3E30               	addlw	48
  4591     0212  1683               	bsf	3,5	;RP0=1, select bank1
  4592     0213  1303               	bcf	3,6	;RP1=0, select bank1
  4593     0214  00CF               	movwf	(_time^(0+128)+4)
  4594                           
  4595                           ;set_time.c: 88:                             break;
  4596     0215  2A9C               	goto	l5339
  4597     0216                     l5307:
  4598                           
  4599                           ;set_time.c: 90:                             time_digit = ((time[6]-48)*10)+(time[7]-48)
      +                          ;
  4600     0216  1683               	bsf	3,5	;RP0=1, select bank1
  4601     0217  1303               	bcf	3,6	;RP1=0, select bank1
  4602     0218  0851               	movf	(_time^(0+128)+6),w
  4603     0219  1283               	bcf	3,5	;RP0=0, select bank0
  4604     021A  1303               	bcf	3,6	;RP1=0, select bank0
  4605     021B  00A3               	movwf	??_set_time
  4606     021C  01A4               	clrf	??_set_time+1
  4607     021D  0823               	movf	??_set_time,w
  4608     021E  00F3               	movwf	___wmul@multiplier
  4609     021F  0824               	movf	??_set_time+1,w
  4610     0220  00F4               	movwf	___wmul@multiplier+1
  4611     0221  300A               	movlw	10
  4612     0222  00F5               	movwf	___wmul@multiplicand
  4613     0223  3000               	movlw	0
  4614     0224  00F6               	movwf	___wmul@multiplicand+1
  4615     0225  160A  118A  21CD  120A  118A  	fcall	___wmul
  4616     022A  1683               	bsf	3,5	;RP0=1, select bank1
  4617     022B  1303               	bcf	3,6	;RP1=0, select bank1
  4618     022C  0852               	movf	(_time^(0+128)+7),w
  4619     022D  0773               	addwf	?___wmul,w
  4620     022E  1283               	bcf	3,5	;RP0=0, select bank0
  4621     022F  1303               	bcf	3,6	;RP1=0, select bank0
  4622     0230  00A5               	movwf	??_set_time+2
  4623     0231  3000               	movlw	0
  4624     0232  1803               	skipnc
  4625     0233  3001               	movlw	1
  4626     0234  0774               	addwf	?___wmul+1,w
  4627     0235  00A6               	movwf	??_set_time+3
  4628     0236  0825               	movf	??_set_time+2,w
  4629     0237  3EF0               	addlw	240
  4630     0238  00BE               	movwf	set_time@time_digit
  4631     0239  0826               	movf	??_set_time+3,w
  4632     023A  1803               	skipnc
  4633     023B  3E01               	addlw	1
  4634     023C  3EFD               	addlw	253
  4635     023D  00BF               	movwf	set_time@time_digit+1
  4636     023E                     l5309:
  4637                           
  4638                           ;set_time.c: 91:                             time_digit++;
  4639     023E  3001               	movlw	1
  4640     023F  07BE               	addwf	set_time@time_digit,f
  4641     0240  1803               	skipnc
  4642     0241  0ABF               	incf	set_time@time_digit+1,f
  4643     0242  3000               	movlw	0
  4644     0243  07BF               	addwf	set_time@time_digit+1,f
  4645     0244                     l5311:
  4646                           
  4647                           ;set_time.c: 92:                             if(time_digit == 60)
  4648     0244  303C               	movlw	60
  4649     0245  063E               	xorwf	set_time@time_digit,w
  4650     0246  043F               	iorwf	set_time@time_digit+1,w
  4651     0247  1D03               	btfss	3,2
  4652     0248  2A4A               	goto	u5651
  4653     0249  2A4B               	goto	u5650
  4654     024A                     u5651:
  4655     024A  2A4D               	goto	l5315
  4656     024B                     u5650:
  4657     024B                     l5313:
  4658                           
  4659                           ;set_time.c: 93:                             {;set_time.c: 94:                          
      +                                  time_digit = 0;
  4660     024B  01BE               	clrf	set_time@time_digit
  4661     024C  01BF               	clrf	set_time@time_digit+1
  4662     024D                     l5315:
  4663                           
  4664                           ;set_time.c: 96:                             time[6] = (time_digit/10)+48;
  4665     024D  300A               	movlw	10
  4666     024E  00F3               	movwf	___lwdiv@divisor
  4667     024F  3000               	movlw	0
  4668     0250  00F4               	movwf	___lwdiv@divisor+1
  4669     0251  083F               	movf	set_time@time_digit+1,w
  4670     0252  00F6               	movwf	___lwdiv@dividend+1
  4671     0253  083E               	movf	set_time@time_digit,w
  4672     0254  00F5               	movwf	___lwdiv@dividend
  4673     0255  160A  118A  2418  120A  118A  	fcall	___lwdiv
  4674     025A  0873               	movf	?___lwdiv,w
  4675     025B  3E30               	addlw	48
  4676     025C  1683               	bsf	3,5	;RP0=1, select bank1
  4677     025D  1303               	bcf	3,6	;RP1=0, select bank1
  4678     025E  00D1               	movwf	(_time^(0+128)+6)
  4679     025F                     l5317:
  4680                           
  4681                           ;set_time.c: 97:                             time[7] = (time_digit%10)+48;
  4682     025F  300A               	movlw	10
  4683     0260  00F3               	movwf	___lwmod@divisor
  4684     0261  3000               	movlw	0
  4685     0262  00F4               	movwf	___lwmod@divisor+1
  4686     0263  1283               	bcf	3,5	;RP0=0, select bank0
  4687     0264  1303               	bcf	3,6	;RP1=0, select bank0
  4688     0265  083F               	movf	set_time@time_digit+1,w
  4689     0266  00F6               	movwf	___lwmod@dividend+1
  4690     0267  083E               	movf	set_time@time_digit,w
  4691     0268  00F5               	movwf	___lwmod@dividend
  4692     0269  160A  118A  22E3  120A  118A  	fcall	___lwmod
  4693     026E  0873               	movf	?___lwmod,w
  4694     026F  3E30               	addlw	48
  4695     0270  1683               	bsf	3,5	;RP0=1, select bank1
  4696     0271  1303               	bcf	3,6	;RP1=0, select bank1
  4697     0272  00D2               	movwf	(_time^(0+128)+7)
  4698                           
  4699                           ;set_time.c: 98:                             break;
  4700     0273  2A9C               	goto	l5339
  4701     0274                     l5321:
  4702     0274  083C               	movf	set_time@blink_pos,w
  4703     0275  00A3               	movwf	??_set_time
  4704     0276  01A4               	clrf	??_set_time+1
  4705                           
  4706                           ; Switch on 2 bytes has been partitioned into a top level switch of size 1, and 1 sub-sw
      +                          itches
  4707                           ; Switch size 1, requested type "simple"
  4708                           ; Number of cases is 1, Range of values is 0 to 0
  4709                           ; switch strategies available:
  4710                           ; Name         Instructions Cycles
  4711                           ; simple_byte            4     3 (average)
  4712                           ; direct_byte           11     8 (fixed)
  4713                           ; jumptable            260     6 (fixed)
  4714                           ;	Chosen strategy is simple_byte
  4715     0277  0824               	movf	??_set_time+1,w
  4716     0278  3A00               	xorlw	0	; case 0
  4717     0279  1903               	skipnz
  4718     027A  2A7C               	goto	l6175
  4719     027B  2A9C               	goto	l697
  4720     027C                     l6175:
  4721                           
  4722                           ; Switch size 1, requested type "simple"
  4723                           ; Number of cases is 3, Range of values is 0 to 2
  4724                           ; switch strategies available:
  4725                           ; Name         Instructions Cycles
  4726                           ; simple_byte           10     6 (average)
  4727                           ; direct_byte           17     8 (fixed)
  4728                           ; jumptable            260     6 (fixed)
  4729                           ;	Chosen strategy is simple_byte
  4730     027C  0823               	movf	??_set_time,w
  4731     027D  3A00               	xorlw	0	; case 0
  4732     027E  1903               	skipnz
  4733     027F  295A               	goto	l5283
  4734     0280  3A01               	xorlw	1	; case 1
  4735     0281  1903               	skipnz
  4736     0282  29B8               	goto	l5295
  4737     0283  3A03               	xorlw	3	; case 2
  4738     0284  1903               	skipnz
  4739     0285  2A16               	goto	l5307
  4740     0286  2A9C               	goto	l697
  4741     0287                     l5323:
  4742     0287                     l5325:
  4743                           
  4744                           ;set_time.c: 104:                 pwd_success = 0;
  4745     0287  1283               	bcf	3,5	;RP0=0, select bank0
  4746     0288  1303               	bcf	3,6	;RP1=0, select bank0
  4747     0289  01E4               	clrf	_pwd_success
  4748     028A                     l5327:
  4749                           
  4750                           ;set_time.c: 105:                 dash_flag = 1;
  4751     028A  01EC               	clrf	_dash_flag
  4752     028B  0AEC               	incf	_dash_flag,f
  4753     028C                     l5329:
  4754                           
  4755                           ;set_time.c: 106:                 menu_select = 0;
  4756     028C  01DE               	clrf	_menu_select
  4757     028D                     l5331:
  4758                           
  4759                           ;set_time.c: 108:                 clear_clcd();
  4760     028D  160A  158A  26AD  120A  118A  	fcall	_clear_clcd
  4761     0292                     l5333:
  4762                           
  4763                           ;set_time.c: 109:                 set_time_flag = 1;
  4764     0292  1283               	bcf	3,5	;RP0=0, select bank0
  4765     0293  1303               	bcf	3,6	;RP1=0, select bank0
  4766     0294  01DF               	clrf	_set_time_flag
  4767     0295  0ADF               	incf	_set_time_flag,f
  4768     0296                     l5335:
  4769                           
  4770                           ;set_time.c: 110:                 write_time_rtc();
  4771     0296  160A  118A  2501  120A  118A  	fcall	_write_time_rtc
  4772     029B  2AF3               	goto	l708
  4773     029C                     l697:	
  4774                           ;set_time.c: 114:         }
  4775                           
  4776     029C                     l5339:
  4777                           
  4778                           ;set_time.c: 115:         if(time_key == 0x2F)
  4779     029C  302F               	movlw	47
  4780     029D  1283               	bcf	3,5	;RP0=0, select bank0
  4781     029E  063D               	xorwf	set_time@time_key,w
  4782     029F  1D03               	btfss	3,2
  4783     02A0  2AA2               	goto	u5661
  4784     02A1  2AA3               	goto	u5660
  4785     02A2                     u5661:
  4786     02A2  2AB3               	goto	l5345
  4787     02A3                     u5660:
  4788     02A3                     l5341:
  4789                           
  4790                           ;set_time.c: 116:         {;set_time.c: 117:             key_press2++;
  4791     02A3  3001               	movlw	1
  4792     02A4  07B1               	addwf	set_time@key_press2,f
  4793     02A5  3000               	movlw	0
  4794     02A6  1803               	skipnc
  4795     02A7  3001               	movlw	1
  4796     02A8  07B2               	addwf	set_time@key_press2+1,f
  4797     02A9  3000               	movlw	0
  4798     02AA  1803               	skipnc
  4799     02AB  3001               	movlw	1
  4800     02AC  07B3               	addwf	set_time@key_press2+2,f
  4801     02AD  3000               	movlw	0
  4802     02AE  1803               	skipnc
  4803     02AF  3001               	movlw	1
  4804     02B0  07B4               	addwf	set_time@key_press2+3,f
  4805     02B1                     l5343:
  4806                           
  4807                           ;set_time.c: 118:             long_press2 = 0;
  4808     02B1  01BA               	clrf	set_time@long_press2
  4809                           
  4810                           ;set_time.c: 119:         }
  4811     02B2  28BF               	goto	l691
  4812     02B3                     l5345:
  4813     02B3  303F               	movlw	63
  4814     02B4  063D               	xorwf	set_time@time_key,w
  4815     02B5  1D03               	btfss	3,2
  4816     02B6  2AB8               	goto	u5671
  4817     02B7  2AB9               	goto	u5670
  4818     02B8                     u5671:
  4819     02B8  28BF               	goto	l691
  4820     02B9                     u5670:
  4821     02B9                     l5347:
  4822     02B9  083A               	movf	set_time@long_press2,w
  4823     02BA  1D03               	btfss	3,2
  4824     02BB  2ABD               	goto	u5681
  4825     02BC  2ABE               	goto	u5680
  4826     02BD                     u5681:
  4827     02BD  28BF               	goto	l691
  4828     02BE                     u5680:
  4829     02BE                     l5349:
  4830                           
  4831                           ;set_time.c: 121:         {;set_time.c: 122:             long_press2 = 1;
  4832     02BE  01BA               	clrf	set_time@long_press2
  4833     02BF  0ABA               	incf	set_time@long_press2,f
  4834     02C0                     l5351:
  4835                           
  4836                           ;set_time.c: 123:             if(key_press2 < 15000)
  4837     02C0  0834               	movf	set_time@key_press2+3,w
  4838     02C1  1D03               	btfss	3,2
  4839     02C2  2AD1               	goto	u5691
  4840     02C3  0833               	movf	set_time@key_press2+2,w
  4841     02C4  1D03               	btfss	3,2
  4842     02C5  2AD1               	goto	u5691
  4843     02C6  303A               	movlw	58
  4844     02C7  0232               	subwf	set_time@key_press2+1,w
  4845     02C8  1D03               	skipz
  4846     02C9  2ACE               	goto	u5693
  4847     02CA  3098               	movlw	152
  4848     02CB  0231               	subwf	set_time@key_press2,w
  4849     02CC  1D03               	skipz
  4850     02CD  2ACE               	goto	u5693
  4851     02CE                     u5693:
  4852     02CE  1803               	btfsc	3,0
  4853     02CF  2AD1               	goto	u5691
  4854     02D0  2AD2               	goto	u5690
  4855     02D1                     u5691:
  4856     02D1  2AE8               	goto	l5355
  4857     02D2                     u5690:
  4858     02D2                     l5353:
  4859                           
  4860                           ;set_time.c: 124:             {;set_time.c: 126:                 blink_pos = (blink_pos+
      +                          1)%3;
  4861     02D2  3003               	movlw	3
  4862     02D3  00F3               	movwf	___awmod@divisor
  4863     02D4  3000               	movlw	0
  4864     02D5  00F4               	movwf	___awmod@divisor+1
  4865     02D6  1283               	bcf	3,5	;RP0=0, select bank0
  4866     02D7  1303               	bcf	3,6	;RP1=0, select bank0
  4867     02D8  083C               	movf	set_time@blink_pos,w
  4868     02D9  3E01               	addlw	1
  4869     02DA  00F5               	movwf	___awmod@dividend
  4870     02DB  3000               	movlw	0
  4871     02DC  1803               	skipnc
  4872     02DD  3001               	movlw	1
  4873     02DE  00F6               	movwf	___awmod@dividend+1
  4874     02DF  160A  118A  25B3  120A  118A  	fcall	___awmod
  4875     02E4  0873               	movf	?___awmod,w
  4876     02E5  1283               	bcf	3,5	;RP0=0, select bank0
  4877     02E6  1303               	bcf	3,6	;RP1=0, select bank0
  4878     02E7  00BC               	movwf	set_time@blink_pos
  4879     02E8                     l5355:
  4880                           
  4881                           ;set_time.c: 130:             key_press2 = 0;
  4882     02E8  3000               	movlw	0
  4883     02E9  1283               	bcf	3,5	;RP0=0, select bank0
  4884     02EA  1303               	bcf	3,6	;RP1=0, select bank0
  4885     02EB  00B4               	movwf	set_time@key_press2+3
  4886     02EC  3000               	movlw	0
  4887     02ED  00B3               	movwf	set_time@key_press2+2
  4888     02EE  3000               	movlw	0
  4889     02EF  00B2               	movwf	set_time@key_press2+1
  4890     02F0  3000               	movlw	0
  4891     02F1  00B1               	movwf	set_time@key_press2
  4892     02F2  28BF               	goto	l691
  4893     02F3                     l708:
  4894     02F3  0008               	return
  4895     02F4                     __end_of_set_time:
  4896                           
  4897                           	psect	text5
  4898     1501                     __ptext5:	
  4899 ;; *************** function _write_time_rtc *****************
  4900 ;; Defined at:
  4901 ;;		line 136 in file "set_time.c"
  4902 ;; Parameters:    Size  Location     Type
  4903 ;;		None
  4904 ;; Auto vars:     Size  Location     Type
  4905 ;;		None
  4906 ;; Return value:  Size  Location     Type
  4907 ;;                  1    wreg      void 
  4908 ;; Registers used:
  4909 ;;		wreg, status,2, status,0, btemp+1, pclath, cstack
  4910 ;; Tracked objects:
  4911 ;;		On entry : 0/0
  4912 ;;		On exit  : 0/0
  4913 ;;		Unchanged: 0/0
  4914 ;; Data sizes:     COMMON   BANK0   BANK1   BANK3   BANK2
  4915 ;;      Params:         0       0       0       0       0
  4916 ;;      Locals:         0       0       0       0       0
  4917 ;;      Temps:          1       0       0       0       0
  4918 ;;      Totals:         1       0       0       0       0
  4919 ;;Total ram usage:        1 bytes
  4920 ;; Hardware stack levels used: 1
  4921 ;; Hardware stack levels required when called: 4
  4922 ;; This function calls:
  4923 ;;		_write_ds1307
  4924 ;; This function is called by:
  4925 ;;		_set_time
  4926 ;; This function uses a non-reentrant model
  4927 ;;
  4928                           
  4929     1501                     _write_time_rtc:	
  4930                           ;psect for function _write_time_rtc
  4931                           
  4932     1501                     l4861:	
  4933                           ;incstack = 0
  4934                           ; Regs used in _write_time_rtc: [wreg+status,2+status,0+btemp+1+pclath+cstack]
  4935                           
  4936                           
  4937                           ;set_time.c: 138:     clock_write[0] = ((time[0]-48) & 0x03)<<4;
  4938     1501  1683               	bsf	3,5	;RP0=1, select bank1
  4939     1502  1303               	bcf	3,6	;RP1=0, select bank1
  4940     1503  084B               	movf	_time^(0+128),w
  4941     1504  3ED0               	addlw	208
  4942     1505  3903               	andlw	3
  4943     1506  00F6               	movwf	??_write_time_rtc
  4944     1507  3003               	movlw	3
  4945     1508                     u4965:
  4946     1508  1003               	clrc
  4947     1509  0DF6               	rlf	??_write_time_rtc,f
  4948     150A  3EFF               	addlw	-1
  4949     150B  1D03               	skipz
  4950     150C  2D08               	goto	u4965
  4951     150D  1003               	clrc
  4952     150E  0D76               	rlf	??_write_time_rtc,w
  4953     150F  00B9               	movwf	_clock_write^(0+128)
  4954     1510                     l4863:
  4955                           
  4956                           ;set_time.c: 139:     clock_write[0] |= ((time[1]-48) & 0x0F);
  4957     1510  084C               	movf	(_time^(0+128)+1),w
  4958     1511  3ED0               	addlw	208
  4959     1512  390F               	andlw	15
  4960     1513  00FF               	movwf	btemp+1
  4961     1514  087F               	movf	btemp+1,w
  4962     1515  04B9               	iorwf	_clock_write^(0+128),f
  4963     1516                     l4865:
  4964                           
  4965                           ;set_time.c: 141:     clock_write[1] = ((time[3]-48) & 0x07)<<4;
  4966     1516  084E               	movf	(_time^(0+128)+3),w
  4967     1517  3ED0               	addlw	208
  4968     1518  3907               	andlw	7
  4969     1519  00F6               	movwf	??_write_time_rtc
  4970     151A  3003               	movlw	3
  4971     151B                     u4975:
  4972     151B  1003               	clrc
  4973     151C  0DF6               	rlf	??_write_time_rtc,f
  4974     151D  3EFF               	addlw	-1
  4975     151E  1D03               	skipz
  4976     151F  2D1B               	goto	u4975
  4977     1520  1003               	clrc
  4978     1521  0D76               	rlf	??_write_time_rtc,w
  4979     1522  00BA               	movwf	(_clock_write^(0+128)+1)
  4980                           
  4981                           ;set_time.c: 142:     clock_write[1] |= ((time[4]-48) & 0x0F);
  4982     1523  084F               	movf	(_time^(0+128)+4),w
  4983     1524  3ED0               	addlw	208
  4984     1525  390F               	andlw	15
  4985     1526  00FF               	movwf	btemp+1
  4986     1527  087F               	movf	btemp+1,w
  4987     1528  04BA               	iorwf	(_clock_write^(0+128)+1),f
  4988     1529                     l4867:
  4989                           
  4990                           ;set_time.c: 144:     clock_write[2] = ((time[6]-48) & 0x07)<<4;
  4991     1529  0851               	movf	(_time^(0+128)+6),w
  4992     152A  3ED0               	addlw	208
  4993     152B  3907               	andlw	7
  4994     152C  00F6               	movwf	??_write_time_rtc
  4995     152D  3003               	movlw	3
  4996     152E                     u4985:
  4997     152E  1003               	clrc
  4998     152F  0DF6               	rlf	??_write_time_rtc,f
  4999     1530  3EFF               	addlw	-1
  5000     1531  1D03               	skipz
  5001     1532  2D2E               	goto	u4985
  5002     1533  1003               	clrc
  5003     1534  0D76               	rlf	??_write_time_rtc,w
  5004     1535  00BB               	movwf	(_clock_write^(0+128)+2)
  5005     1536                     l4869:
  5006                           
  5007                           ;set_time.c: 145:     clock_write[2] |= ((time[7]-48) & 0x0F);
  5008     1536  0852               	movf	(_time^(0+128)+7),w
  5009     1537  3ED0               	addlw	208
  5010     1538  390F               	andlw	15
  5011     1539  00FF               	movwf	btemp+1
  5012     153A  087F               	movf	btemp+1,w
  5013     153B  04BB               	iorwf	(_clock_write^(0+128)+2),f
  5014     153C                     l4871:
  5015                           
  5016                           ;set_time.c: 147:     write_ds1307(0x00,clock_write[2]);
  5017     153C  083B               	movf	(_clock_write^(0+128)+2),w
  5018     153D  00F4               	movwf	write_ds1307@data
  5019     153E  3000               	movlw	0
  5020     153F  160A  158A  277B  160A  118A  	fcall	_write_ds1307
  5021     1544                     l4873:
  5022                           
  5023                           ;set_time.c: 148:     write_ds1307(0x01,clock_write[1]);
  5024     1544  1683               	bsf	3,5	;RP0=1, select bank1
  5025     1545  1303               	bcf	3,6	;RP1=0, select bank1
  5026     1546  083A               	movf	(_clock_write^(0+128)+1),w
  5027     1547  00F4               	movwf	write_ds1307@data
  5028     1548  3001               	movlw	1
  5029     1549  160A  158A  277B  160A  118A  	fcall	_write_ds1307
  5030     154E                     l4875:
  5031                           
  5032                           ;set_time.c: 149:     write_ds1307(0x02,clock_write[0]);
  5033     154E  1683               	bsf	3,5	;RP0=1, select bank1
  5034     154F  1303               	bcf	3,6	;RP1=0, select bank1
  5035     1550  0839               	movf	_clock_write^(0+128),w
  5036     1551  00F4               	movwf	write_ds1307@data
  5037     1552  3002               	movlw	2
  5038     1553  160A  158A  277B  160A  118A  	fcall	_write_ds1307
  5039     1558                     l717:
  5040     1558  0008               	return
  5041     1559                     __end_of_write_time_rtc:
  5042                           
  5043                           	psect	text6
  5044     15B3                     __ptext6:	
  5045 ;; *************** function ___awmod *****************
  5046 ;; Defined at:
  5047 ;;		line 5 in file "C:\Program Files\Microchip\xc8\v2.41\pic\sources\c90\common\awmod.c"
  5048 ;; Parameters:    Size  Location     Type
  5049 ;;  divisor         2    3[COMMON] int 
  5050 ;;  dividend        2    5[COMMON] int 
  5051 ;; Auto vars:     Size  Location     Type
  5052 ;;  sign            1    1[BANK0 ] unsigned char 
  5053 ;;  counter         1    0[BANK0 ] unsigned char 
  5054 ;; Return value:  Size  Location     Type
  5055 ;;                  2    3[COMMON] int 
  5056 ;; Registers used:
  5057 ;;		wreg, status,2, status,0, btemp+1
  5058 ;; Tracked objects:
  5059 ;;		On entry : 0/0
  5060 ;;		On exit  : 0/0
  5061 ;;		Unchanged: 0/0
  5062 ;; Data sizes:     COMMON   BANK0   BANK1   BANK3   BANK2
  5063 ;;      Params:         4       0       0       0       0
  5064 ;;      Locals:         0       2       0       0       0
  5065 ;;      Temps:          0       0       0       0       0
  5066 ;;      Totals:         4       2       0       0       0
  5067 ;;Total ram usage:        6 bytes
  5068 ;; Hardware stack levels used: 1
  5069 ;; Hardware stack levels required when called: 1
  5070 ;; This function calls:
  5071 ;;		Nothing
  5072 ;; This function is called by:
  5073 ;;		_set_time
  5074 ;; This function uses a non-reentrant model
  5075 ;;
  5076                           
  5077     15B3                     ___awmod:	
  5078                           ;psect for function ___awmod
  5079                           
  5080     15B3                     l4903:	
  5081                           ;incstack = 0
  5082                           ; Regs used in ___awmod: [wreg+status,2+status,0+btemp+1]
  5083                           
  5084     15B3  1283               	bcf	3,5	;RP0=0, select bank0
  5085     15B4  1303               	bcf	3,6	;RP1=0, select bank0
  5086     15B5  01A1               	clrf	___awmod@sign
  5087     15B6                     l4905:
  5088     15B6  1FF6               	btfss	___awmod@dividend+1,7
  5089     15B7  2DB9               	goto	u5061
  5090     15B8  2DBA               	goto	u5060
  5091     15B9                     u5061:
  5092     15B9  2DC1               	goto	l4911
  5093     15BA                     u5060:
  5094     15BA                     l4907:
  5095     15BA  09F5               	comf	___awmod@dividend,f
  5096     15BB  09F6               	comf	___awmod@dividend+1,f
  5097     15BC  0AF5               	incf	___awmod@dividend,f
  5098     15BD  1903               	skipnz
  5099     15BE  0AF6               	incf	___awmod@dividend+1,f
  5100     15BF                     l4909:
  5101     15BF  01A1               	clrf	___awmod@sign
  5102     15C0  0AA1               	incf	___awmod@sign,f
  5103     15C1                     l4911:
  5104     15C1  1FF4               	btfss	___awmod@divisor+1,7
  5105     15C2  2DC4               	goto	u5071
  5106     15C3  2DC5               	goto	u5070
  5107     15C4                     u5071:
  5108     15C4  2DCA               	goto	l4915
  5109     15C5                     u5070:
  5110     15C5                     l4913:
  5111     15C5  09F3               	comf	___awmod@divisor,f
  5112     15C6  09F4               	comf	___awmod@divisor+1,f
  5113     15C7  0AF3               	incf	___awmod@divisor,f
  5114     15C8  1903               	skipnz
  5115     15C9  0AF4               	incf	___awmod@divisor+1,f
  5116     15CA                     l4915:
  5117     15CA  0873               	movf	___awmod@divisor,w
  5118     15CB  0474               	iorwf	___awmod@divisor+1,w
  5119     15CC  1903               	btfsc	3,2
  5120     15CD  2DCF               	goto	u5081
  5121     15CE  2DD0               	goto	u5080
  5122     15CF                     u5081:
  5123     15CF  2DFF               	goto	l4933
  5124     15D0                     u5080:
  5125     15D0                     l4917:
  5126     15D0  01A0               	clrf	___awmod@counter
  5127     15D1  0AA0               	incf	___awmod@counter,f
  5128     15D2  2DDE               	goto	l4923
  5129     15D3                     l4919:
  5130     15D3  3001               	movlw	1
  5131     15D4                     u5095:
  5132     15D4  1003               	clrc
  5133     15D5  0DF3               	rlf	___awmod@divisor,f
  5134     15D6  0DF4               	rlf	___awmod@divisor+1,f
  5135     15D7  3EFF               	addlw	-1
  5136     15D8  1D03               	skipz
  5137     15D9  2DD4               	goto	u5095
  5138     15DA                     l4921:
  5139     15DA  3001               	movlw	1
  5140     15DB  00FF               	movwf	btemp+1
  5141     15DC  087F               	movf	btemp+1,w
  5142     15DD  07A0               	addwf	___awmod@counter,f
  5143     15DE                     l4923:
  5144     15DE  1FF4               	btfss	___awmod@divisor+1,7
  5145     15DF  2DE1               	goto	u5101
  5146     15E0  2DE2               	goto	u5100
  5147     15E1                     u5101:
  5148     15E1  2DD3               	goto	l4919
  5149     15E2                     u5100:
  5150     15E2                     l4925:
  5151     15E2  0874               	movf	___awmod@divisor+1,w
  5152     15E3  0276               	subwf	___awmod@dividend+1,w
  5153     15E4  1D03               	skipz
  5154     15E5  2DE8               	goto	u5115
  5155     15E6  0873               	movf	___awmod@divisor,w
  5156     15E7  0275               	subwf	___awmod@dividend,w
  5157     15E8                     u5115:
  5158     15E8  1C03               	skipc
  5159     15E9  2DEB               	goto	u5111
  5160     15EA  2DEC               	goto	u5110
  5161     15EB                     u5111:
  5162     15EB  2DF2               	goto	l4929
  5163     15EC                     u5110:
  5164     15EC                     l4927:
  5165     15EC  0873               	movf	___awmod@divisor,w
  5166     15ED  02F5               	subwf	___awmod@dividend,f
  5167     15EE  0874               	movf	___awmod@divisor+1,w
  5168     15EF  1C03               	skipc
  5169     15F0  03F6               	decf	___awmod@dividend+1,f
  5170     15F1  02F6               	subwf	___awmod@dividend+1,f
  5171     15F2                     l4929:
  5172     15F2  3001               	movlw	1
  5173     15F3                     u5125:
  5174     15F3  1003               	clrc
  5175     15F4  0CF4               	rrf	___awmod@divisor+1,f
  5176     15F5  0CF3               	rrf	___awmod@divisor,f
  5177     15F6  3EFF               	addlw	-1
  5178     15F7  1D03               	skipz
  5179     15F8  2DF3               	goto	u5125
  5180     15F9                     l4931:
  5181     15F9  3001               	movlw	1
  5182     15FA  02A0               	subwf	___awmod@counter,f
  5183     15FB  1D03               	btfss	3,2
  5184     15FC  2DFE               	goto	u5131
  5185     15FD  2DFF               	goto	u5130
  5186     15FE                     u5131:
  5187     15FE  2DE2               	goto	l4925
  5188     15FF                     u5130:
  5189     15FF                     l4933:
  5190     15FF  0821               	movf	___awmod@sign,w
  5191     1600  1903               	btfsc	3,2
  5192     1601  2E03               	goto	u5141
  5193     1602  2E04               	goto	u5140
  5194     1603                     u5141:
  5195     1603  2E09               	goto	l4937
  5196     1604                     u5140:
  5197     1604                     l4935:
  5198     1604  09F5               	comf	___awmod@dividend,f
  5199     1605  09F6               	comf	___awmod@dividend+1,f
  5200     1606  0AF5               	incf	___awmod@dividend,f
  5201     1607  1903               	skipnz
  5202     1608  0AF6               	incf	___awmod@dividend+1,f
  5203     1609                     l4937:
  5204     1609  0876               	movf	___awmod@dividend+1,w
  5205     160A  00F4               	movwf	?___awmod+1
  5206     160B  0875               	movf	___awmod@dividend,w
  5207     160C  00F3               	movwf	?___awmod
  5208     160D                     l1067:
  5209     160D  0008               	return
  5210     160E                     __end_of___awmod:
  5211                           
  5212                           	psect	text7
  5213     0AEE                     __ptext7:	
  5214 ;; *************** function _download *****************
  5215 ;; Defined at:
  5216 ;;		line 12 in file "download.c"
  5217 ;; Parameters:    Size  Location     Type
  5218 ;;		None
  5219 ;; Auto vars:     Size  Location     Type
  5220 ;;  i               2    6[BANK0 ] unsigned int 
  5221 ;;  index           2    8[BANK0 ] unsigned int 
  5222 ;; Return value:  Size  Location     Type
  5223 ;;                  1    wreg      void 
  5224 ;; Registers used:
  5225 ;;		wreg, fsr0l, fsr0h, status,2, status,0, btemp+1, pclath, cstack
  5226 ;; Tracked objects:
  5227 ;;		On entry : 0/0
  5228 ;;		On exit  : 0/0
  5229 ;;		Unchanged: 0/0
  5230 ;; Data sizes:     COMMON   BANK0   BANK1   BANK3   BANK2
  5231 ;;      Params:         0       0       0       0       0
  5232 ;;      Locals:         0       4       0       0       0
  5233 ;;      Temps:          0       3       0       0       0
  5234 ;;      Totals:         0       7       0       0       0
  5235 ;;Total ram usage:        7 bytes
  5236 ;; Hardware stack levels used: 1
  5237 ;; Hardware stack levels required when called: 5
  5238 ;; This function calls:
  5239 ;;		___wmul
  5240 ;;		_clcd_print
  5241 ;;		_clear_clcd
  5242 ;;		_ext_eeprom_read
  5243 ;;		_puts
  5244 ;; This function is called by:
  5245 ;;		_menu
  5246 ;; This function uses a non-reentrant model
  5247 ;;
  5248                           
  5249     0AEE                     _download:	
  5250                           ;psect for function _download
  5251                           
  5252     0AEE                     l5185:	
  5253                           ;incstack = 0
  5254                           ; Regs used in _download: [wreg-fsr0h+status,2+status,0+btemp+1+pclath+cstack]
  5255                           
  5256                           
  5257                           ;download.c: 14:     clear_clcd();
  5258     0AEE  160A  158A  26AD  120A  158A  	fcall	_clear_clcd
  5259     0AF3                     l5187:
  5260                           
  5261                           ;download.c: 15:     clcd_print("logs print",(0x80 + 0));
  5262     0AF3  301E               	movlw	low (STR_25| (0+32768))
  5263     0AF4  1283               	bcf	3,5	;RP0=0, select bank0
  5264     0AF5  1303               	bcf	3,6	;RP1=0, select bank0
  5265     0AF6  00A0               	movwf	clcd_print@str
  5266     0AF7  3091               	movlw	high (STR_25| (0+32768))
  5267     0AF8  00A1               	movwf	clcd_print@str+1
  5268     0AF9  3080               	movlw	128
  5269     0AFA  00A2               	movwf	clcd_print@addr
  5270     0AFB  160A  118A  227C  120A  158A  	fcall	_clcd_print
  5271     0B00                     l5189:
  5272                           
  5273                           ;download.c: 16:     _delay((unsigned long)((500)*(20000000/4000.0)));
  5274     0B00  300D               	movlw	13
  5275     0B01  1283               	bcf	3,5	;RP0=0, select bank0
  5276     0B02  1303               	bcf	3,6	;RP1=0, select bank0
  5277     0B03  00A5               	movwf	??_download+2
  5278     0B04  30AF               	movlw	175
  5279     0B05  00A4               	movwf	??_download+1
  5280     0B06  30B5               	movlw	181
  5281     0B07  00A3               	movwf	??_download
  5282     0B08                     u6967:
  5283     0B08  0BA3               	decfsz	??_download,f
  5284     0B09  2B08               	goto	u6967
  5285     0B0A  0BA4               	decfsz	??_download+1,f
  5286     0B0B  2B08               	goto	u6967
  5287     0B0C  0BA5               	decfsz	??_download+2,f
  5288     0B0D  2B08               	goto	u6967
  5289     0B0E  2B0F               	nop2
  5290     0B0F                     l5191:
  5291                           
  5292                           ;download.c: 17:     clear_clcd();
  5293     0B0F  160A  158A  26AD  120A  158A  	fcall	_clear_clcd
  5294     0B14                     l5193:
  5295                           
  5296                           ;download.c: 18:     if(event_10 == -1)
  5297     0B14  1283               	bcf	3,5	;RP0=0, select bank0
  5298     0B15  1303               	bcf	3,6	;RP1=0, select bank0
  5299     0B16  0A65               	incf	_event_10,w
  5300     0B17  1D03               	skipz
  5301     0B18  2B1D               	goto	u5541
  5302     0B19  0A66               	incf	_event_10+1,w
  5303     0B1A  1D03               	btfss	3,2
  5304     0B1B  2B1D               	goto	u5541
  5305     0B1C  2B1E               	goto	u5540
  5306     0B1D                     u5541:
  5307     0B1D  2B28               	goto	l5199
  5308     0B1E                     u5540:
  5309     0B1E                     l5195:
  5310                           
  5311                           ;download.c: 19:     {;download.c: 20:         puts("NO LOGS AVAILABLE\n");
  5312     0B1E  3000               	movlw	low (STR_26| (0+32768))
  5313     0B1F  00F4               	movwf	puts@s
  5314     0B20  3090               	movlw	high (STR_26| (0+32768))
  5315     0B21  00F5               	movwf	puts@s+1
  5316     0B22  160A  158A  27DA  120A  158A  	fcall	_puts
  5317     0B27  2BAA               	goto	l611
  5318     0B28                     l5199:
  5319                           
  5320                           ;download.c: 23:     for(unsigned int index = addr; index <= event_10; index++)
  5321     0B28  1683               	bsf	3,5	;RP0=1, select bank1
  5322     0B29  1303               	bcf	3,6	;RP1=0, select bank1
  5323     0B2A  083D               	movf	(_addr+1)^(0+128),w
  5324     0B2B  1283               	bcf	3,5	;RP0=0, select bank0
  5325     0B2C  1303               	bcf	3,6	;RP1=0, select bank0
  5326     0B2D  00A9               	movwf	download@index+1
  5327     0B2E  1683               	bsf	3,5	;RP0=1, select bank1
  5328     0B2F  1303               	bcf	3,6	;RP1=0, select bank1
  5329     0B30  083C               	movf	_addr^(0+128),w
  5330     0B31  1283               	bcf	3,5	;RP0=0, select bank0
  5331     0B32  1303               	bcf	3,6	;RP1=0, select bank0
  5332     0B33  00A8               	movwf	download@index
  5333     0B34  2B97               	goto	l5217
  5334     0B35                     l5201:
  5335                           
  5336                           ;download.c: 24:     {;download.c: 25:         for(unsigned int i = index*15; i<((index+
      +                          1)*15);i++)
  5337     0B35  0829               	movf	download@index+1,w
  5338     0B36  00F4               	movwf	___wmul@multiplier+1
  5339     0B37  0828               	movf	download@index,w
  5340     0B38  00F3               	movwf	___wmul@multiplier
  5341     0B39  300F               	movlw	15
  5342     0B3A  00F5               	movwf	___wmul@multiplicand
  5343     0B3B  3000               	movlw	0
  5344     0B3C  00F6               	movwf	___wmul@multiplicand+1
  5345     0B3D  160A  118A  21CD  120A  158A  	fcall	___wmul
  5346     0B42  0874               	movf	?___wmul+1,w
  5347     0B43  1283               	bcf	3,5	;RP0=0, select bank0
  5348     0B44  1303               	bcf	3,6	;RP1=0, select bank0
  5349     0B45  00A7               	movwf	download@i+1
  5350     0B46  0873               	movf	?___wmul,w
  5351     0B47  00A6               	movwf	download@i
  5352     0B48  2B66               	goto	l5209
  5353     0B49                     l5203:
  5354                           
  5355                           ;download.c: 26:         {;download.c: 27:             download_log[ind++] = ext_eeprom_
      +                          read(i);
  5356     0B49  1683               	bsf	3,5	;RP0=1, select bank1
  5357     0B4A  1303               	bcf	3,6	;RP1=0, select bank1
  5358     0B4B  0846               	movf	_ind@download$F463^(0+128),w
  5359     0B4C  3E90               	addlw	(low (_download_log| (0+256)))& (0+255)
  5360     0B4D  0084               	movwf	4
  5361     0B4E  1283               	bcf	3,5	;RP0=0, select bank0
  5362     0B4F  1303               	bcf	3,6	;RP1=0, select bank0
  5363     0B50  0826               	movf	download@i,w
  5364     0B51  160A  118A  21F8  120A  158A  	fcall	_ext_eeprom_read
  5365     0B56  1783               	bsf	3,7	;select IRP bank3
  5366     0B57  0080               	movwf	0
  5367     0B58                     l5205:
  5368     0B58  3001               	movlw	1
  5369     0B59  00FF               	movwf	btemp+1
  5370     0B5A  087F               	movf	btemp+1,w
  5371     0B5B  1683               	bsf	3,5	;RP0=1, select bank1
  5372     0B5C  1303               	bcf	3,6	;RP1=0, select bank1
  5373     0B5D  07C6               	addwf	_ind@download$F463^(0+128),f
  5374     0B5E                     l5207:
  5375                           
  5376                           ;download.c: 28:         }
  5377     0B5E  3001               	movlw	1
  5378     0B5F  1283               	bcf	3,5	;RP0=0, select bank0
  5379     0B60  1303               	bcf	3,6	;RP1=0, select bank0
  5380     0B61  07A6               	addwf	download@i,f
  5381     0B62  1803               	skipnc
  5382     0B63  0AA7               	incf	download@i+1,f
  5383     0B64  3000               	movlw	0
  5384     0B65  07A7               	addwf	download@i+1,f
  5385     0B66                     l5209:
  5386     0B66  0828               	movf	download@index,w
  5387     0B67  3E01               	addlw	1
  5388     0B68  00F3               	movwf	___wmul@multiplier
  5389     0B69  0829               	movf	download@index+1,w
  5390     0B6A  1803               	skipnc
  5391     0B6B  3E01               	addlw	1
  5392     0B6C  3E00               	addlw	0
  5393     0B6D  00F4               	movwf	___wmul@multiplier+1
  5394     0B6E  300F               	movlw	15
  5395     0B6F  00F5               	movwf	___wmul@multiplicand
  5396     0B70  3000               	movlw	0
  5397     0B71  00F6               	movwf	___wmul@multiplicand+1
  5398     0B72  160A  118A  21CD  120A  158A  	fcall	___wmul
  5399     0B77  0874               	movf	?___wmul+1,w
  5400     0B78  1283               	bcf	3,5	;RP0=0, select bank0
  5401     0B79  1303               	bcf	3,6	;RP1=0, select bank0
  5402     0B7A  0227               	subwf	download@i+1,w
  5403     0B7B  1D03               	skipz
  5404     0B7C  2B7F               	goto	u5555
  5405     0B7D  0873               	movf	?___wmul,w
  5406     0B7E  0226               	subwf	download@i,w
  5407     0B7F                     u5555:
  5408     0B7F  1C03               	skipc
  5409     0B80  2B82               	goto	u5551
  5410     0B81  2B83               	goto	u5550
  5411     0B82                     u5551:
  5412     0B82  2B49               	goto	l5203
  5413     0B83                     u5550:
  5414     0B83                     l5211:
  5415                           
  5416                           ;download.c: 32:         puts("log 1\n");
  5417     0B83  304F               	movlw	low (STR_27| (0+32768))
  5418     0B84  00F4               	movwf	puts@s
  5419     0B85  3091               	movlw	high (STR_27| (0+32768))
  5420     0B86  00F5               	movwf	puts@s+1
  5421     0B87  160A  158A  27DA  120A  158A  	fcall	_puts
  5422     0B8C                     l5213:
  5423                           
  5424                           ;download.c: 35:         ind = 0;
  5425     0B8C  1683               	bsf	3,5	;RP0=1, select bank1
  5426     0B8D  1303               	bcf	3,6	;RP1=0, select bank1
  5427     0B8E  01C6               	clrf	_ind@download$F463^(0+128)
  5428     0B8F                     l5215:
  5429                           
  5430                           ;download.c: 37:     }
  5431     0B8F  3001               	movlw	1
  5432     0B90  1283               	bcf	3,5	;RP0=0, select bank0
  5433     0B91  1303               	bcf	3,6	;RP1=0, select bank0
  5434     0B92  07A8               	addwf	download@index,f
  5435     0B93  1803               	skipnc
  5436     0B94  0AA9               	incf	download@index+1,f
  5437     0B95  3000               	movlw	0
  5438     0B96  07A9               	addwf	download@index+1,f
  5439     0B97                     l5217:
  5440     0B97  0829               	movf	download@index+1,w
  5441     0B98  0266               	subwf	_event_10+1,w
  5442     0B99  1D03               	skipz
  5443     0B9A  2B9D               	goto	u5565
  5444     0B9B  0828               	movf	download@index,w
  5445     0B9C  0265               	subwf	_event_10,w
  5446     0B9D                     u5565:
  5447     0B9D  1803               	skipnc
  5448     0B9E  2BA0               	goto	u5561
  5449     0B9F  2BA1               	goto	u5560
  5450     0BA0                     u5561:
  5451     0BA0  2B35               	goto	l5201
  5452     0BA1                     u5560:
  5453     0BA1                     l5219:
  5454                           
  5455                           ;download.c: 38:     addr = 0;
  5456     0BA1  1683               	bsf	3,5	;RP0=1, select bank1
  5457     0BA2  1303               	bcf	3,6	;RP1=0, select bank1
  5458     0BA3  01BC               	clrf	_addr^(0+128)
  5459     0BA4  01BD               	clrf	(_addr+1)^(0+128)
  5460     0BA5                     l5221:
  5461                           
  5462                           ;download.c: 39:     clear_clcd();
  5463     0BA5  160A  158A  26AD  120A  158A  	fcall	_clear_clcd
  5464     0BAA                     l611:
  5465     0BAA  0008               	return
  5466     0BAB                     __end_of_download:
  5467                           
  5468                           	psect	text8
  5469     1FDA                     __ptext8:	
  5470 ;; *************** function _puts *****************
  5471 ;; Defined at:
  5472 ;;		line 54 in file "uart.c"
  5473 ;; Parameters:    Size  Location     Type
  5474 ;;  s               2    4[COMMON] PTR const unsigned char 
  5475 ;;		 -> STR_27(7), STR_26(19), 
  5476 ;; Auto vars:     Size  Location     Type
  5477 ;;		None
  5478 ;; Return value:  Size  Location     Type
  5479 ;;                  1    wreg      void 
  5480 ;; Registers used:
  5481 ;;		wreg, fsr0l, fsr0h, status,2, status,0, btemp+1, pclath, cstack
  5482 ;; Tracked objects:
  5483 ;;		On entry : 0/0
  5484 ;;		On exit  : 0/0
  5485 ;;		Unchanged: 0/0
  5486 ;; Data sizes:     COMMON   BANK0   BANK1   BANK3   BANK2
  5487 ;;      Params:         2       0       0       0       0
  5488 ;;      Locals:         0       0       0       0       0
  5489 ;;      Temps:          0       0       0       0       0
  5490 ;;      Totals:         2       0       0       0       0
  5491 ;;Total ram usage:        2 bytes
  5492 ;; Hardware stack levels used: 1
  5493 ;; Hardware stack levels required when called: 2
  5494 ;; This function calls:
  5495 ;;		_putchar
  5496 ;; This function is called by:
  5497 ;;		_download
  5498 ;; This function uses a non-reentrant model
  5499 ;;
  5500                           
  5501     1FDA                     _puts:	
  5502                           ;psect for function _puts
  5503                           
  5504     1FDA                     l3311:	
  5505                           ;incstack = 0
  5506                           ; Regs used in _puts: [wreg-fsr0h+status,2+status,0+btemp+1+pclath+cstack]
  5507                           
  5508                           
  5509                           ;uart.c: 54: void puts(const char *s);uart.c: 55: {;uart.c: 56:     while (*s)
  5510     1FDA  2FEF               	goto	l3317
  5511     1FDB                     l3313:
  5512                           
  5513                           ;uart.c: 57:     {;uart.c: 58:         putchar(*s++);
  5514     1FDB  0875               	movf	puts@s+1,w
  5515     1FDC  00FF               	movwf	btemp+1
  5516     1FDD  0874               	movf	puts@s,w
  5517     1FDE  0084               	movwf	4
  5518     1FDF  160A  158A  2000  160A  158A  	fcall	stringtab
  5519     1FE4  160A  158A  2671  160A  158A  	fcall	_putchar
  5520     1FE9                     l3315:
  5521     1FE9  3001               	movlw	1
  5522     1FEA  07F4               	addwf	puts@s,f
  5523     1FEB  1803               	skipnc
  5524     1FEC  0AF5               	incf	puts@s+1,f
  5525     1FED  3000               	movlw	0
  5526     1FEE  07F5               	addwf	puts@s+1,f
  5527     1FEF                     l3317:
  5528                           
  5529                           ;uart.c: 56:     while (*s)
  5530     1FEF  0875               	movf	puts@s+1,w
  5531     1FF0  1283               	bcf	3,5	;RP0=0, select bank0
  5532     1FF1  1303               	bcf	3,6	;RP1=0, select bank0
  5533     1FF2  00FF               	movwf	btemp+1
  5534     1FF3  0874               	movf	puts@s,w
  5535     1FF4  0084               	movwf	4
  5536     1FF5  160A  158A  2000  160A  158A  	fcall	stringtab
  5537     1FFA  3A00               	xorlw	0
  5538     1FFB  1D03               	skipz
  5539     1FFC  2FFE               	goto	u2711
  5540     1FFD  2FFF               	goto	u2710
  5541     1FFE                     u2711:
  5542     1FFE  2FDB               	goto	l3313
  5543     1FFF                     u2710:
  5544     1FFF                     l662:
  5545     1FFF  0008               	return
  5546     2000                     __end_of_puts:
  5547                           
  5548                           	psect	text9
  5549     1E71                     __ptext9:	
  5550 ;; *************** function _putchar *****************
  5551 ;; Defined at:
  5552 ;;		line 39 in file "uart.c"
  5553 ;; Parameters:    Size  Location     Type
  5554 ;;  data            1    wreg     unsigned char 
  5555 ;; Auto vars:     Size  Location     Type
  5556 ;;  data            1    3[COMMON] unsigned char 
  5557 ;; Return value:  Size  Location     Type
  5558 ;;                  1    wreg      void 
  5559 ;; Registers used:
  5560 ;;		wreg
  5561 ;; Tracked objects:
  5562 ;;		On entry : 0/0
  5563 ;;		On exit  : 0/0
  5564 ;;		Unchanged: 0/0
  5565 ;; Data sizes:     COMMON   BANK0   BANK1   BANK3   BANK2
  5566 ;;      Params:         0       0       0       0       0
  5567 ;;      Locals:         1       0       0       0       0
  5568 ;;      Temps:          0       0       0       0       0
  5569 ;;      Totals:         1       0       0       0       0
  5570 ;;Total ram usage:        1 bytes
  5571 ;; Hardware stack levels used: 1
  5572 ;; Hardware stack levels required when called: 1
  5573 ;; This function calls:
  5574 ;;		Nothing
  5575 ;; This function is called by:
  5576 ;;		_puts
  5577 ;; This function uses a non-reentrant model
  5578 ;;
  5579                           
  5580     1E71                     _putchar:	
  5581                           ;psect for function _putchar
  5582                           
  5583                           
  5584                           ;incstack = 0
  5585                           ; Regs used in _putchar: [wreg]
  5586                           ;putchar@data stored from wreg
  5587     1E71  00F3               	movwf	putchar@data
  5588     1E72                     l3127:
  5589                           
  5590                           ;uart.c: 39: void putchar(unsigned char data);uart.c: 40: {;uart.c: 42:     TXREG = data
      +                          ;
  5591     1E72  0873               	movf	putchar@data,w
  5592     1E73  1283               	bcf	3,5	;RP0=0, select bank0
  5593     1E74  1303               	bcf	3,6	;RP1=0, select bank0
  5594     1E75  0099               	movwf	25	;volatile
  5595     1E76                     l654:	
  5596                           ;uart.c: 48:     } while (TXIF != 1);
  5597                           
  5598     1E76  1E0C               	btfss	12,4	;volatile
  5599     1E77  2E79               	goto	u2481
  5600     1E78  2E7A               	goto	u2480
  5601     1E79                     u2481:
  5602     1E79  2E76               	goto	l654
  5603     1E7A                     u2480:
  5604     1E7A                     l655:
  5605                           
  5606                           ;uart.c: 51:     TXIF = 0;
  5607     1E7A  120C               	bcf	12,4	;volatile
  5608     1E7B                     l656:
  5609     1E7B  0008               	return
  5610     1E7C                     __end_of_putchar:
  5611                           
  5612                           	psect	text10
  5613     11F8                     __ptext10:	
  5614 ;; *************** function _ext_eeprom_read *****************
  5615 ;; Defined at:
  5616 ;;		line 80 in file "ext_eeprom.c"
  5617 ;; Parameters:    Size  Location     Type
  5618 ;;  addr            1    wreg     unsigned char 
  5619 ;; Auto vars:     Size  Location     Type
  5620 ;;  addr            1    5[COMMON] unsigned char 
  5621 ;;  data            1    6[COMMON] unsigned char 
  5622 ;; Return value:  Size  Location     Type
  5623 ;;                  1    wreg      unsigned char 
  5624 ;; Registers used:
  5625 ;;		wreg, status,2, status,0, pclath, cstack
  5626 ;; Tracked objects:
  5627 ;;		On entry : 0/0
  5628 ;;		On exit  : 0/0
  5629 ;;		Unchanged: 0/0
  5630 ;; Data sizes:     COMMON   BANK0   BANK1   BANK3   BANK2
  5631 ;;      Params:         0       0       0       0       0
  5632 ;;      Locals:         2       0       0       0       0
  5633 ;;      Temps:          0       0       0       0       0
  5634 ;;      Totals:         2       0       0       0       0
  5635 ;;Total ram usage:        2 bytes
  5636 ;; Hardware stack levels used: 1
  5637 ;; Hardware stack levels required when called: 4
  5638 ;; This function calls:
  5639 ;;		_i2c_read
  5640 ;;		_i2c_rep_start
  5641 ;;		_i2c_start
  5642 ;;		_i2c_stop
  5643 ;;		_i2c_write
  5644 ;; This function is called by:
  5645 ;;		_view_log_events
  5646 ;;		_download
  5647 ;; This function uses a non-reentrant model
  5648 ;;
  5649                           
  5650     11F8                     _ext_eeprom_read:	
  5651                           ;psect for function _ext_eeprom_read
  5652                           
  5653                           
  5654                           ;incstack = 0
  5655                           ; Regs used in _ext_eeprom_read: [wreg+status,2+status,0+pclath+cstack]
  5656                           ;ext_eeprom_read@addr stored from wreg
  5657     11F8  00F5               	movwf	ext_eeprom_read@addr
  5658     11F9                     l4731:
  5659                           
  5660                           ;ext_eeprom.c: 80: unsigned char ext_eeprom_read(unsigned char addr);ext_eeprom.c: 81: {
      +                          ;ext_eeprom.c: 82:     unsigned char data;;ext_eeprom.c: 83:     i2c_start();
  5661     11F9  160A  158A  2620  160A  118A  	fcall	_i2c_start
  5662                           
  5663                           ;ext_eeprom.c: 84:     i2c_write(0xA0);
  5664     11FE  30A0               	movlw	160
  5665     11FF  160A  158A  2650  160A  118A  	fcall	_i2c_write
  5666                           
  5667                           ;ext_eeprom.c: 85:     i2c_write(addr);
  5668     1204  0875               	movf	ext_eeprom_read@addr,w
  5669     1205  160A  158A  2650  160A  118A  	fcall	_i2c_write
  5670                           
  5671                           ;ext_eeprom.c: 86:     i2c_rep_start();
  5672     120A  160A  158A  2645  160A  118A  	fcall	_i2c_rep_start
  5673                           
  5674                           ;ext_eeprom.c: 87:     i2c_write(0xA1);
  5675     120F  30A1               	movlw	161
  5676     1210  160A  158A  2650  160A  118A  	fcall	_i2c_write
  5677                           
  5678                           ;ext_eeprom.c: 88:     data = i2c_read(0);
  5679     1215  3000               	movlw	0
  5680     1216  160A  158A  27B9  160A  118A  	fcall	_i2c_read
  5681     121B  00F6               	movwf	ext_eeprom_read@data
  5682                           
  5683                           ;ext_eeprom.c: 89:     i2c_stop();
  5684     121C  160A  158A  2629  160A  118A  	fcall	_i2c_stop
  5685     1221                     l4733:
  5686                           
  5687                           ;ext_eeprom.c: 90:     return data;
  5688     1221  0876               	movf	ext_eeprom_read@data,w
  5689     1222                     l572:
  5690     1222  0008               	return
  5691     1223                     __end_of_ext_eeprom_read:
  5692                           
  5693                           	psect	text11
  5694     0935                     __ptext11:	
  5695 ;; *************** function _display_menu *****************
  5696 ;; Defined at:
  5697 ;;		line 95 in file "menu.c"
  5698 ;; Parameters:    Size  Location     Type
  5699 ;;  menu            1    wreg     PTR PTR unsigned char 
  5700 ;;		 -> option_menu(10), 
  5701 ;;  menu_select     1    3[BANK0 ] unsigned char 
  5702 ;; Auto vars:     Size  Location     Type
  5703 ;;  menu            1    7[BANK0 ] PTR PTR unsigned char 
  5704 ;;		 -> option_menu(10), 
  5705 ;; Return value:  Size  Location     Type
  5706 ;;                  1    wreg      void 
  5707 ;; Registers used:
  5708 ;;		wreg, fsr0l, fsr0h, status,2, status,0, btemp+1, pclath, cstack
  5709 ;; Tracked objects:
  5710 ;;		On entry : 0/0
  5711 ;;		On exit  : 0/0
  5712 ;;		Unchanged: 0/0
  5713 ;; Data sizes:     COMMON   BANK0   BANK1   BANK3   BANK2
  5714 ;;      Params:         0       1       0       0       0
  5715 ;;      Locals:         0       1       0       0       0
  5716 ;;      Temps:          0       3       0       0       0
  5717 ;;      Totals:         0       5       0       0       0
  5718 ;;Total ram usage:        5 bytes
  5719 ;; Hardware stack levels used: 1
  5720 ;; Hardware stack levels required when called: 3
  5721 ;; This function calls:
  5722 ;;		_clcd_print
  5723 ;;		_clcd_putch
  5724 ;; This function is called by:
  5725 ;;		_menu
  5726 ;; This function uses a non-reentrant model
  5727 ;;
  5728                           
  5729     0935                     _display_menu:	
  5730                           ;psect for function _display_menu
  5731                           
  5732                           
  5733                           ;incstack = 0
  5734                           ; Regs used in _display_menu: [wreg-fsr0h+status,2+status,0+btemp+1+pclath+cstack]
  5735                           ;display_menu@menu stored from wreg
  5736     0935  1283               	bcf	3,5	;RP0=0, select bank0
  5737     0936  1303               	bcf	3,6	;RP1=0, select bank0
  5738     0937  00A7               	movwf	display_menu@menu
  5739     0938                     l5515:
  5740                           
  5741                           ;menu.c: 95: static void display_menu(unsigned char *menu[5],unsigned char menu_select);
      +                          menu.c: 96: {;menu.c: 98:     if(menu_select == 4)
  5742     0938  3004               	movlw	4
  5743     0939  0623               	xorwf	display_menu@menu_select,w
  5744     093A  1D03               	btfss	3,2
  5745     093B  293D               	goto	u5901
  5746     093C  293E               	goto	u5900
  5747     093D                     u5901:
  5748     093D  2976               	goto	l5523
  5749     093E                     u5900:
  5750     093E                     l5517:
  5751                           
  5752                           ;menu.c: 99:     {;menu.c: 100:         clcd_putch('*',(0xC0 + 0));
  5753     093E  30C0               	movlw	192
  5754     093F  00F7               	movwf	clcd_putch@addr
  5755     0940  302A               	movlw	42
  5756     0941  160A  158A  26FA  120A  158A  	fcall	_clcd_putch
  5757     0946                     l5519:
  5758                           
  5759                           ;menu.c: 101:         clcd_print(menu[menu_select-1],(0x80 + 2));
  5760     0946  1283               	bcf	3,5	;RP0=0, select bank0
  5761     0947  1303               	bcf	3,6	;RP1=0, select bank0
  5762     0948  0823               	movf	display_menu@menu_select,w
  5763     0949  00A4               	movwf	??_display_menu
  5764     094A  0724               	addwf	??_display_menu,w
  5765     094B  0727               	addwf	display_menu@menu,w
  5766     094C  00A5               	movwf	??_display_menu+1
  5767     094D  0825               	movf	??_display_menu+1,w
  5768     094E  3EFE               	addlw	-2
  5769     094F  0084               	movwf	4
  5770     0950  1783               	bsf	3,7	;select IRP bank2
  5771     0951  0800               	movf	0,w
  5772     0952  00A0               	movwf	clcd_print@str
  5773     0953  0A84               	incf	4,f
  5774     0954  0800               	movf	0,w
  5775     0955  0384               	decf	4,f
  5776     0956  00A1               	movwf	clcd_print@str+1
  5777     0957  3082               	movlw	130
  5778     0958  00A2               	movwf	clcd_print@addr
  5779     0959  160A  118A  227C  120A  158A  	fcall	_clcd_print
  5780     095E                     l5521:
  5781                           
  5782                           ;menu.c: 102:         clcd_print(menu[menu_select],(0xC0 + 2));
  5783     095E  1283               	bcf	3,5	;RP0=0, select bank0
  5784     095F  1303               	bcf	3,6	;RP1=0, select bank0
  5785     0960  0823               	movf	display_menu@menu_select,w
  5786     0961  00A4               	movwf	??_display_menu
  5787     0962  0724               	addwf	??_display_menu,w
  5788     0963  0727               	addwf	display_menu@menu,w
  5789     0964  00A5               	movwf	??_display_menu+1
  5790     0965  0825               	movf	??_display_menu+1,w
  5791     0966  0084               	movwf	4
  5792     0967  1783               	bsf	3,7	;select IRP bank2
  5793     0968  0800               	movf	0,w
  5794     0969  00A0               	movwf	clcd_print@str
  5795     096A  0A84               	incf	4,f
  5796     096B  0800               	movf	0,w
  5797     096C  0384               	decf	4,f
  5798     096D  00A1               	movwf	clcd_print@str+1
  5799     096E  30C2               	movlw	194
  5800     096F  00A2               	movwf	clcd_print@addr
  5801     0970  160A  118A  227C  120A  158A  	fcall	_clcd_print
  5802                           
  5803                           ;menu.c: 103:     }
  5804     0975  29AD               	goto	l454
  5805     0976                     l5523:
  5806                           
  5807                           ;menu.c: 105:     {;menu.c: 106:         clcd_putch('*',(0x80 + 0));
  5808     0976  3080               	movlw	128
  5809     0977  00F7               	movwf	clcd_putch@addr
  5810     0978  302A               	movlw	42
  5811     0979  160A  158A  26FA  120A  158A  	fcall	_clcd_putch
  5812     097E                     l5525:
  5813                           
  5814                           ;menu.c: 107:         clcd_print(menu[menu_select],(0x80 + 2));
  5815     097E  1283               	bcf	3,5	;RP0=0, select bank0
  5816     097F  1303               	bcf	3,6	;RP1=0, select bank0
  5817     0980  0823               	movf	display_menu@menu_select,w
  5818     0981  00A4               	movwf	??_display_menu
  5819     0982  0724               	addwf	??_display_menu,w
  5820     0983  0727               	addwf	display_menu@menu,w
  5821     0984  00A5               	movwf	??_display_menu+1
  5822     0985  0825               	movf	??_display_menu+1,w
  5823     0986  0084               	movwf	4
  5824     0987  1783               	bsf	3,7	;select IRP bank2
  5825     0988  0800               	movf	0,w
  5826     0989  00A0               	movwf	clcd_print@str
  5827     098A  0A84               	incf	4,f
  5828     098B  0800               	movf	0,w
  5829     098C  0384               	decf	4,f
  5830     098D  00A1               	movwf	clcd_print@str+1
  5831     098E  3082               	movlw	130
  5832     098F  00A2               	movwf	clcd_print@addr
  5833     0990  160A  118A  227C  120A  158A  	fcall	_clcd_print
  5834     0995                     l5527:
  5835                           
  5836                           ;menu.c: 108:         clcd_print(menu[menu_select+1],(0xC0 + 2));
  5837     0995  1283               	bcf	3,5	;RP0=0, select bank0
  5838     0996  1303               	bcf	3,6	;RP1=0, select bank0
  5839     0997  0823               	movf	display_menu@menu_select,w
  5840     0998  00A4               	movwf	??_display_menu
  5841     0999  0724               	addwf	??_display_menu,w
  5842     099A  0727               	addwf	display_menu@menu,w
  5843     099B  00A5               	movwf	??_display_menu+1
  5844     099C  0825               	movf	??_display_menu+1,w
  5845     099D  3E02               	addlw	2
  5846     099E  0084               	movwf	4
  5847     099F  1783               	bsf	3,7	;select IRP bank2
  5848     09A0  0800               	movf	0,w
  5849     09A1  00A0               	movwf	clcd_print@str
  5850     09A2  0A84               	incf	4,f
  5851     09A3  0800               	movf	0,w
  5852     09A4  0384               	decf	4,f
  5853     09A5  00A1               	movwf	clcd_print@str+1
  5854     09A6  30C2               	movlw	194
  5855     09A7  00A2               	movwf	clcd_print@addr
  5856     09A8  160A  118A  227C  120A  158A  	fcall	_clcd_print
  5857     09AD                     l454:
  5858     09AD  0008               	return
  5859     09AE                     __end_of_display_menu:
  5860                           
  5861                           	psect	text12
  5862     1396                     __ptext12:	
  5863 ;; *************** function _clear_log *****************
  5864 ;; Defined at:
  5865 ;;		line 8 in file "clear_log.c"
  5866 ;; Parameters:    Size  Location     Type
  5867 ;;		None
  5868 ;; Auto vars:     Size  Location     Type
  5869 ;;		None
  5870 ;; Return value:  Size  Location     Type
  5871 ;;                  1    wreg      void 
  5872 ;; Registers used:
  5873 ;;		wreg, fsr0l, fsr0h, status,2, status,0, btemp+1, pclath, cstack
  5874 ;; Tracked objects:
  5875 ;;		On entry : 0/0
  5876 ;;		On exit  : 0/0
  5877 ;;		Unchanged: 0/0
  5878 ;; Data sizes:     COMMON   BANK0   BANK1   BANK3   BANK2
  5879 ;;      Params:         0       0       0       0       0
  5880 ;;      Locals:         0       0       0       0       0
  5881 ;;      Temps:          0       3       0       0       0
  5882 ;;      Totals:         0       3       0       0       0
  5883 ;;Total ram usage:        3 bytes
  5884 ;; Hardware stack levels used: 1
  5885 ;; Hardware stack levels required when called: 3
  5886 ;; This function calls:
  5887 ;;		_clcd_print
  5888 ;;		_clear_clcd
  5889 ;; This function is called by:
  5890 ;;		_menu
  5891 ;; This function uses a non-reentrant model
  5892 ;;
  5893                           
  5894     1396                     _clear_log:	
  5895                           ;psect for function _clear_log
  5896                           
  5897     1396                     l5173:	
  5898                           ;incstack = 0
  5899                           ; Regs used in _clear_log: [wreg-fsr0h+status,2+status,0+btemp+1+pclath+cstack]
  5900                           
  5901                           
  5902                           ;clear_log.c: 10:     event_count = -1;
  5903     1396  30FF               	movlw	255
  5904     1397  1283               	bcf	3,5	;RP0=0, select bank0
  5905     1398  1303               	bcf	3,6	;RP1=0, select bank0
  5906     1399  00ED               	movwf	_event_count
  5907     139A  30FF               	movlw	255
  5908     139B  00EE               	movwf	_event_count+1
  5909                           
  5910                           ;clear_log.c: 11:     event_10 = -1;
  5911     139C  30FF               	movlw	255
  5912     139D  00E5               	movwf	_event_10
  5913     139E  30FF               	movlw	255
  5914     139F  00E6               	movwf	_event_10+1
  5915     13A0                     l5175:
  5916                           
  5917                           ;clear_log.c: 12:     no_event = 1;
  5918     13A0  01EB               	clrf	_no_event
  5919     13A1  0AEB               	incf	_no_event,f
  5920     13A2                     l5177:
  5921                           
  5922                           ;clear_log.c: 13:     clear_clcd();
  5923     13A2  160A  158A  26AD  160A  118A  	fcall	_clear_clcd
  5924     13A7                     l5179:
  5925                           
  5926                           ;clear_log.c: 14:     clcd_print("  logs cleared  ",(0x80 + 0));
  5927     13A7  3057               	movlw	low (STR_23| (0+32768))
  5928     13A8  1283               	bcf	3,5	;RP0=0, select bank0
  5929     13A9  1303               	bcf	3,6	;RP1=0, select bank0
  5930     13AA  00A0               	movwf	clcd_print@str
  5931     13AB  3090               	movlw	high (STR_23| (0+32768))
  5932     13AC  00A1               	movwf	clcd_print@str+1
  5933     13AD  3080               	movlw	128
  5934     13AE  00A2               	movwf	clcd_print@addr
  5935     13AF  160A  118A  227C  160A  118A  	fcall	_clcd_print
  5936     13B4                     l5181:
  5937                           
  5938                           ;clear_log.c: 15:     clcd_print("  successfully  ",(0xC0 + 0));
  5939     13B4  3068               	movlw	low (STR_24| (0+32768))
  5940     13B5  1283               	bcf	3,5	;RP0=0, select bank0
  5941     13B6  1303               	bcf	3,6	;RP1=0, select bank0
  5942     13B7  00A0               	movwf	clcd_print@str
  5943     13B8  3090               	movlw	high (STR_24| (0+32768))
  5944     13B9  00A1               	movwf	clcd_print@str+1
  5945     13BA  30C0               	movlw	192
  5946     13BB  00A2               	movwf	clcd_print@addr
  5947     13BC  160A  118A  227C  160A  118A  	fcall	_clcd_print
  5948     13C1                     l5183:
  5949                           
  5950                           ;clear_log.c: 16:     _delay((unsigned long)((2000)*(20000000/4000.0)));
  5951     13C1  3033               	movlw	51
  5952     13C2  1283               	bcf	3,5	;RP0=0, select bank0
  5953     13C3  1303               	bcf	3,6	;RP1=0, select bank0
  5954     13C4  00A5               	movwf	??_clear_log+2
  5955     13C5  30BB               	movlw	187
  5956     13C6  00A4               	movwf	??_clear_log+1
  5957     13C7  30DF               	movlw	223
  5958     13C8  00A3               	movwf	??_clear_log
  5959     13C9                     u6977:
  5960     13C9  0BA3               	decfsz	??_clear_log,f
  5961     13CA  2BC9               	goto	u6977
  5962     13CB  0BA4               	decfsz	??_clear_log+1,f
  5963     13CC  2BC9               	goto	u6977
  5964     13CD  0BA5               	decfsz	??_clear_log+2,f
  5965     13CE  2BC9               	goto	u6977
  5966                           
  5967                           ;clear_log.c: 17:     clear_clcd();
  5968     13CF  160A  158A  26AD  160A  118A  	fcall	_clear_clcd
  5969     13D4                     l589:
  5970     13D4  0008               	return
  5971     13D5                     __end_of_clear_log:
  5972                           
  5973                           	psect	text13
  5974     02F4                     __ptext13:	
  5975 ;; *************** function _change_psswd *****************
  5976 ;; Defined at:
  5977 ;;		line 8 in file "password.c"
  5978 ;; Parameters:    Size  Location     Type
  5979 ;;		None
  5980 ;; Auto vars:     Size  Location     Type
  5981 ;;  user            5   15[BANK0 ] unsigned char [5]
  5982 ;;  confirm         5   10[BANK0 ] unsigned char [5]
  5983 ;;  index           2   25[BANK0 ] unsigned int 
  5984 ;;  wait            2   21[BANK0 ] unsigned int 
  5985 ;;  wait2           2    8[BANK0 ] unsigned int 
  5986 ;;  attempt         2    6[BANK0 ] unsigned int 
  5987 ;;  no_attempt_l    2    0        unsigned int 
  5988 ;;  total_attemp    2    0        unsigned int 
  5989 ;;  blink_pos       1   27[BANK0 ] unsigned char 
  5990 ;;  blink_flag      1   24[BANK0 ] unsigned char 
  5991 ;;  key             1   23[BANK0 ] unsigned char 
  5992 ;;  confirm_flag    1   20[BANK0 ] unsigned char 
  5993 ;; Return value:  Size  Location     Type
  5994 ;;                  1    wreg      void 
  5995 ;; Registers used:
  5996 ;;		wreg, fsr0l, fsr0h, status,2, status,0, btemp+1, pclath, cstack
  5997 ;; Tracked objects:
  5998 ;;		On entry : 0/0
  5999 ;;		On exit  : 0/0
  6000 ;;		Unchanged: 0/0
  6001 ;; Data sizes:     COMMON   BANK0   BANK1   BANK3   BANK2
  6002 ;;      Params:         0       0       0       0       0
  6003 ;;      Locals:         0      22       0       0       0
  6004 ;;      Temps:          0       3       0       0       0
  6005 ;;      Totals:         0      25       0       0       0
  6006 ;;Total ram usage:       25 bytes
  6007 ;; Hardware stack levels used: 1
  6008 ;; Hardware stack levels required when called: 3
  6009 ;; This function calls:
  6010 ;;		_clcd_print
  6011 ;;		_clcd_putch
  6012 ;;		_clear_arr
  6013 ;;		_clear_clcd
  6014 ;;		_my_strcmp
  6015 ;;		_read_digital_keypad
  6016 ;;		_write_password
  6017 ;; This function is called by:
  6018 ;;		_menu
  6019 ;; This function uses a non-reentrant model
  6020 ;;
  6021                           
  6022     02F4                     _change_psswd:	
  6023                           ;psect for function _change_psswd
  6024                           
  6025     02F4                     l5361:	
  6026                           ;incstack = 0
  6027                           ; Regs used in _change_psswd: [wreg-fsr0h+status,2+status,0+btemp+1+pclath+cstack]
  6028                           
  6029                           
  6030                           ;password.c: 10:     unsigned char blink_flag = 1,confirm_flag = 0;
  6031     02F4  1283               	bcf	3,5	;RP0=0, select bank0
  6032     02F5  1303               	bcf	3,6	;RP1=0, select bank0
  6033     02F6  01B8               	clrf	change_psswd@blink_flag
  6034     02F7  0AB8               	incf	change_psswd@blink_flag,f
  6035     02F8                     l5363:
  6036     02F8  01B4               	clrf	change_psswd@confirm_flag
  6037     02F9                     l5365:
  6038                           
  6039                           ;password.c: 11:     unsigned char key;;password.c: 12:     unsigned char user[5] = {'\0
      +                          '};
  6040     02F9  302F               	movlw	change_psswd@user& (0+255)
  6041     02FA  0084               	movwf	4
  6042     02FB  3005               	movlw	5
  6043     02FC  00FF               	movwf	btemp+1
  6044     02FD                     u5700:
  6045     02FD  1383               	bcf	3,7	;select IRP bank0
  6046     02FE  0180               	clrf	0
  6047     02FF  0A84               	incf	4,f
  6048     0300  0BFF               	decfsz	btemp+1,f
  6049     0301  2AFD               	goto	u5700
  6050     0302                     l5367:
  6051                           
  6052                           ;password.c: 13:     unsigned char confirm[5] = {'\0'};
  6053     0302  302A               	movlw	change_psswd@confirm& (0+255)
  6054     0303  0084               	movwf	4
  6055     0304  3005               	movlw	5
  6056     0305  00FF               	movwf	btemp+1
  6057     0306                     u5710:
  6058     0306  0180               	clrf	0
  6059     0307  0A84               	incf	4,f
  6060     0308  0BFF               	decfsz	btemp+1,f
  6061     0309  2B06               	goto	u5710
  6062                           
  6063                           ;password.c: 14:     unsigned char blink_pos = 0;
  6064     030A  01BB               	clrf	change_psswd@blink_pos
  6065                           
  6066                           ;password.c: 15:     unsigned int index = 0;
  6067     030B  01B9               	clrf	change_psswd@index
  6068     030C  01BA               	clrf	change_psswd@index+1
  6069     030D                     l5369:
  6070     030D                     l5371:
  6071     030D  01A6               	clrf	change_psswd@attempt
  6072     030E  01A7               	clrf	change_psswd@attempt+1
  6073                           
  6074                           ;password.c: 18:     unsigned int wait = 0,wait2=0;
  6075     030F  01B5               	clrf	change_psswd@wait
  6076     0310  01B6               	clrf	change_psswd@wait+1
  6077     0311  01A8               	clrf	change_psswd@wait2
  6078     0312  01A9               	clrf	change_psswd@wait2+1
  6079     0313                     l5373:
  6080                           
  6081                           ;password.c: 19:     clear_clcd();
  6082     0313  160A  158A  26AD  120A  118A  	fcall	_clear_clcd
  6083     0318                     l5375:
  6084                           
  6085                           ;password.c: 21:     {;password.c: 22:         key = read_digital_keypad(1);
  6086     0318  3001               	movlw	1
  6087     0319  160A  118A  2178  120A  118A  	fcall	_read_digital_keypad
  6088     031E  1283               	bcf	3,5	;RP0=0, select bank0
  6089     031F  1303               	bcf	3,6	;RP1=0, select bank0
  6090     0320  00B7               	movwf	change_psswd@key
  6091     0321                     l5377:
  6092                           
  6093                           ;password.c: 23:         if(!confirm_flag)
  6094     0321  0834               	movf	change_psswd@confirm_flag,w
  6095     0322  1D03               	btfss	3,2
  6096     0323  2B25               	goto	u5721
  6097     0324  2B26               	goto	u5720
  6098     0325                     u5721:
  6099     0325  2BCD               	goto	l5433
  6100     0326                     u5720:
  6101     0326                     l5379:
  6102                           
  6103                           ;password.c: 24:         {;password.c: 25:         clcd_print("Enter new Passwd",(0x80 +
      +                           0));
  6104     0326  3035               	movlw	low (STR_29| (0+32768))
  6105     0327  00A0               	movwf	clcd_print@str
  6106     0328  3090               	movlw	high (STR_29| (0+32768))
  6107     0329  00A1               	movwf	clcd_print@str+1
  6108     032A  3080               	movlw	128
  6109     032B  00A2               	movwf	clcd_print@addr
  6110     032C  160A  118A  227C  120A  118A  	fcall	_clcd_print
  6111     0331                     l5381:
  6112                           
  6113                           ;password.c: 26:         if(++wait == 5)
  6114     0331  3001               	movlw	1
  6115     0332  1283               	bcf	3,5	;RP0=0, select bank0
  6116     0333  1303               	bcf	3,6	;RP1=0, select bank0
  6117     0334  07B5               	addwf	change_psswd@wait,f
  6118     0335  1803               	skipnc
  6119     0336  0AB6               	incf	change_psswd@wait+1,f
  6120     0337  3000               	movlw	0
  6121     0338  07B6               	addwf	change_psswd@wait+1,f
  6122     0339  3005               	movlw	5
  6123     033A  0635               	xorwf	change_psswd@wait,w
  6124     033B  0436               	iorwf	change_psswd@wait+1,w
  6125     033C  1D03               	btfss	3,2
  6126     033D  2B3F               	goto	u5731
  6127     033E  2B40               	goto	u5730
  6128     033F                     u5731:
  6129     033F  2B72               	goto	l5401
  6130     0340                     u5730:
  6131     0340                     l5383:
  6132                           
  6133                           ;password.c: 27:         {;password.c: 28:             wait = 0;
  6134     0340  01B5               	clrf	change_psswd@wait
  6135     0341  01B6               	clrf	change_psswd@wait+1
  6136     0342                     l5385:
  6137                           
  6138                           ;password.c: 29:             if(blink_flag == 1)
  6139     0342  0338               	decf	change_psswd@blink_flag,w
  6140     0343  1D03               	btfss	3,2
  6141     0344  2B46               	goto	u5741
  6142     0345  2B47               	goto	u5740
  6143     0346                     u5741:
  6144     0346  2B54               	goto	l5391
  6145     0347                     u5740:
  6146     0347                     l5387:
  6147                           
  6148                           ;password.c: 30:             {;password.c: 31:                 clcd_putch(' ',(0xC0 + bl
      +                          ink_pos));
  6149     0347  083B               	movf	change_psswd@blink_pos,w
  6150     0348  3EC0               	addlw	192
  6151     0349  00F7               	movwf	clcd_putch@addr
  6152     034A  3020               	movlw	32
  6153     034B  160A  158A  26FA  120A  118A  	fcall	_clcd_putch
  6154     0350                     l5389:
  6155                           
  6156                           ;password.c: 32:                 blink_flag = 0;
  6157     0350  1283               	bcf	3,5	;RP0=0, select bank0
  6158     0351  1303               	bcf	3,6	;RP1=0, select bank0
  6159     0352  01B8               	clrf	change_psswd@blink_flag
  6160                           
  6161                           ;password.c: 33:             }
  6162     0353  2B72               	goto	l5401
  6163     0354                     l5391:
  6164     0354  0838               	movf	change_psswd@blink_flag,w
  6165     0355  1D03               	btfss	3,2
  6166     0356  2B58               	goto	u5751
  6167     0357  2B59               	goto	u5750
  6168     0358                     u5751:
  6169     0358  2B67               	goto	l5397
  6170     0359                     u5750:
  6171     0359                     l5393:
  6172                           
  6173                           ;password.c: 35:             {;password.c: 36:                 clcd_putch(0xFF,(0xC0 + b
      +                          link_pos));
  6174     0359  083B               	movf	change_psswd@blink_pos,w
  6175     035A  3EC0               	addlw	192
  6176     035B  00F7               	movwf	clcd_putch@addr
  6177     035C  30FF               	movlw	255
  6178     035D  160A  158A  26FA  120A  118A  	fcall	_clcd_putch
  6179     0362                     l5395:
  6180                           
  6181                           ;password.c: 37:                 blink_flag = 1;
  6182     0362  1283               	bcf	3,5	;RP0=0, select bank0
  6183     0363  1303               	bcf	3,6	;RP1=0, select bank0
  6184     0364  01B8               	clrf	change_psswd@blink_flag
  6185     0365  0AB8               	incf	change_psswd@blink_flag,f
  6186                           
  6187                           ;password.c: 38:             }
  6188     0366  2B72               	goto	l5401
  6189     0367                     l5397:
  6190                           
  6191                           ;password.c: 40:             {;password.c: 41:                 blink_flag = 2;
  6192     0367  3002               	movlw	2
  6193     0368  00B8               	movwf	change_psswd@blink_flag
  6194     0369                     l5399:
  6195                           
  6196                           ;password.c: 42:                 clcd_putch(' ',(0xC0 + blink_pos));
  6197     0369  083B               	movf	change_psswd@blink_pos,w
  6198     036A  3EC0               	addlw	192
  6199     036B  00F7               	movwf	clcd_putch@addr
  6200     036C  3020               	movlw	32
  6201     036D  160A  158A  26FA  120A  118A  	fcall	_clcd_putch
  6202     0372                     l5401:
  6203                           
  6204                           ;password.c: 45:         if(key == 0x37)
  6205     0372  3037               	movlw	55
  6206     0373  1283               	bcf	3,5	;RP0=0, select bank0
  6207     0374  1303               	bcf	3,6	;RP1=0, select bank0
  6208     0375  0637               	xorwf	change_psswd@key,w
  6209     0376  1D03               	btfss	3,2
  6210     0377  2B79               	goto	u5761
  6211     0378  2B7A               	goto	u5760
  6212     0379                     u5761:
  6213     0379  2B9F               	goto	l5413
  6214     037A                     u5760:
  6215     037A                     l5403:
  6216                           
  6217                           ;password.c: 46:         {;password.c: 47:             if(index < 4)
  6218     037A  3000               	movlw	0
  6219     037B  023A               	subwf	change_psswd@index+1,w
  6220     037C  3004               	movlw	4
  6221     037D  1903               	skipnz
  6222     037E  0239               	subwf	change_psswd@index,w
  6223     037F  1803               	skipnc
  6224     0380  2B82               	goto	u5771
  6225     0381  2B83               	goto	u5770
  6226     0382                     u5771:
  6227     0382  2BBE               	goto	l5425
  6228     0383                     u5770:
  6229     0383                     l5405:
  6230                           
  6231                           ;password.c: 48:             {;password.c: 49:                 user[index] = '0';
  6232     0383  0839               	movf	change_psswd@index,w
  6233     0384  3E2F               	addlw	(low (change_psswd@user| 0))& (0+255)
  6234     0385  0084               	movwf	4
  6235     0386  3030               	movlw	48
  6236     0387  1383               	bcf	3,7	;select IRP bank0
  6237     0388  0080               	movwf	0
  6238     0389                     l5407:
  6239                           
  6240                           ;password.c: 50:                 clcd_putch('*',(0xC0 + blink_pos));
  6241     0389  083B               	movf	change_psswd@blink_pos,w
  6242     038A  3EC0               	addlw	192
  6243     038B  00F7               	movwf	clcd_putch@addr
  6244     038C  302A               	movlw	42
  6245     038D  160A  158A  26FA  120A  118A  	fcall	_clcd_putch
  6246     0392                     l5409:
  6247                           
  6248                           ;password.c: 51:                 index++;
  6249     0392  3001               	movlw	1
  6250     0393  1283               	bcf	3,5	;RP0=0, select bank0
  6251     0394  1303               	bcf	3,6	;RP1=0, select bank0
  6252     0395  07B9               	addwf	change_psswd@index,f
  6253     0396  1803               	skipnc
  6254     0397  0ABA               	incf	change_psswd@index+1,f
  6255     0398  3000               	movlw	0
  6256     0399  07BA               	addwf	change_psswd@index+1,f
  6257     039A                     l5411:
  6258                           
  6259                           ;password.c: 52:                 blink_pos++;
  6260     039A  3001               	movlw	1
  6261     039B  00FF               	movwf	btemp+1
  6262     039C  087F               	movf	btemp+1,w
  6263     039D  07BB               	addwf	change_psswd@blink_pos,f
  6264     039E  2BBE               	goto	l5425
  6265     039F                     l5413:
  6266     039F  302F               	movlw	47
  6267     03A0  0637               	xorwf	change_psswd@key,w
  6268     03A1  1D03               	btfss	3,2
  6269     03A2  2BA4               	goto	u5781
  6270     03A3  2BA5               	goto	u5780
  6271     03A4                     u5781:
  6272     03A4  2BBE               	goto	l5425
  6273     03A5                     u5780:
  6274     03A5                     l5415:
  6275                           
  6276                           ;password.c: 56:         {;password.c: 57:             if(index < 4)
  6277     03A5  3000               	movlw	0
  6278     03A6  023A               	subwf	change_psswd@index+1,w
  6279     03A7  3004               	movlw	4
  6280     03A8  1903               	skipnz
  6281     03A9  0239               	subwf	change_psswd@index,w
  6282     03AA  1803               	skipnc
  6283     03AB  2BAD               	goto	u5791
  6284     03AC  2BAE               	goto	u5790
  6285     03AD                     u5791:
  6286     03AD  2BBE               	goto	l5425
  6287     03AE                     u5790:
  6288     03AE                     l5417:
  6289                           
  6290                           ;password.c: 58:             {;password.c: 59:                 user[index] = '1';
  6291     03AE  0839               	movf	change_psswd@index,w
  6292     03AF  3E2F               	addlw	(low (change_psswd@user| 0))& (0+255)
  6293     03B0  0084               	movwf	4
  6294     03B1  3031               	movlw	49
  6295     03B2  1383               	bcf	3,7	;select IRP bank0
  6296     03B3  0080               	movwf	0
  6297     03B4                     l5419:
  6298                           
  6299                           ;password.c: 60:                 clcd_putch('*',(0xC0 + blink_pos));
  6300     03B4  083B               	movf	change_psswd@blink_pos,w
  6301     03B5  3EC0               	addlw	192
  6302     03B6  00F7               	movwf	clcd_putch@addr
  6303     03B7  302A               	movlw	42
  6304     03B8  160A  158A  26FA  120A  118A  	fcall	_clcd_putch
  6305     03BD  2B92               	goto	l5409
  6306     03BE                     l5425:
  6307                           
  6308                           ;password.c: 66:         if(index > 3)
  6309     03BE  3000               	movlw	0
  6310     03BF  023A               	subwf	change_psswd@index+1,w
  6311     03C0  3004               	movlw	4
  6312     03C1  1903               	skipnz
  6313     03C2  0239               	subwf	change_psswd@index,w
  6314     03C3  1C03               	skipc
  6315     03C4  2BC6               	goto	u5801
  6316     03C5  2BC7               	goto	u5800
  6317     03C6                     u5801:
  6318     03C6  2B18               	goto	l5375
  6319     03C7                     u5800:
  6320     03C7                     l5427:
  6321                           
  6322                           ;password.c: 67:         {;password.c: 68:             blink_pos = 0;
  6323     03C7  01BB               	clrf	change_psswd@blink_pos
  6324                           
  6325                           ;password.c: 69:             index = 0;
  6326     03C8  01B9               	clrf	change_psswd@index
  6327     03C9  01BA               	clrf	change_psswd@index+1
  6328     03CA                     l5429:
  6329                           
  6330                           ;password.c: 70:             confirm_flag = 1;
  6331     03CA  01B4               	clrf	change_psswd@confirm_flag
  6332     03CB  0AB4               	incf	change_psswd@confirm_flag,f
  6333     03CC  2B13               	goto	l5373
  6334     03CD                     l5433:
  6335                           
  6336                           ;password.c: 75:         {;password.c: 77:             clcd_print("Confrm new Paswd",(0x
      +                          80 + 0));
  6337     03CD  3024               	movlw	low (STR_30| (0+32768))
  6338     03CE  00A0               	movwf	clcd_print@str
  6339     03CF  3090               	movlw	high (STR_30| (0+32768))
  6340     03D0  00A1               	movwf	clcd_print@str+1
  6341     03D1  3080               	movlw	128
  6342     03D2  00A2               	movwf	clcd_print@addr
  6343     03D3  160A  118A  227C  120A  118A  	fcall	_clcd_print
  6344     03D8                     l5435:
  6345                           
  6346                           ;password.c: 78:             if(++wait == 5)
  6347     03D8  3001               	movlw	1
  6348     03D9  1283               	bcf	3,5	;RP0=0, select bank0
  6349     03DA  1303               	bcf	3,6	;RP1=0, select bank0
  6350     03DB  07B5               	addwf	change_psswd@wait,f
  6351     03DC  1803               	skipnc
  6352     03DD  0AB6               	incf	change_psswd@wait+1,f
  6353     03DE  3000               	movlw	0
  6354     03DF  07B6               	addwf	change_psswd@wait+1,f
  6355     03E0  3005               	movlw	5
  6356     03E1  0635               	xorwf	change_psswd@wait,w
  6357     03E2  0436               	iorwf	change_psswd@wait+1,w
  6358     03E3  1D03               	btfss	3,2
  6359     03E4  2BE6               	goto	u5811
  6360     03E5  2BE7               	goto	u5810
  6361     03E6                     u5811:
  6362     03E6  2C19               	goto	l5455
  6363     03E7                     u5810:
  6364     03E7                     l5437:
  6365                           
  6366                           ;password.c: 79:             {;password.c: 80:                 wait = 0;
  6367     03E7  01B5               	clrf	change_psswd@wait
  6368     03E8  01B6               	clrf	change_psswd@wait+1
  6369     03E9                     l5439:
  6370                           
  6371                           ;password.c: 81:                 if(blink_flag == 1)
  6372     03E9  0338               	decf	change_psswd@blink_flag,w
  6373     03EA  1D03               	btfss	3,2
  6374     03EB  2BED               	goto	u5821
  6375     03EC  2BEE               	goto	u5820
  6376     03ED                     u5821:
  6377     03ED  2BFB               	goto	l5445
  6378     03EE                     u5820:
  6379     03EE                     l5441:
  6380                           
  6381                           ;password.c: 82:                 {;password.c: 83:                     clcd_putch(' ',(0
      +                          xC0 + blink_pos));
  6382     03EE  083B               	movf	change_psswd@blink_pos,w
  6383     03EF  3EC0               	addlw	192
  6384     03F0  00F7               	movwf	clcd_putch@addr
  6385     03F1  3020               	movlw	32
  6386     03F2  160A  158A  26FA  120A  118A  	fcall	_clcd_putch
  6387     03F7                     l5443:
  6388                           
  6389                           ;password.c: 84:                     blink_flag = 0;
  6390     03F7  1283               	bcf	3,5	;RP0=0, select bank0
  6391     03F8  1303               	bcf	3,6	;RP1=0, select bank0
  6392     03F9  01B8               	clrf	change_psswd@blink_flag
  6393                           
  6394                           ;password.c: 85:                 }
  6395     03FA  2C19               	goto	l5455
  6396     03FB                     l5445:
  6397     03FB  0838               	movf	change_psswd@blink_flag,w
  6398     03FC  1D03               	btfss	3,2
  6399     03FD  2BFF               	goto	u5831
  6400     03FE  2C00               	goto	u5830
  6401     03FF                     u5831:
  6402     03FF  2C0E               	goto	l5451
  6403     0400                     u5830:
  6404     0400                     l5447:
  6405                           
  6406                           ;password.c: 87:                 {;password.c: 88:                     clcd_putch(0xFF,(
      +                          0xC0 + blink_pos));
  6407     0400  083B               	movf	change_psswd@blink_pos,w
  6408     0401  3EC0               	addlw	192
  6409     0402  00F7               	movwf	clcd_putch@addr
  6410     0403  30FF               	movlw	255
  6411     0404  160A  158A  26FA  120A  118A  	fcall	_clcd_putch
  6412     0409                     l5449:
  6413                           
  6414                           ;password.c: 89:                     blink_flag = 1;
  6415     0409  1283               	bcf	3,5	;RP0=0, select bank0
  6416     040A  1303               	bcf	3,6	;RP1=0, select bank0
  6417     040B  01B8               	clrf	change_psswd@blink_flag
  6418     040C  0AB8               	incf	change_psswd@blink_flag,f
  6419                           
  6420                           ;password.c: 90:                 }
  6421     040D  2C19               	goto	l5455
  6422     040E                     l5451:
  6423                           
  6424                           ;password.c: 92:                 {;password.c: 93:                     blink_flag = 2;
  6425     040E  3002               	movlw	2
  6426     040F  00B8               	movwf	change_psswd@blink_flag
  6427     0410                     l5453:
  6428                           
  6429                           ;password.c: 94:                     clcd_putch(' ',(0xC0 + blink_pos));
  6430     0410  083B               	movf	change_psswd@blink_pos,w
  6431     0411  3EC0               	addlw	192
  6432     0412  00F7               	movwf	clcd_putch@addr
  6433     0413  3020               	movlw	32
  6434     0414  160A  158A  26FA  120A  118A  	fcall	_clcd_putch
  6435     0419                     l5455:
  6436                           
  6437                           ;password.c: 97:             if(key == 0x37)
  6438     0419  3037               	movlw	55
  6439     041A  1283               	bcf	3,5	;RP0=0, select bank0
  6440     041B  1303               	bcf	3,6	;RP1=0, select bank0
  6441     041C  0637               	xorwf	change_psswd@key,w
  6442     041D  1D03               	btfss	3,2
  6443     041E  2C20               	goto	u5841
  6444     041F  2C21               	goto	u5840
  6445     0420                     u5841:
  6446     0420  2C46               	goto	l5467
  6447     0421                     u5840:
  6448     0421                     l5457:
  6449                           
  6450                           ;password.c: 98:             {;password.c: 99:                 if(index < 4)
  6451     0421  3000               	movlw	0
  6452     0422  023A               	subwf	change_psswd@index+1,w
  6453     0423  3004               	movlw	4
  6454     0424  1903               	skipnz
  6455     0425  0239               	subwf	change_psswd@index,w
  6456     0426  1803               	skipnc
  6457     0427  2C29               	goto	u5851
  6458     0428  2C2A               	goto	u5850
  6459     0429                     u5851:
  6460     0429  2C65               	goto	l5479
  6461     042A                     u5850:
  6462     042A                     l5459:
  6463                           
  6464                           ;password.c: 100:                 {;password.c: 101:                     confirm[index] 
      +                          = '0';
  6465     042A  0839               	movf	change_psswd@index,w
  6466     042B  3E2A               	addlw	(low (change_psswd@confirm| 0))& (0+255)
  6467     042C  0084               	movwf	4
  6468     042D  3030               	movlw	48
  6469     042E  1383               	bcf	3,7	;select IRP bank0
  6470     042F  0080               	movwf	0
  6471     0430                     l5461:
  6472                           
  6473                           ;password.c: 102:                     clcd_putch('*',(0xC0 + blink_pos));
  6474     0430  083B               	movf	change_psswd@blink_pos,w
  6475     0431  3EC0               	addlw	192
  6476     0432  00F7               	movwf	clcd_putch@addr
  6477     0433  302A               	movlw	42
  6478     0434  160A  158A  26FA  120A  118A  	fcall	_clcd_putch
  6479     0439                     l5463:
  6480                           
  6481                           ;password.c: 103:                     index++;
  6482     0439  3001               	movlw	1
  6483     043A  1283               	bcf	3,5	;RP0=0, select bank0
  6484     043B  1303               	bcf	3,6	;RP1=0, select bank0
  6485     043C  07B9               	addwf	change_psswd@index,f
  6486     043D  1803               	skipnc
  6487     043E  0ABA               	incf	change_psswd@index+1,f
  6488     043F  3000               	movlw	0
  6489     0440  07BA               	addwf	change_psswd@index+1,f
  6490     0441                     l5465:
  6491                           
  6492                           ;password.c: 104:                     blink_pos++;
  6493     0441  3001               	movlw	1
  6494     0442  00FF               	movwf	btemp+1
  6495     0443  087F               	movf	btemp+1,w
  6496     0444  07BB               	addwf	change_psswd@blink_pos,f
  6497     0445  2C65               	goto	l5479
  6498     0446                     l5467:
  6499     0446  302F               	movlw	47
  6500     0447  0637               	xorwf	change_psswd@key,w
  6501     0448  1D03               	btfss	3,2
  6502     0449  2C4B               	goto	u5861
  6503     044A  2C4C               	goto	u5860
  6504     044B                     u5861:
  6505     044B  2C65               	goto	l5479
  6506     044C                     u5860:
  6507     044C                     l5469:
  6508                           
  6509                           ;password.c: 108:             {;password.c: 109:                 if(index < 4)
  6510     044C  3000               	movlw	0
  6511     044D  023A               	subwf	change_psswd@index+1,w
  6512     044E  3004               	movlw	4
  6513     044F  1903               	skipnz
  6514     0450  0239               	subwf	change_psswd@index,w
  6515     0451  1803               	skipnc
  6516     0452  2C54               	goto	u5871
  6517     0453  2C55               	goto	u5870
  6518     0454                     u5871:
  6519     0454  2C65               	goto	l5479
  6520     0455                     u5870:
  6521     0455                     l5471:
  6522                           
  6523                           ;password.c: 110:                 {;password.c: 111:                     confirm[index] 
      +                          = '1';
  6524     0455  0839               	movf	change_psswd@index,w
  6525     0456  3E2A               	addlw	(low (change_psswd@confirm| 0))& (0+255)
  6526     0457  0084               	movwf	4
  6527     0458  3031               	movlw	49
  6528     0459  1383               	bcf	3,7	;select IRP bank0
  6529     045A  0080               	movwf	0
  6530     045B                     l5473:
  6531                           
  6532                           ;password.c: 112:                     clcd_putch('*',(0xC0 + blink_pos));
  6533     045B  083B               	movf	change_psswd@blink_pos,w
  6534     045C  3EC0               	addlw	192
  6535     045D  00F7               	movwf	clcd_putch@addr
  6536     045E  302A               	movlw	42
  6537     045F  160A  158A  26FA  120A  118A  	fcall	_clcd_putch
  6538     0464  2C39               	goto	l5463
  6539     0465                     l5479:
  6540                           
  6541                           ;password.c: 118:             if(index > 3)
  6542     0465  3000               	movlw	0
  6543     0466  023A               	subwf	change_psswd@index+1,w
  6544     0467  3004               	movlw	4
  6545     0468  1903               	skipnz
  6546     0469  0239               	subwf	change_psswd@index,w
  6547     046A  1C03               	skipc
  6548     046B  2C6D               	goto	u5881
  6549     046C  2C6E               	goto	u5880
  6550     046D                     u5881:
  6551     046D  2B18               	goto	l5375
  6552     046E                     u5880:
  6553     046E                     l5481:
  6554                           
  6555                           ;password.c: 119:             {;password.c: 120:                 blink_pos = 0;
  6556     046E  01BB               	clrf	change_psswd@blink_pos
  6557                           
  6558                           ;password.c: 121:                 index = 0;
  6559     046F  01B9               	clrf	change_psswd@index
  6560     0470  01BA               	clrf	change_psswd@index+1
  6561                           
  6562                           ;password.c: 122:                 confirm_flag = 0;
  6563     0471  01B4               	clrf	change_psswd@confirm_flag
  6564     0472                     l5483:
  6565                           
  6566                           ;password.c: 124:             if(my_strcmp(user,confirm) == 0)
  6567     0472  302A               	movlw	(low (change_psswd@confirm| 0))& (0+255)
  6568     0473  00F3               	movwf	my_strcmp@str2
  6569     0474  302F               	movlw	(low (change_psswd@user| 0))& (0+255)
  6570     0475  160A  118A  23D5  120A  118A  	fcall	_my_strcmp
  6571     047A  0873               	movf	?_my_strcmp,w
  6572     047B  0474               	iorwf	?_my_strcmp+1,w
  6573     047C  1D03               	btfss	3,2
  6574     047D  2C7F               	goto	u5891
  6575     047E  2C80               	goto	u5890
  6576     047F                     u5891:
  6577     047F  2CBE               	goto	l5503
  6578     0480                     u5890:
  6579     0480                     l5485:
  6580                           
  6581                           ;password.c: 125:             {;password.c: 126:                 write_password(user);
  6582     0480  302F               	movlw	(low (change_psswd@user| 0))& (0+255)
  6583     0481  160A  158A  2726  120A  118A  	fcall	_write_password
  6584     0486                     l5487:
  6585                           
  6586                           ;password.c: 127:                 passwd_read=1;
  6587     0486  1283               	bcf	3,5	;RP0=0, select bank0
  6588     0487  1303               	bcf	3,6	;RP1=0, select bank0
  6589     0488  01EA               	clrf	_passwd_read
  6590     0489  0AEA               	incf	_passwd_read,f
  6591     048A                     l5489:
  6592                           
  6593                           ;password.c: 128:                 clear_clcd();
  6594     048A  160A  158A  26AD  120A  118A  	fcall	_clear_clcd
  6595     048F                     l5491:
  6596                           
  6597                           ;password.c: 129:                 clcd_print("Password changed",(0x80 + 0));
  6598     048F  3013               	movlw	low (STR_31| (0+32768))
  6599     0490  1283               	bcf	3,5	;RP0=0, select bank0
  6600     0491  1303               	bcf	3,6	;RP1=0, select bank0
  6601     0492  00A0               	movwf	clcd_print@str
  6602     0493  3090               	movlw	high (STR_31| (0+32768))
  6603     0494  00A1               	movwf	clcd_print@str+1
  6604     0495  3080               	movlw	128
  6605     0496  00A2               	movwf	clcd_print@addr
  6606     0497  160A  118A  227C  120A  118A  	fcall	_clcd_print
  6607     049C                     l5493:
  6608                           
  6609                           ;password.c: 130:                 clcd_print("  Succesfully  ",(0xC0 + 0));
  6610     049C  309B               	movlw	low (STR_32| (0+32768))
  6611     049D  1283               	bcf	3,5	;RP0=0, select bank0
  6612     049E  1303               	bcf	3,6	;RP1=0, select bank0
  6613     049F  00A0               	movwf	clcd_print@str
  6614     04A0  3090               	movlw	high (STR_32| (0+32768))
  6615     04A1  00A1               	movwf	clcd_print@str+1
  6616     04A2  30C0               	movlw	192
  6617     04A3  00A2               	movwf	clcd_print@addr
  6618     04A4  160A  118A  227C  120A  118A  	fcall	_clcd_print
  6619     04A9                     l5495:
  6620                           
  6621                           ;password.c: 131:                 _delay((unsigned long)((1000)*(20000000/4000.0)));
  6622     04A9  301A               	movlw	26
  6623     04AA  1283               	bcf	3,5	;RP0=0, select bank0
  6624     04AB  1303               	bcf	3,6	;RP1=0, select bank0
  6625     04AC  00A5               	movwf	??_change_psswd+2
  6626     04AD  305E               	movlw	94
  6627     04AE  00A4               	movwf	??_change_psswd+1
  6628     04AF  306D               	movlw	109
  6629     04B0  00A3               	movwf	??_change_psswd
  6630     04B1                     u6987:
  6631     04B1  0BA3               	decfsz	??_change_psswd,f
  6632     04B2  2CB1               	goto	u6987
  6633     04B3  0BA4               	decfsz	??_change_psswd+1,f
  6634     04B4  2CB1               	goto	u6987
  6635     04B5  0BA5               	decfsz	??_change_psswd+2,f
  6636     04B6  2CB1               	goto	u6987
  6637     04B7  2CB8               	nop2
  6638     04B8                     l5497:
  6639                           
  6640                           ;password.c: 132:                 clear_clcd();
  6641     04B8  160A  158A  26AD  120A  118A  	fcall	_clear_clcd
  6642     04BD  2CF9               	goto	l770
  6643     04BE                     l5503:
  6644                           
  6645                           ;password.c: 136:             {;password.c: 137:                 clear_arr(user);
  6646     04BE  302F               	movlw	(low (change_psswd@user| 0))& (0+255)
  6647     04BF  160A  158A  269B  120A  118A  	fcall	_clear_arr
  6648                           
  6649                           ;password.c: 138:                 clear_arr(confirm);
  6650     04C4  302A               	movlw	(low (change_psswd@confirm| 0))& (0+255)
  6651     04C5  160A  158A  269B  120A  118A  	fcall	_clear_arr
  6652     04CA                     l5505:
  6653                           
  6654                           ;password.c: 139:                 clear_clcd();
  6655     04CA  160A  158A  26AD  120A  118A  	fcall	_clear_clcd
  6656     04CF                     l5507:
  6657                           
  6658                           ;password.c: 140:                 clcd_print("wrong password",(0x80 + 0));
  6659     04CF  30CB               	movlw	low (STR_33| (0+32768))
  6660     04D0  1283               	bcf	3,5	;RP0=0, select bank0
  6661     04D1  1303               	bcf	3,6	;RP1=0, select bank0
  6662     04D2  00A0               	movwf	clcd_print@str
  6663     04D3  3090               	movlw	high (STR_33| (0+32768))
  6664     04D4  00A1               	movwf	clcd_print@str+1
  6665     04D5  3080               	movlw	128
  6666     04D6  00A2               	movwf	clcd_print@addr
  6667     04D7  160A  118A  227C  120A  118A  	fcall	_clcd_print
  6668     04DC                     l5509:
  6669                           
  6670                           ;password.c: 141:                 clcd_print("  try again  ",(0xC0 + 0));
  6671     04DC  30E9               	movlw	low (STR_34| (0+32768))
  6672     04DD  1283               	bcf	3,5	;RP0=0, select bank0
  6673     04DE  1303               	bcf	3,6	;RP1=0, select bank0
  6674     04DF  00A0               	movwf	clcd_print@str
  6675     04E0  3090               	movlw	high (STR_34| (0+32768))
  6676     04E1  00A1               	movwf	clcd_print@str+1
  6677     04E2  30C0               	movlw	192
  6678     04E3  00A2               	movwf	clcd_print@addr
  6679     04E4  160A  118A  227C  120A  118A  	fcall	_clcd_print
  6680     04E9                     l5511:
  6681                           
  6682                           ;password.c: 142:                 _delay((unsigned long)((1000)*(20000000/4000.0)));
  6683     04E9  301A               	movlw	26
  6684     04EA  1283               	bcf	3,5	;RP0=0, select bank0
  6685     04EB  1303               	bcf	3,6	;RP1=0, select bank0
  6686     04EC  00A5               	movwf	??_change_psswd+2
  6687     04ED  305E               	movlw	94
  6688     04EE  00A4               	movwf	??_change_psswd+1
  6689     04EF  306D               	movlw	109
  6690     04F0  00A3               	movwf	??_change_psswd
  6691     04F1                     u6997:
  6692     04F1  0BA3               	decfsz	??_change_psswd,f
  6693     04F2  2CF1               	goto	u6997
  6694     04F3  0BA4               	decfsz	??_change_psswd+1,f
  6695     04F4  2CF1               	goto	u6997
  6696     04F5  0BA5               	decfsz	??_change_psswd+2,f
  6697     04F6  2CF1               	goto	u6997
  6698     04F7  2CF8               	nop2
  6699     04F8  2B13               	goto	l5373
  6700     04F9                     l770:
  6701     04F9  0008               	return
  6702     04FA                     __end_of_change_psswd:
  6703                           
  6704                           	psect	text14
  6705     1F26                     __ptext14:	
  6706 ;; *************** function _write_password *****************
  6707 ;; Defined at:
  6708 ;;		line 151 in file "password.c"
  6709 ;; Parameters:    Size  Location     Type
  6710 ;;  str             1    wreg     PTR unsigned char 
  6711 ;;		 -> change_psswd@user(5), 
  6712 ;; Auto vars:     Size  Location     Type
  6713 ;;  str             1    5[COMMON] PTR unsigned char 
  6714 ;;		 -> change_psswd@user(5), 
  6715 ;;  ind             1    6[COMMON] unsigned char 
  6716 ;; Return value:  Size  Location     Type
  6717 ;;                  1    wreg      void 
  6718 ;; Registers used:
  6719 ;;		wreg, fsr0l, fsr0h, status,2, status,0, btemp+1, pclath, cstack
  6720 ;; Tracked objects:
  6721 ;;		On entry : 0/0
  6722 ;;		On exit  : 0/0
  6723 ;;		Unchanged: 0/0
  6724 ;; Data sizes:     COMMON   BANK0   BANK1   BANK3   BANK2
  6725 ;;      Params:         0       0       0       0       0
  6726 ;;      Locals:         2       0       0       0       0
  6727 ;;      Temps:          0       0       0       0       0
  6728 ;;      Totals:         2       0       0       0       0
  6729 ;;Total ram usage:        2 bytes
  6730 ;; Hardware stack levels used: 1
  6731 ;; Hardware stack levels required when called: 2
  6732 ;; This function calls:
  6733 ;;		_eeprom_write
  6734 ;; This function is called by:
  6735 ;;		_change_psswd
  6736 ;; This function uses a non-reentrant model
  6737 ;;
  6738                           
  6739     1F26                     _write_password:	
  6740                           ;psect for function _write_password
  6741                           
  6742                           
  6743                           ;incstack = 0
  6744                           ; Regs used in _write_password: [wreg-fsr0h+status,2+status,0+btemp+1+pclath+cstack]
  6745                           ;write_password@str stored from wreg
  6746     1F26  00F5               	movwf	write_password@str
  6747     1F27                     l3335:
  6748                           
  6749                           ;password.c: 151: void write_password(unsigned char *str);password.c: 152: {;password.c:
      +                           153:     for(unsigned char ind = 0; ind < 4; ind++)
  6750     1F27  01F6               	clrf	write_password@ind
  6751     1F28                     l3341:
  6752                           
  6753                           ;password.c: 154:     {;password.c: 155:         eeprom_write(ind,*str++);
  6754     1F28  0875               	movf	write_password@str,w
  6755     1F29  0084               	movwf	4
  6756     1F2A  1383               	bcf	3,7	;select IRP bank0
  6757     1F2B  0800               	movf	0,w
  6758     1F2C  00F3               	movwf	eeprom_write@value
  6759     1F2D  0876               	movf	write_password@ind,w
  6760     1F2E  160A  118A  224F  160A  158A  	fcall	_eeprom_write
  6761     1F33                     l3343:
  6762     1F33  3001               	movlw	1
  6763     1F34  00FF               	movwf	btemp+1
  6764     1F35  087F               	movf	btemp+1,w
  6765     1F36  07F5               	addwf	write_password@str,f
  6766     1F37                     l3345:
  6767                           
  6768                           ;password.c: 156:     }
  6769     1F37  3001               	movlw	1
  6770     1F38  00FF               	movwf	btemp+1
  6771     1F39  087F               	movf	btemp+1,w
  6772     1F3A  07F6               	addwf	write_password@ind,f
  6773     1F3B                     l3347:
  6774     1F3B  3004               	movlw	4
  6775     1F3C  0276               	subwf	write_password@ind,w
  6776     1F3D  1C03               	skipc
  6777     1F3E  2F40               	goto	u2751
  6778     1F3F  2F41               	goto	u2750
  6779     1F40                     u2751:
  6780     1F40  2F28               	goto	l3341
  6781     1F41                     u2750:
  6782     1F41                     l778:
  6783     1F41  0008               	return
  6784     1F42                     __end_of_write_password:
  6785                           
  6786                           	psect	text15
  6787     04FA                     __ptext15:	
  6788 ;; *************** function _login *****************
  6789 ;; Defined at:
  6790 ;;		line 13 in file "login.c"
  6791 ;; Parameters:    Size  Location     Type
  6792 ;;		None
  6793 ;; Auto vars:     Size  Location     Type
  6794 ;;  i               1   29[BANK0 ] unsigned char 
  6795 ;;  key             1   28[BANK0 ] unsigned char 
  6796 ;; Return value:  Size  Location     Type
  6797 ;;                  1    wreg      void 
  6798 ;; Registers used:
  6799 ;;		wreg, fsr0l, fsr0h, status,2, status,0, btemp+1, pclath, cstack
  6800 ;; Tracked objects:
  6801 ;;		On entry : 0/0
  6802 ;;		On exit  : 0/0
  6803 ;;		Unchanged: 0/0
  6804 ;; Data sizes:     COMMON   BANK0   BANK1   BANK3   BANK2
  6805 ;;      Params:         0       0       0       0       0
  6806 ;;      Locals:         0       2       0       0       0
  6807 ;;      Temps:          0       4       0       0       0
  6808 ;;      Totals:         0       6       0       0       0
  6809 ;;Total ram usage:        6 bytes
  6810 ;; Hardware stack levels used: 1
  6811 ;; Hardware stack levels required when called: 4
  6812 ;; This function calls:
  6813 ;;		_clcd_print
  6814 ;;		_clcd_putch
  6815 ;;		_clear_arr
  6816 ;;		_clear_clcd
  6817 ;;		_eeprom_read
  6818 ;;		_eeprom_write
  6819 ;;		_my_strcmp
  6820 ;;		_print_sec
  6821 ;;		_read_digital_keypad
  6822 ;; This function is called by:
  6823 ;;		_main
  6824 ;; This function uses a non-reentrant model
  6825 ;;
  6826                           
  6827     04FA                     _login:	
  6828                           ;psect for function _login
  6829                           
  6830     04FA                     l5875:	
  6831                           ;incstack = 0
  6832                           ; Regs used in _login: [wreg-fsr0h+status,2+status,0+btemp+1+pclath+cstack]
  6833                           
  6834                           
  6835                           ;login.c: 16:     static unsigned char blink_flag = 1;;login.c: 17:     static unsigned 
      +                          char passwd_flag = 0;;login.c: 19:     static unsigned char user[5] = {'\0'};;login.c: 2
      +                          0:     static unsigned char blink_pos = 3;;login.c: 21:     static unsigned int index = 
      +                          0;;login.c: 22:     static unsigned int total_attempt = 3;;login.c: 23:     static unsig
      +                          ned int no_attempt_left = 3, attempt = 0;;login.c: 24:     static unsigned int wait = 0;
      +                          ;login.c: 25:     if(!passwd_flag && !passwd_reset)
  6836     04FA  1283               	bcf	3,5	;RP0=0, select bank0
  6837     04FB  1303               	bcf	3,6	;RP1=0, select bank0
  6838     04FC  0860               	movf	login@passwd_flag,w
  6839     04FD  1D03               	btfss	3,2
  6840     04FE  2D00               	goto	u6621
  6841     04FF  2D01               	goto	u6620
  6842     0500                     u6621:
  6843     0500  2D2A               	goto	l5883
  6844     0501                     u6620:
  6845     0501                     l5877:
  6846     0501  0861               	movf	_passwd_reset,w
  6847     0502  1D03               	btfss	3,2
  6848     0503  2D05               	goto	u6631
  6849     0504  2D06               	goto	u6630
  6850     0505                     u6631:
  6851     0505  2D2A               	goto	l5883
  6852     0506                     u6630:
  6853     0506                     l5879:
  6854                           
  6855                           ;login.c: 26:     {;login.c: 27:         passwd_flag = 1;
  6856     0506  01E0               	clrf	login@passwd_flag
  6857     0507  0AE0               	incf	login@passwd_flag,f
  6858                           
  6859                           ;login.c: 28:         passwd_reset = 1;
  6860     0508  01E1               	clrf	_passwd_reset
  6861     0509  0AE1               	incf	_passwd_reset,f
  6862     050A                     l5881:
  6863                           
  6864                           ;login.c: 29:         eeprom_write(0x00,'1');
  6865     050A  3031               	movlw	49
  6866     050B  00F3               	movwf	eeprom_write@value
  6867     050C  3000               	movlw	0
  6868     050D  160A  118A  224F  120A  118A  	fcall	_eeprom_write
  6869                           
  6870                           ;login.c: 30:         eeprom_write(0x01,'0');
  6871     0512  3030               	movlw	48
  6872     0513  00F3               	movwf	eeprom_write@value
  6873     0514  3001               	movlw	1
  6874     0515  160A  118A  224F  120A  118A  	fcall	_eeprom_write
  6875                           
  6876                           ;login.c: 31:         eeprom_write(0x02,'1');
  6877     051A  3031               	movlw	49
  6878     051B  00F3               	movwf	eeprom_write@value
  6879     051C  3002               	movlw	2
  6880     051D  160A  118A  224F  120A  118A  	fcall	_eeprom_write
  6881                           
  6882                           ;login.c: 32:         eeprom_write(0x03,'0');
  6883     0522  3030               	movlw	48
  6884     0523  00F3               	movwf	eeprom_write@value
  6885     0524  3003               	movlw	3
  6886     0525  160A  118A  224F  120A  118A  	fcall	_eeprom_write
  6887     052A                     l5883:
  6888                           
  6889                           ;login.c: 34:     if(passwd_read )
  6890     052A  1283               	bcf	3,5	;RP0=0, select bank0
  6891     052B  1303               	bcf	3,6	;RP1=0, select bank0
  6892     052C  086A               	movf	_passwd_read,w
  6893     052D  1903               	btfsc	3,2
  6894     052E  2D30               	goto	u6641
  6895     052F  2D31               	goto	u6640
  6896     0530                     u6641:
  6897     0530  2D69               	goto	l5903
  6898     0531                     u6640:
  6899     0531                     l5885:
  6900                           
  6901                           ;login.c: 35:     {;login.c: 36:         passwd_read = 0;
  6902     0531  01EA               	clrf	_passwd_read
  6903                           
  6904                           ;login.c: 37:         for(unsigned char i=0; i<4; i++)
  6905     0532  01BD               	clrf	login@i
  6906     0533                     l5891:
  6907                           
  6908                           ;login.c: 38:         {;login.c: 39:             password[i] = eeprom_read(i);
  6909     0533  083D               	movf	login@i,w
  6910     0534  3ED9               	addlw	(low (_password| 0))& (0+255)
  6911     0535  0084               	movwf	4
  6912     0536  083D               	movf	login@i,w
  6913     0537  160A  158A  270F  120A  118A  	fcall	_eeprom_read
  6914     053C  1383               	bcf	3,7	;select IRP bank1
  6915     053D  0080               	movwf	0
  6916     053E                     l5893:
  6917                           
  6918                           ;login.c: 40:         }
  6919     053E  3001               	movlw	1
  6920     053F  00FF               	movwf	btemp+1
  6921     0540  087F               	movf	btemp+1,w
  6922     0541  1283               	bcf	3,5	;RP0=0, select bank0
  6923     0542  1303               	bcf	3,6	;RP1=0, select bank0
  6924     0543  07BD               	addwf	login@i,f
  6925     0544                     l5895:
  6926     0544  3004               	movlw	4
  6927     0545  023D               	subwf	login@i,w
  6928     0546  1C03               	skipc
  6929     0547  2D49               	goto	u6651
  6930     0548  2D4A               	goto	u6650
  6931     0549                     u6651:
  6932     0549  2D33               	goto	l5891
  6933     054A                     u6650:
  6934     054A                     l5897:
  6935                           
  6936                           ;login.c: 41:         clcd_print(password,(0xC0 + 2));
  6937     054A  30D9               	movlw	(low (_password| 0))& (0+255)
  6938     054B  00A0               	movwf	clcd_print@str
  6939     054C  3000               	movlw	0
  6940     054D  00A1               	movwf	clcd_print@str+1
  6941     054E  30C2               	movlw	194
  6942     054F  00A2               	movwf	clcd_print@addr
  6943     0550  160A  118A  227C  120A  118A  	fcall	_clcd_print
  6944     0555                     l5899:
  6945                           
  6946                           ;login.c: 42:         _delay((unsigned long)((1000)*(20000000/4000.0)));
  6947     0555  301A               	movlw	26
  6948     0556  1283               	bcf	3,5	;RP0=0, select bank0
  6949     0557  1303               	bcf	3,6	;RP1=0, select bank0
  6950     0558  00BA               	movwf	??_login+2
  6951     0559  305E               	movlw	94
  6952     055A  00B9               	movwf	??_login+1
  6953     055B  306D               	movlw	109
  6954     055C  00B8               	movwf	??_login
  6955     055D                     u7007:
  6956     055D  0BB8               	decfsz	??_login,f
  6957     055E  2D5D               	goto	u7007
  6958     055F  0BB9               	decfsz	??_login+1,f
  6959     0560  2D5D               	goto	u7007
  6960     0561  0BBA               	decfsz	??_login+2,f
  6961     0562  2D5D               	goto	u7007
  6962     0563  2D64               	nop2
  6963     0564                     l5901:
  6964                           
  6965                           ;login.c: 43:         clear_clcd();
  6966     0564  160A  158A  26AD  120A  118A  	fcall	_clear_clcd
  6967     0569                     l5903:
  6968                           
  6969                           ;login.c: 45:     if(!timer_flag )
  6970     0569  1283               	bcf	3,5	;RP0=0, select bank0
  6971     056A  1303               	bcf	3,6	;RP1=0, select bank0
  6972     056B  0862               	movf	_timer_flag,w
  6973     056C  1D03               	btfss	3,2
  6974     056D  2D6F               	goto	u6661
  6975     056E  2D70               	goto	u6660
  6976     056F                     u6661:
  6977     056F  2E81               	goto	l5983
  6978     0570                     u6660:
  6979     0570                     l5905:
  6980                           
  6981                           ;login.c: 46:     {;login.c: 47:     unsigned char key = read_digital_keypad(1);
  6982     0570  3001               	movlw	1
  6983     0571  160A  118A  2178  120A  118A  	fcall	_read_digital_keypad
  6984     0576  1283               	bcf	3,5	;RP0=0, select bank0
  6985     0577  1303               	bcf	3,6	;RP1=0, select bank0
  6986     0578  00BC               	movwf	login@key
  6987     0579                     l5907:
  6988                           
  6989                           ;login.c: 48:     clcd_print(" Enter Password ",(0x80 + 0));
  6990     0579  3079               	movlw	low (STR_11| (0+32768))
  6991     057A  00A0               	movwf	clcd_print@str
  6992     057B  3090               	movlw	high (STR_11| (0+32768))
  6993     057C  00A1               	movwf	clcd_print@str+1
  6994     057D  3080               	movlw	128
  6995     057E  00A2               	movwf	clcd_print@addr
  6996     057F  160A  118A  227C  120A  118A  	fcall	_clcd_print
  6997     0584                     l5909:
  6998                           
  6999                           ;login.c: 49:     if(++wait == 5)
  7000     0584  3001               	movlw	1
  7001     0585  1683               	bsf	3,5	;RP0=1, select bank1
  7002     0586  1303               	bcf	3,6	;RP1=0, select bank1
  7003     0587  07C2               	addwf	login@wait^(0+128),f
  7004     0588  1803               	skipnc
  7005     0589  0AC3               	incf	(login@wait+1)^(0+128),f
  7006     058A  3000               	movlw	0
  7007     058B  07C3               	addwf	(login@wait+1)^(0+128),f
  7008     058C  3005               	movlw	5
  7009     058D  0642               	xorwf	login@wait^(0+128),w
  7010     058E  0443               	iorwf	(login@wait+1)^(0+128),w
  7011     058F  1D03               	btfss	3,2
  7012     0590  2D92               	goto	u6671
  7013     0591  2D93               	goto	u6670
  7014     0592                     u6671:
  7015     0592  2DBE               	goto	l5927
  7016     0593                     u6670:
  7017     0593                     l5911:
  7018                           
  7019                           ;login.c: 50:     {;login.c: 51:         wait = 0;
  7020     0593  01C2               	clrf	login@wait^(0+128)
  7021     0594  01C3               	clrf	(login@wait+1)^(0+128)
  7022     0595                     l5913:
  7023                           
  7024                           ;login.c: 52:         if(blink_flag == 1)
  7025     0595  1283               	bcf	3,5	;RP0=0, select bank0
  7026     0596  1303               	bcf	3,6	;RP1=0, select bank0
  7027     0597  0369               	decf	login@blink_flag,w
  7028     0598  1D03               	btfss	3,2
  7029     0599  2D9B               	goto	u6681
  7030     059A  2D9C               	goto	u6680
  7031     059B                     u6681:
  7032     059B  2DA9               	goto	l5919
  7033     059C                     u6680:
  7034     059C                     l5915:
  7035                           
  7036                           ;login.c: 53:         {;login.c: 54:             clcd_putch(' ',(0xC0 + blink_pos));
  7037     059C  0868               	movf	login@blink_pos,w
  7038     059D  3EC0               	addlw	192
  7039     059E  00F7               	movwf	clcd_putch@addr
  7040     059F  3020               	movlw	32
  7041     05A0  160A  158A  26FA  120A  118A  	fcall	_clcd_putch
  7042     05A5                     l5917:
  7043                           
  7044                           ;login.c: 55:             blink_flag = 0;
  7045     05A5  1283               	bcf	3,5	;RP0=0, select bank0
  7046     05A6  1303               	bcf	3,6	;RP1=0, select bank0
  7047     05A7  01E9               	clrf	login@blink_flag
  7048                           
  7049                           ;login.c: 56:         }
  7050     05A8  2DBE               	goto	l5927
  7051     05A9                     l5919:
  7052     05A9  0869               	movf	login@blink_flag,w
  7053     05AA  1D03               	btfss	3,2
  7054     05AB  2DAD               	goto	u6691
  7055     05AC  2DAE               	goto	u6690
  7056     05AD                     u6691:
  7057     05AD  2DBC               	goto	l5925
  7058     05AE                     u6690:
  7059     05AE                     l5921:
  7060                           
  7061                           ;login.c: 58:         {;login.c: 59:             clcd_putch(0xFF,(0xC0 + blink_pos));
  7062     05AE  0868               	movf	login@blink_pos,w
  7063     05AF  3EC0               	addlw	192
  7064     05B0  00F7               	movwf	clcd_putch@addr
  7065     05B1  30FF               	movlw	255
  7066     05B2  160A  158A  26FA  120A  118A  	fcall	_clcd_putch
  7067     05B7                     l5923:
  7068                           
  7069                           ;login.c: 60:             blink_flag = 1;
  7070     05B7  1283               	bcf	3,5	;RP0=0, select bank0
  7071     05B8  1303               	bcf	3,6	;RP1=0, select bank0
  7072     05B9  01E9               	clrf	login@blink_flag
  7073     05BA  0AE9               	incf	login@blink_flag,f
  7074                           
  7075                           ;login.c: 61:         }
  7076     05BB  2DBE               	goto	l5927
  7077     05BC                     l5925:
  7078                           
  7079                           ;login.c: 63:         {;login.c: 64:             blink_flag = 2;
  7080     05BC  3002               	movlw	2
  7081     05BD  00E9               	movwf	login@blink_flag
  7082     05BE                     l5927:
  7083                           
  7084                           ;login.c: 67:     if(key == 0x37)
  7085     05BE  3037               	movlw	55
  7086     05BF  1283               	bcf	3,5	;RP0=0, select bank0
  7087     05C0  063C               	xorwf	login@key,w
  7088     05C1  1D03               	btfss	3,2
  7089     05C2  2DC4               	goto	u6701
  7090     05C3  2DC5               	goto	u6700
  7091     05C4                     u6701:
  7092     05C4  2DEA               	goto	l5939
  7093     05C5                     u6700:
  7094     05C5                     l5929:
  7095                           
  7096                           ;login.c: 68:     {;login.c: 69:         if(index < 4)
  7097     05C5  3000               	movlw	0
  7098     05C6  025A               	subwf	login@index+1,w
  7099     05C7  3004               	movlw	4
  7100     05C8  1903               	skipnz
  7101     05C9  0259               	subwf	login@index,w
  7102     05CA  1803               	skipnc
  7103     05CB  2DCD               	goto	u6711
  7104     05CC  2DCE               	goto	u6710
  7105     05CD                     u6711:
  7106     05CD  2E09               	goto	l5951
  7107     05CE                     u6710:
  7108     05CE                     l5931:
  7109                           
  7110                           ;login.c: 70:         {;login.c: 71:             user[index] = '0';
  7111     05CE  0859               	movf	login@index,w
  7112     05CF  3ED4               	addlw	(low (login@user| 0))& (0+255)
  7113     05D0  0084               	movwf	4
  7114     05D1  3030               	movlw	48
  7115     05D2  1383               	bcf	3,7	;select IRP bank1
  7116     05D3  0080               	movwf	0
  7117     05D4                     l5933:
  7118                           
  7119                           ;login.c: 72:             clcd_putch('*',(0xC0 + blink_pos));
  7120     05D4  0868               	movf	login@blink_pos,w
  7121     05D5  3EC0               	addlw	192
  7122     05D6  00F7               	movwf	clcd_putch@addr
  7123     05D7  302A               	movlw	42
  7124     05D8  160A  158A  26FA  120A  118A  	fcall	_clcd_putch
  7125     05DD                     l5935:
  7126                           
  7127                           ;login.c: 73:             index++;
  7128     05DD  3001               	movlw	1
  7129     05DE  1283               	bcf	3,5	;RP0=0, select bank0
  7130     05DF  1303               	bcf	3,6	;RP1=0, select bank0
  7131     05E0  07D9               	addwf	login@index,f
  7132     05E1  1803               	skipnc
  7133     05E2  0ADA               	incf	login@index+1,f
  7134     05E3  3000               	movlw	0
  7135     05E4  07DA               	addwf	login@index+1,f
  7136     05E5                     l5937:
  7137                           
  7138                           ;login.c: 74:             blink_pos++;
  7139     05E5  3001               	movlw	1
  7140     05E6  00FF               	movwf	btemp+1
  7141     05E7  087F               	movf	btemp+1,w
  7142     05E8  07E8               	addwf	login@blink_pos,f
  7143     05E9  2E09               	goto	l5951
  7144     05EA                     l5939:
  7145     05EA  302F               	movlw	47
  7146     05EB  063C               	xorwf	login@key,w
  7147     05EC  1D03               	btfss	3,2
  7148     05ED  2DEF               	goto	u6721
  7149     05EE  2DF0               	goto	u6720
  7150     05EF                     u6721:
  7151     05EF  2E09               	goto	l5951
  7152     05F0                     u6720:
  7153     05F0                     l5941:
  7154                           
  7155                           ;login.c: 78:     {;login.c: 79:         if(index < 4)
  7156     05F0  3000               	movlw	0
  7157     05F1  025A               	subwf	login@index+1,w
  7158     05F2  3004               	movlw	4
  7159     05F3  1903               	skipnz
  7160     05F4  0259               	subwf	login@index,w
  7161     05F5  1803               	skipnc
  7162     05F6  2DF8               	goto	u6731
  7163     05F7  2DF9               	goto	u6730
  7164     05F8                     u6731:
  7165     05F8  2E09               	goto	l5951
  7166     05F9                     u6730:
  7167     05F9                     l5943:
  7168                           
  7169                           ;login.c: 80:         {;login.c: 81:             user[index] = '1';
  7170     05F9  0859               	movf	login@index,w
  7171     05FA  3ED4               	addlw	(low (login@user| 0))& (0+255)
  7172     05FB  0084               	movwf	4
  7173     05FC  3031               	movlw	49
  7174     05FD  1383               	bcf	3,7	;select IRP bank1
  7175     05FE  0080               	movwf	0
  7176     05FF                     l5945:
  7177                           
  7178                           ;login.c: 82:             clcd_putch('*',(0xC0 + blink_pos));
  7179     05FF  0868               	movf	login@blink_pos,w
  7180     0600  3EC0               	addlw	192
  7181     0601  00F7               	movwf	clcd_putch@addr
  7182     0602  302A               	movlw	42
  7183     0603  160A  158A  26FA  120A  118A  	fcall	_clcd_putch
  7184     0608  2DDD               	goto	l5935
  7185     0609                     l5951:
  7186                           
  7187                           ;login.c: 88:     if(index > 3)
  7188     0609  3000               	movlw	0
  7189     060A  025A               	subwf	login@index+1,w
  7190     060B  3004               	movlw	4
  7191     060C  1903               	skipnz
  7192     060D  0259               	subwf	login@index,w
  7193     060E  1C03               	skipc
  7194     060F  2E11               	goto	u6741
  7195     0610  2E12               	goto	u6740
  7196     0611                     u6741:
  7197     0611  2EF9               	goto	l331
  7198     0612                     u6740:
  7199     0612                     l5953:
  7200                           
  7201                           ;login.c: 89:     {;login.c: 90:        blink_pos = 3;
  7202     0612  3003               	movlw	3
  7203     0613  00E8               	movwf	login@blink_pos
  7204     0614                     l5955:
  7205                           
  7206                           ;login.c: 91:        index = 0;
  7207     0614  01D9               	clrf	login@index
  7208     0615  01DA               	clrf	login@index+1
  7209     0616                     l5957:
  7210                           
  7211                           ;login.c: 92:        no_attempt_left--;
  7212     0616  3001               	movlw	1
  7213     0617  1683               	bsf	3,5	;RP0=1, select bank1
  7214     0618  1303               	bcf	3,6	;RP1=0, select bank1
  7215     0619  02E8               	subwf	login@no_attempt_left^(0+128),f
  7216     061A  3000               	movlw	0
  7217     061B  1C03               	skipc
  7218     061C  03E9               	decf	(login@no_attempt_left+1)^(0+128),f
  7219     061D  02E9               	subwf	(login@no_attempt_left+1)^(0+128),f
  7220     061E                     l5959:
  7221                           
  7222                           ;login.c: 93:        attempt++;
  7223     061E  3001               	movlw	1
  7224     061F  07C4               	addwf	login@attempt^(0+128),f
  7225     0620  1803               	skipnc
  7226     0621  0AC5               	incf	(login@attempt+1)^(0+128),f
  7227     0622  3000               	movlw	0
  7228     0623  07C5               	addwf	(login@attempt+1)^(0+128),f
  7229     0624                     l5961:
  7230                           
  7231                           ;login.c: 94:        if(my_strcmp(user,password) == 0)
  7232     0624  30D9               	movlw	(low (_password| 0))& (0+255)
  7233     0625  00F3               	movwf	my_strcmp@str2
  7234     0626  30D4               	movlw	(low (login@user| 0))& (0+255)
  7235     0627  160A  118A  23D5  120A  118A  	fcall	_my_strcmp
  7236     062C  0873               	movf	?_my_strcmp,w
  7237     062D  0474               	iorwf	?_my_strcmp+1,w
  7238     062E  1D03               	btfss	3,2
  7239     062F  2E31               	goto	u6751
  7240     0630  2E32               	goto	u6750
  7241     0631                     u6751:
  7242     0631  2E3C               	goto	l5967
  7243     0632                     u6750:
  7244     0632                     l5963:
  7245                           
  7246                           ;login.c: 95:        {;login.c: 96:            pwd_success = 1;
  7247     0632  1283               	bcf	3,5	;RP0=0, select bank0
  7248     0633  1303               	bcf	3,6	;RP1=0, select bank0
  7249     0634  01E4               	clrf	_pwd_success
  7250     0635  0AE4               	incf	_pwd_success,f
  7251     0636                     l5965:
  7252                           
  7253                           ;login.c: 97:            clear_clcd();
  7254     0636  160A  158A  26AD  120A  118A  	fcall	_clear_clcd
  7255                           
  7256                           ;login.c: 101:        }
  7257     063B  2EF9               	goto	l331
  7258     063C                     l5967:
  7259                           
  7260                           ;login.c: 103:        {;login.c: 104:            clear_arr(user);
  7261     063C  30D4               	movlw	(low (login@user| 0))& (0+255)
  7262     063D  160A  158A  269B  120A  118A  	fcall	_clear_arr
  7263     0642                     l5969:
  7264                           
  7265                           ;login.c: 105:            clear_clcd();
  7266     0642  160A  158A  26AD  120A  118A  	fcall	_clear_clcd
  7267     0647                     l5971:
  7268                           
  7269                           ;login.c: 106:            clcd_print("attempts left ",(0x80 + 0));
  7270     0647  30DA               	movlw	low (STR_12| (0+32768))
  7271     0648  1283               	bcf	3,5	;RP0=0, select bank0
  7272     0649  1303               	bcf	3,6	;RP1=0, select bank0
  7273     064A  00A0               	movwf	clcd_print@str
  7274     064B  3090               	movlw	high (STR_12| (0+32768))
  7275     064C  00A1               	movwf	clcd_print@str+1
  7276     064D  3080               	movlw	128
  7277     064E  00A2               	movwf	clcd_print@addr
  7278     064F  160A  118A  227C  120A  118A  	fcall	_clcd_print
  7279                           
  7280                           ;login.c: 107:            clcd_putch(no_attempt_left+48 ,(0xC0 + 2));
  7281     0654  30C2               	movlw	194
  7282     0655  00F7               	movwf	clcd_putch@addr
  7283     0656  1683               	bsf	3,5	;RP0=1, select bank1
  7284     0657  1303               	bcf	3,6	;RP1=0, select bank1
  7285     0658  0868               	movf	login@no_attempt_left^(0+128),w
  7286     0659  3E30               	addlw	48
  7287     065A  160A  158A  26FA  120A  118A  	fcall	_clcd_putch
  7288     065F                     l5973:
  7289                           
  7290                           ;login.c: 108:            _delay((unsigned long)((1000)*(20000000/4000.0)));
  7291     065F  301A               	movlw	26
  7292     0660  1283               	bcf	3,5	;RP0=0, select bank0
  7293     0661  1303               	bcf	3,6	;RP1=0, select bank0
  7294     0662  00BA               	movwf	??_login+2
  7295     0663  305E               	movlw	94
  7296     0664  00B9               	movwf	??_login+1
  7297     0665  306D               	movlw	109
  7298     0666  00B8               	movwf	??_login
  7299     0667                     u7017:
  7300     0667  0BB8               	decfsz	??_login,f
  7301     0668  2E67               	goto	u7017
  7302     0669  0BB9               	decfsz	??_login+1,f
  7303     066A  2E67               	goto	u7017
  7304     066B  0BBA               	decfsz	??_login+2,f
  7305     066C  2E67               	goto	u7017
  7306     066D  2E6E               	nop2
  7307     066E                     l5975:
  7308                           
  7309                           ;login.c: 110:            clear_clcd();
  7310     066E  160A  158A  26AD  120A  118A  	fcall	_clear_clcd
  7311     0673                     l5977:
  7312                           
  7313                           ;login.c: 111:            if(no_attempt_left == 0)
  7314     0673  1683               	bsf	3,5	;RP0=1, select bank1
  7315     0674  1303               	bcf	3,6	;RP1=0, select bank1
  7316     0675  0868               	movf	login@no_attempt_left^(0+128),w
  7317     0676  0469               	iorwf	(login@no_attempt_left+1)^(0+128),w
  7318     0677  1D03               	btfss	3,2
  7319     0678  2E7A               	goto	u6761
  7320     0679  2E7B               	goto	u6760
  7321     067A                     u6761:
  7322     067A  2E80               	goto	l324
  7323     067B                     u6760:
  7324     067B                     l5979:
  7325                           
  7326                           ;login.c: 112:            {;login.c: 114:                timer_flag = 1;
  7327     067B  1283               	bcf	3,5	;RP0=0, select bank0
  7328     067C  1303               	bcf	3,6	;RP1=0, select bank0
  7329     067D  01E2               	clrf	_timer_flag
  7330     067E  0AE2               	incf	_timer_flag,f
  7331     067F  2E36               	goto	l5965
  7332     0680                     l324:	
  7333                           ;login.c: 121:     }
  7334                           
  7335                           
  7336                           ;login.c: 122:     }
  7337     0680  2EF9               	goto	l331
  7338     0681                     l5983:
  7339                           
  7340                           ;login.c: 124:     {;login.c: 126:         clcd_print("Re Enter Passwd ",(0x80 + 0));
  7341     0681  308A               	movlw	low (STR_13| (0+32768))
  7342     0682  00A0               	movwf	clcd_print@str
  7343     0683  3090               	movlw	high (STR_13| (0+32768))
  7344     0684  00A1               	movwf	clcd_print@str+1
  7345     0685  3080               	movlw	128
  7346     0686  00A2               	movwf	clcd_print@addr
  7347     0687  160A  118A  227C  120A  118A  	fcall	_clcd_print
  7348                           
  7349                           ;login.c: 127:         clcd_print("Wait for ",(0xC0 + 0));
  7350     068C  3033               	movlw	low (STR_14| (0+32768))
  7351     068D  1283               	bcf	3,5	;RP0=0, select bank0
  7352     068E  1303               	bcf	3,6	;RP1=0, select bank0
  7353     068F  00A0               	movwf	clcd_print@str
  7354     0690  3091               	movlw	high (STR_14| (0+32768))
  7355     0691  00A1               	movwf	clcd_print@str+1
  7356     0692  30C0               	movlw	192
  7357     0693  00A2               	movwf	clcd_print@addr
  7358     0694  160A  118A  227C  120A  118A  	fcall	_clcd_print
  7359     0699                     l5985:
  7360                           
  7361                           ;login.c: 128:         if(count2 == 180)
  7362     0699  30B4               	movlw	180
  7363     069A  1683               	bsf	3,5	;RP0=1, select bank1
  7364     069B  1303               	bcf	3,6	;RP1=0, select bank1
  7365     069C  0632               	xorwf	_count2^(0+128),w
  7366     069D  0433               	iorwf	(_count2+1)^(0+128),w
  7367     069E  0434               	iorwf	(_count2+2)^(0+128),w
  7368     069F  0435               	iorwf	(_count2+3)^(0+128),w
  7369     06A0  1D03               	btfss	3,2
  7370     06A1  2EA3               	goto	u6771
  7371     06A2  2EA4               	goto	u6770
  7372     06A3                     u6771:
  7373     06A3  2EBA               	goto	l5995
  7374     06A4                     u6770:
  7375     06A4                     l5987:
  7376                           
  7377                           ;login.c: 129:         {;login.c: 130:             count2 = 0;
  7378     06A4  3000               	movlw	0
  7379     06A5  1683               	bsf	3,5	;RP0=1, select bank1
  7380     06A6  1303               	bcf	3,6	;RP1=0, select bank1
  7381     06A7  00B5               	movwf	(_count2+3)^(0+128)
  7382     06A8  3000               	movlw	0
  7383     06A9  00B4               	movwf	(_count2+2)^(0+128)
  7384     06AA  3000               	movlw	0
  7385     06AB  00B3               	movwf	(_count2+1)^(0+128)
  7386     06AC  3000               	movlw	0
  7387     06AD  00B2               	movwf	_count2^(0+128)
  7388     06AE                     l5989:
  7389                           
  7390                           ;login.c: 131:             timer_flag = 0;
  7391     06AE  1283               	bcf	3,5	;RP0=0, select bank0
  7392     06AF  1303               	bcf	3,6	;RP1=0, select bank0
  7393     06B0  01E2               	clrf	_timer_flag
  7394     06B1                     l5991:
  7395                           
  7396                           ;login.c: 132:             no_attempt_left = 3;
  7397     06B1  3003               	movlw	3
  7398     06B2  1683               	bsf	3,5	;RP0=1, select bank1
  7399     06B3  1303               	bcf	3,6	;RP1=0, select bank1
  7400     06B4  00E8               	movwf	login@no_attempt_left^(0+128)
  7401     06B5  3000               	movlw	0
  7402     06B6  00E9               	movwf	(login@no_attempt_left^(0+128)+1)
  7403                           
  7404                           ;login.c: 133:             attempt = 0;
  7405     06B7  01C4               	clrf	login@attempt^(0+128)
  7406     06B8  01C5               	clrf	(login@attempt+1)^(0+128)
  7407     06B9  2E36               	goto	l5965
  7408     06BA                     l5995:
  7409                           
  7410                           ;login.c: 138:         {;login.c: 140:             print_sec((unsigned)180 - count2);
  7411     06BA  30B4               	movlw	180
  7412     06BB  1283               	bcf	3,5	;RP0=0, select bank0
  7413     06BC  1303               	bcf	3,6	;RP1=0, select bank0
  7414     06BD  00B8               	movwf	??_login
  7415     06BE  3000               	movlw	0
  7416     06BF  00B9               	movwf	??_login+1
  7417     06C0  3000               	movlw	0
  7418     06C1  00BA               	movwf	??_login+2
  7419     06C2  3000               	movlw	0
  7420     06C3  00BB               	movwf	??_login+3
  7421     06C4  1683               	bsf	3,5	;RP0=1, select bank1
  7422     06C5  1303               	bcf	3,6	;RP1=0, select bank1
  7423     06C6  0832               	movf	_count2^(0+128),w
  7424     06C7  1283               	bcf	3,5	;RP0=0, select bank0
  7425     06C8  1303               	bcf	3,6	;RP1=0, select bank0
  7426     06C9  02B8               	subwf	??_login,f
  7427     06CA  1683               	bsf	3,5	;RP0=1, select bank1
  7428     06CB  1303               	bcf	3,6	;RP1=0, select bank1
  7429     06CC  0833               	movf	(_count2+1)^(0+128),w
  7430     06CD  1C03               	skipc
  7431     06CE  0F33               	incfsz	(_count2+1)^(0+128),w
  7432     06CF  2ED1               	goto	u6781
  7433     06D0  2ED4               	goto	u6782
  7434     06D1                     u6781:
  7435     06D1  1283               	bcf	3,5	;RP0=0, select bank0
  7436     06D2  1303               	bcf	3,6	;RP1=0, select bank0
  7437     06D3  02B9               	subwf	??_login+1,f
  7438     06D4                     u6782:
  7439     06D4  1683               	bsf	3,5	;RP0=1, select bank1
  7440     06D5  1303               	bcf	3,6	;RP1=0, select bank1
  7441     06D6  0834               	movf	(_count2+2)^(0+128),w
  7442     06D7  1C03               	skipc
  7443     06D8  0F34               	incfsz	(_count2+2)^(0+128),w
  7444     06D9  2EDB               	goto	u6783
  7445     06DA  2EDE               	goto	u6784
  7446     06DB                     u6783:
  7447     06DB  1283               	bcf	3,5	;RP0=0, select bank0
  7448     06DC  1303               	bcf	3,6	;RP1=0, select bank0
  7449     06DD  02BA               	subwf	??_login+2,f
  7450     06DE                     u6784:
  7451     06DE  1683               	bsf	3,5	;RP0=1, select bank1
  7452     06DF  1303               	bcf	3,6	;RP1=0, select bank1
  7453     06E0  0835               	movf	(_count2+3)^(0+128),w
  7454     06E1  1C03               	skipc
  7455     06E2  0F35               	incfsz	(_count2+3)^(0+128),w
  7456     06E3  2EE5               	goto	u6785
  7457     06E4  2EE8               	goto	u6786
  7458     06E5                     u6785:
  7459     06E5  1283               	bcf	3,5	;RP0=0, select bank0
  7460     06E6  1303               	bcf	3,6	;RP1=0, select bank0
  7461     06E7  02BB               	subwf	??_login+3,f
  7462     06E8                     u6786:
  7463     06E8  1683               	bsf	3,5	;RP0=1, select bank1
  7464     06E9  1303               	bcf	3,6	;RP1=0, select bank1
  7465     06EA  1283               	bcf	3,5	;RP0=0, select bank0
  7466     06EB  1303               	bcf	3,6	;RP1=0, select bank0
  7467     06EC  083B               	movf	??_login+3,w
  7468     06ED  00B0               	movwf	print_sec@count+3
  7469     06EE  083A               	movf	??_login+2,w
  7470     06EF  00AF               	movwf	print_sec@count+2
  7471     06F0  0839               	movf	??_login+1,w
  7472     06F1  00AE               	movwf	print_sec@count+1
  7473     06F2  0838               	movf	??_login,w
  7474     06F3  00AD               	movwf	print_sec@count
  7475     06F4  120A  158A  204C  120A  118A  	fcall	_print_sec
  7476     06F9                     l331:
  7477     06F9  0008               	return
  7478     06FA                     __end_of_login:
  7479                           
  7480                           	psect	text16
  7481     1178                     __ptext16:	
  7482 ;; *************** function _read_digital_keypad *****************
  7483 ;; Defined at:
  7484 ;;		line 10 in file "digital_keypad.c"
  7485 ;; Parameters:    Size  Location     Type
  7486 ;;  mode            1    wreg     unsigned char 
  7487 ;; Auto vars:     Size  Location     Type
  7488 ;;  mode            1    4[COMMON] unsigned char 
  7489 ;; Return value:  Size  Location     Type
  7490 ;;                  1    wreg      unsigned char 
  7491 ;; Registers used:
  7492 ;;		wreg, status,2, status,0
  7493 ;; Tracked objects:
  7494 ;;		On entry : 0/0
  7495 ;;		On exit  : 0/0
  7496 ;;		Unchanged: 0/0
  7497 ;; Data sizes:     COMMON   BANK0   BANK1   BANK3   BANK2
  7498 ;;      Params:         0       0       0       0       0
  7499 ;;      Locals:         1       0       0       0       0
  7500 ;;      Temps:          1       0       0       0       0
  7501 ;;      Totals:         2       0       0       0       0
  7502 ;;Total ram usage:        2 bytes
  7503 ;; Hardware stack levels used: 1
  7504 ;; Hardware stack levels required when called: 1
  7505 ;; This function calls:
  7506 ;;		Nothing
  7507 ;; This function is called by:
  7508 ;;		_main
  7509 ;;		_login
  7510 ;;		_menu
  7511 ;;		_view_logs
  7512 ;;		_set_time
  7513 ;;		_change_psswd
  7514 ;; This function uses a non-reentrant model
  7515 ;;
  7516                           
  7517     1178                     _read_digital_keypad:	
  7518                           ;psect for function _read_digital_keypad
  7519                           
  7520                           
  7521                           ;incstack = 0
  7522                           ; Regs used in _read_digital_keypad: [wreg+status,2+status,0]
  7523                           ;read_digital_keypad@mode stored from wreg
  7524     1178  00F4               	movwf	read_digital_keypad@mode
  7525     1179                     l3183:
  7526                           
  7527                           ;digital_keypad.c: 10: unsigned char read_digital_keypad(unsigned char mode);digital_key
      +                          pad.c: 11: {;digital_keypad.c: 12:     static unsigned char once = 1;;digital_keypad.c: 
      +                          14:     if (mode == 0)
  7528     1179  0874               	movf	read_digital_keypad@mode,w
  7529     117A  1D03               	btfss	3,2
  7530     117B  297D               	goto	u2551
  7531     117C  297E               	goto	u2550
  7532     117D                     u2551:
  7533     117D  2983               	goto	l3191
  7534     117E                     u2550:
  7535     117E                     l3185:
  7536                           
  7537                           ;digital_keypad.c: 15:     {;digital_keypad.c: 16:         return PORTB & 0x3F;
  7538     117E  1283               	bcf	3,5	;RP0=0, select bank0
  7539     117F  1303               	bcf	3,6	;RP1=0, select bank0
  7540     1180  0806               	movf	6,w	;volatile
  7541     1181  393F               	andlw	63
  7542     1182  29A1               	goto	l48
  7543     1183                     l3191:
  7544                           
  7545                           ;digital_keypad.c: 19:     {;digital_keypad.c: 20:         if (((PORTB & 0x3F) != 0x3F) 
      +                          && once)
  7546     1183  303F               	movlw	63
  7547     1184  1283               	bcf	3,5	;RP0=0, select bank0
  7548     1185  1303               	bcf	3,6	;RP1=0, select bank0
  7549     1186  0506               	andwf	6,w	;volatile
  7550     1187  00F3               	movwf	??_read_digital_keypad
  7551     1188  303F               	movlw	63
  7552     1189  0673               	xorwf	??_read_digital_keypad,w
  7553     118A  1903               	btfsc	3,2
  7554     118B  298D               	goto	u2561
  7555     118C  298E               	goto	u2560
  7556     118D                     u2561:
  7557     118D  2995               	goto	l3203
  7558     118E                     u2560:
  7559     118E                     l3193:
  7560     118E  0879               	movf	read_digital_keypad@once,w
  7561     118F  1903               	btfsc	3,2
  7562     1190  2992               	goto	u2571
  7563     1191  2993               	goto	u2570
  7564     1192                     u2571:
  7565     1192  2995               	goto	l3203
  7566     1193                     u2570:
  7567     1193                     l3195:
  7568                           
  7569                           ;digital_keypad.c: 21:         {;digital_keypad.c: 22:             once = 0;
  7570     1193  01F9               	clrf	read_digital_keypad@once
  7571     1194  297E               	goto	l3185
  7572     1195                     l3203:
  7573     1195  303F               	movlw	63
  7574     1196  0506               	andwf	6,w	;volatile
  7575     1197  00F3               	movwf	??_read_digital_keypad
  7576     1198  303F               	movlw	63
  7577     1199  0673               	xorwf	??_read_digital_keypad,w
  7578     119A  1D03               	btfss	3,2
  7579     119B  299D               	goto	u2581
  7580     119C  299E               	goto	u2580
  7581     119D                     u2581:
  7582     119D  29A0               	goto	l3207
  7583     119E                     u2580:
  7584     119E                     l3205:
  7585                           
  7586                           ;digital_keypad.c: 27:         {;digital_keypad.c: 28:             once = 1;
  7587     119E  01F9               	clrf	read_digital_keypad@once
  7588     119F  0AF9               	incf	read_digital_keypad@once,f
  7589     11A0                     l3207:
  7590                           
  7591                           ;digital_keypad.c: 32:     return 0x3F;
  7592     11A0  303F               	movlw	63
  7593     11A1                     l48:
  7594     11A1  0008               	return
  7595     11A2                     __end_of_read_digital_keypad:
  7596                           
  7597                           	psect	text17
  7598     084C                     __ptext17:	
  7599 ;; *************** function _print_sec *****************
  7600 ;; Defined at:
  7601 ;;		line 168 in file "login.c"
  7602 ;; Parameters:    Size  Location     Type
  7603 ;;  count           4   13[BANK0 ] unsigned long 
  7604 ;; Auto vars:     Size  Location     Type
  7605 ;;  i               2   22[BANK0 ] int 
  7606 ;;  sec             4   17[BANK0 ] unsigned char [4]
  7607 ;;  pos             1   21[BANK0 ] unsigned char 
  7608 ;; Return value:  Size  Location     Type
  7609 ;;                  1    wreg      void 
  7610 ;; Registers used:
  7611 ;;		wreg, fsr0l, fsr0h, status,2, status,0, btemp+1, pclath, cstack
  7612 ;; Tracked objects:
  7613 ;;		On entry : 0/0
  7614 ;;		On exit  : 0/0
  7615 ;;		Unchanged: 0/0
  7616 ;; Data sizes:     COMMON   BANK0   BANK1   BANK3   BANK2
  7617 ;;      Params:         0       4       0       0       0
  7618 ;;      Locals:         0       7       0       0       0
  7619 ;;      Temps:          0       0       0       0       0
  7620 ;;      Totals:         0      11       0       0       0
  7621 ;;Total ram usage:       11 bytes
  7622 ;; Hardware stack levels used: 1
  7623 ;; Hardware stack levels required when called: 3
  7624 ;; This function calls:
  7625 ;;		___lldiv
  7626 ;;		___llmod
  7627 ;;		_clcd_print
  7628 ;; This function is called by:
  7629 ;;		_login
  7630 ;; This function uses a non-reentrant model
  7631 ;;
  7632                           
  7633     084C                     _print_sec:	
  7634                           ;psect for function _print_sec
  7635                           
  7636     084C                     l5085:	
  7637                           ;incstack = 0
  7638                           ; Regs used in _print_sec: [wreg-fsr0h+status,2+status,0+btemp+1+pclath+cstack]
  7639                           
  7640                           
  7641                           ;login.c: 168: void print_sec(unsigned long int count);login.c: 169: {;login.c: 170:    
      +                           unsigned char pos = 9;
  7642     084C  3009               	movlw	9
  7643     084D  1283               	bcf	3,5	;RP0=0, select bank0
  7644     084E  1303               	bcf	3,6	;RP1=0, select bank0
  7645     084F  00B5               	movwf	print_sec@pos
  7646                           
  7647                           ;login.c: 171:     unsigned char sec[4] = {'\0'};
  7648     0850  3000               	movlw	0
  7649     0851  00B4               	movwf	print_sec@sec+3
  7650     0852  3000               	movlw	0
  7651     0853  00B3               	movwf	print_sec@sec+2
  7652     0854  3000               	movlw	0
  7653     0855  00B2               	movwf	print_sec@sec+1
  7654     0856  3000               	movlw	0
  7655     0857  00B1               	movwf	print_sec@sec
  7656                           
  7657                           ;login.c: 172:     for(int i=2;i>=0 ; i--)
  7658     0858  3002               	movlw	2
  7659     0859  00B6               	movwf	print_sec@i
  7660     085A  3000               	movlw	0
  7661     085B  00B7               	movwf	print_sec@i+1
  7662     085C                     l5091:
  7663                           
  7664                           ;login.c: 173:     {;login.c: 174:         sec[i] = (count%10)+48;
  7665     085C  0836               	movf	print_sec@i,w
  7666     085D  3E31               	addlw	(low (print_sec@sec| 0))& (0+255)
  7667     085E  0084               	movwf	4
  7668     085F  3000               	movlw	0
  7669     0860  00A3               	movwf	___llmod@divisor+3
  7670     0861  3000               	movlw	0
  7671     0862  00A2               	movwf	___llmod@divisor+2
  7672     0863  3000               	movlw	0
  7673     0864  00A1               	movwf	___llmod@divisor+1
  7674     0865  300A               	movlw	10
  7675     0866  00A0               	movwf	___llmod@divisor
  7676     0867  0830               	movf	print_sec@count+3,w
  7677     0868  00A7               	movwf	___llmod@dividend+3
  7678     0869  082F               	movf	print_sec@count+2,w
  7679     086A  00A6               	movwf	___llmod@dividend+2
  7680     086B  082E               	movf	print_sec@count+1,w
  7681     086C  00A5               	movwf	___llmod@dividend+1
  7682     086D  082D               	movf	print_sec@count,w
  7683     086E  00A4               	movwf	___llmod@dividend
  7684     086F  160A  118A  24AB  120A  158A  	fcall	___llmod
  7685     0874  1283               	bcf	3,5	;RP0=0, select bank0
  7686     0875  1303               	bcf	3,6	;RP1=0, select bank0
  7687     0876  0820               	movf	?___llmod,w
  7688     0877  3E30               	addlw	48
  7689     0878  1383               	bcf	3,7	;select IRP bank0
  7690     0879  0080               	movwf	0
  7691     087A                     l5093:
  7692                           
  7693                           ;login.c: 175:         count /= 10;
  7694     087A  3000               	movlw	0
  7695     087B  00A3               	movwf	___lldiv@divisor+3
  7696     087C  3000               	movlw	0
  7697     087D  00A2               	movwf	___lldiv@divisor+2
  7698     087E  3000               	movlw	0
  7699     087F  00A1               	movwf	___lldiv@divisor+1
  7700     0880  300A               	movlw	10
  7701     0881  00A0               	movwf	___lldiv@divisor
  7702     0882  0830               	movf	print_sec@count+3,w
  7703     0883  00A7               	movwf	___lldiv@dividend+3
  7704     0884  082F               	movf	print_sec@count+2,w
  7705     0885  00A6               	movwf	___lldiv@dividend+2
  7706     0886  082E               	movf	print_sec@count+1,w
  7707     0887  00A5               	movwf	___lldiv@dividend+1
  7708     0888  082D               	movf	print_sec@count,w
  7709     0889  00A4               	movwf	___lldiv@dividend
  7710     088A  160A  118A  272D  120A  158A  	fcall	___lldiv
  7711     088F  1283               	bcf	3,5	;RP0=0, select bank0
  7712     0890  1303               	bcf	3,6	;RP1=0, select bank0
  7713     0891  0823               	movf	?___lldiv+3,w
  7714     0892  00B0               	movwf	print_sec@count+3
  7715     0893  0822               	movf	?___lldiv+2,w
  7716     0894  00AF               	movwf	print_sec@count+2
  7717     0895  0821               	movf	?___lldiv+1,w
  7718     0896  00AE               	movwf	print_sec@count+1
  7719     0897  0820               	movf	?___lldiv,w
  7720     0898  00AD               	movwf	print_sec@count
  7721     0899                     l5095:
  7722                           
  7723                           ;login.c: 176:     }
  7724     0899  30FF               	movlw	255
  7725     089A  07B6               	addwf	print_sec@i,f
  7726     089B  1803               	skipnc
  7727     089C  0AB7               	incf	print_sec@i+1,f
  7728     089D  30FF               	movlw	255
  7729     089E  07B7               	addwf	print_sec@i+1,f
  7730     089F                     l5097:
  7731     089F  1FB7               	btfss	print_sec@i+1,7
  7732     08A0  28A2               	goto	u5411
  7733     08A1  28A3               	goto	u5410
  7734     08A2                     u5411:
  7735     08A2  285C               	goto	l5091
  7736     08A3                     u5410:
  7737     08A3                     l5099:
  7738                           
  7739                           ;login.c: 177:     clcd_print(sec,(0xC0 + pos));
  7740     08A3  3031               	movlw	(low (print_sec@sec| 0))& (0+255)
  7741     08A4  00A0               	movwf	clcd_print@str
  7742     08A5  3000               	movlw	0
  7743     08A6  00A1               	movwf	clcd_print@str+1
  7744     08A7  0835               	movf	print_sec@pos,w
  7745     08A8  3EC0               	addlw	192
  7746     08A9  00A2               	movwf	clcd_print@addr
  7747     08AA  160A  118A  227C  120A  158A  	fcall	_clcd_print
  7748                           
  7749                           ;login.c: 178:     clcd_print(" sec",(0xC0 + 12));
  7750     08AF  3056               	movlw	low (STR_15| (0+32768))
  7751     08B0  1283               	bcf	3,5	;RP0=0, select bank0
  7752     08B1  1303               	bcf	3,6	;RP1=0, select bank0
  7753     08B2  00A0               	movwf	clcd_print@str
  7754     08B3  3091               	movlw	high (STR_15| (0+32768))
  7755     08B4  00A1               	movwf	clcd_print@str+1
  7756     08B5  30CC               	movlw	204
  7757     08B6  00A2               	movwf	clcd_print@addr
  7758     08B7  160A  118A  227C  120A  158A  	fcall	_clcd_print
  7759     08BC                     l353:
  7760     08BC  0008               	return
  7761     08BD                     __end_of_print_sec:
  7762                           
  7763                           	psect	text18
  7764     14AB                     __ptext18:	
  7765 ;; *************** function ___llmod *****************
  7766 ;; Defined at:
  7767 ;;		line 5 in file "C:\Program Files\Microchip\xc8\v2.41\pic\sources\c90\common\llmod.c"
  7768 ;; Parameters:    Size  Location     Type
  7769 ;;  divisor         4    0[BANK0 ] unsigned long 
  7770 ;;  dividend        4    4[BANK0 ] unsigned long 
  7771 ;; Auto vars:     Size  Location     Type
  7772 ;;  counter         1    4[COMMON] unsigned char 
  7773 ;; Return value:  Size  Location     Type
  7774 ;;                  4    0[BANK0 ] unsigned long 
  7775 ;; Registers used:
  7776 ;;		wreg, status,2, status,0, btemp+1
  7777 ;; Tracked objects:
  7778 ;;		On entry : 0/0
  7779 ;;		On exit  : 0/0
  7780 ;;		Unchanged: 0/0
  7781 ;; Data sizes:     COMMON   BANK0   BANK1   BANK3   BANK2
  7782 ;;      Params:         0       8       0       0       0
  7783 ;;      Locals:         1       0       0       0       0
  7784 ;;      Temps:          1       0       0       0       0
  7785 ;;      Totals:         2       8       0       0       0
  7786 ;;Total ram usage:       10 bytes
  7787 ;; Hardware stack levels used: 1
  7788 ;; Hardware stack levels required when called: 1
  7789 ;; This function calls:
  7790 ;;		Nothing
  7791 ;; This function is called by:
  7792 ;;		_print_sec
  7793 ;; This function uses a non-reentrant model
  7794 ;;
  7795                           
  7796     14AB                     ___llmod:	
  7797                           ;psect for function ___llmod
  7798                           
  7799     14AB                     l4941:	
  7800                           ;incstack = 0
  7801                           ; Regs used in ___llmod: [wreg+status,2+status,0+btemp+1]
  7802                           
  7803     14AB  1283               	bcf	3,5	;RP0=0, select bank0
  7804     14AC  1303               	bcf	3,6	;RP1=0, select bank0
  7805     14AD  0823               	movf	___llmod@divisor+3,w
  7806     14AE  0422               	iorwf	___llmod@divisor+2,w
  7807     14AF  0421               	iorwf	___llmod@divisor+1,w
  7808     14B0  0420               	iorwf	___llmod@divisor,w
  7809     14B1  1903               	skipnz
  7810     14B2  2CB4               	goto	u5151
  7811     14B3  2CB5               	goto	u5150
  7812     14B4                     u5151:
  7813     14B4  2CF8               	goto	l4959
  7814     14B5                     u5150:
  7815     14B5                     l4943:
  7816     14B5  01F4               	clrf	___llmod@counter
  7817     14B6  0AF4               	incf	___llmod@counter,f
  7818     14B7  2CC5               	goto	l4949
  7819     14B8                     l4945:
  7820     14B8  3001               	movlw	1
  7821     14B9  00F3               	movwf	??___llmod
  7822     14BA                     u5165:
  7823     14BA  1003               	clrc
  7824     14BB  0DA0               	rlf	___llmod@divisor,f
  7825     14BC  0DA1               	rlf	___llmod@divisor+1,f
  7826     14BD  0DA2               	rlf	___llmod@divisor+2,f
  7827     14BE  0DA3               	rlf	___llmod@divisor+3,f
  7828     14BF  0BF3               	decfsz	??___llmod,f
  7829     14C0  2CBA               	goto	u5165
  7830     14C1                     l4947:
  7831     14C1  3001               	movlw	1
  7832     14C2  00FF               	movwf	btemp+1
  7833     14C3  087F               	movf	btemp+1,w
  7834     14C4  07F4               	addwf	___llmod@counter,f
  7835     14C5                     l4949:
  7836     14C5  1FA3               	btfss	___llmod@divisor+3,7
  7837     14C6  2CC8               	goto	u5171
  7838     14C7  2CC9               	goto	u5170
  7839     14C8                     u5171:
  7840     14C8  2CB8               	goto	l4945
  7841     14C9                     u5170:
  7842     14C9                     l4951:
  7843     14C9  0823               	movf	___llmod@divisor+3,w
  7844     14CA  0227               	subwf	___llmod@dividend+3,w
  7845     14CB  1D03               	skipz
  7846     14CC  2CD7               	goto	u5185
  7847     14CD  0822               	movf	___llmod@divisor+2,w
  7848     14CE  0226               	subwf	___llmod@dividend+2,w
  7849     14CF  1D03               	skipz
  7850     14D0  2CD7               	goto	u5185
  7851     14D1  0821               	movf	___llmod@divisor+1,w
  7852     14D2  0225               	subwf	___llmod@dividend+1,w
  7853     14D3  1D03               	skipz
  7854     14D4  2CD7               	goto	u5185
  7855     14D5  0820               	movf	___llmod@divisor,w
  7856     14D6  0224               	subwf	___llmod@dividend,w
  7857     14D7                     u5185:
  7858     14D7  1C03               	skipc
  7859     14D8  2CDA               	goto	u5181
  7860     14D9  2CDB               	goto	u5180
  7861     14DA                     u5181:
  7862     14DA  2CE9               	goto	l4955
  7863     14DB                     u5180:
  7864     14DB                     l4953:
  7865     14DB  0820               	movf	___llmod@divisor,w
  7866     14DC  02A4               	subwf	___llmod@dividend,f
  7867     14DD  0821               	movf	___llmod@divisor+1,w
  7868     14DE  1C03               	skipc
  7869     14DF  0F21               	incfsz	___llmod@divisor+1,w
  7870     14E0  02A5               	subwf	___llmod@dividend+1,f
  7871     14E1  0822               	movf	___llmod@divisor+2,w
  7872     14E2  1C03               	skipc
  7873     14E3  0F22               	incfsz	___llmod@divisor+2,w
  7874     14E4  02A6               	subwf	___llmod@dividend+2,f
  7875     14E5  0823               	movf	___llmod@divisor+3,w
  7876     14E6  1C03               	skipc
  7877     14E7  0F23               	incfsz	___llmod@divisor+3,w
  7878     14E8  02A7               	subwf	___llmod@dividend+3,f
  7879     14E9                     l4955:
  7880     14E9  3001               	movlw	1
  7881     14EA                     u5195:
  7882     14EA  1003               	clrc
  7883     14EB  0CA3               	rrf	___llmod@divisor+3,f
  7884     14EC  0CA2               	rrf	___llmod@divisor+2,f
  7885     14ED  0CA1               	rrf	___llmod@divisor+1,f
  7886     14EE  0CA0               	rrf	___llmod@divisor,f
  7887     14EF  3EFF               	addlw	-1
  7888     14F0  1D03               	skipz
  7889     14F1  2CEA               	goto	u5195
  7890     14F2                     l4957:
  7891     14F2  3001               	movlw	1
  7892     14F3  02F4               	subwf	___llmod@counter,f
  7893     14F4  1D03               	btfss	3,2
  7894     14F5  2CF7               	goto	u5201
  7895     14F6  2CF8               	goto	u5200
  7896     14F7                     u5201:
  7897     14F7  2CC9               	goto	l4951
  7898     14F8                     u5200:
  7899     14F8                     l4959:
  7900     14F8  0827               	movf	___llmod@dividend+3,w
  7901     14F9  00A3               	movwf	?___llmod+3
  7902     14FA  0826               	movf	___llmod@dividend+2,w
  7903     14FB  00A2               	movwf	?___llmod+2
  7904     14FC  0825               	movf	___llmod@dividend+1,w
  7905     14FD  00A1               	movwf	?___llmod+1
  7906     14FE  0824               	movf	___llmod@dividend,w
  7907     14FF  00A0               	movwf	?___llmod
  7908     1500                     l1123:
  7909     1500  0008               	return
  7910     1501                     __end_of___llmod:
  7911                           
  7912                           	psect	text19
  7913     13D5                     __ptext19:	
  7914 ;; *************** function _my_strcmp *****************
  7915 ;; Defined at:
  7916 ;;		line 154 in file "login.c"
  7917 ;; Parameters:    Size  Location     Type
  7918 ;;  str1            1    wreg     PTR unsigned char 
  7919 ;;		 -> change_psswd@user(5), login@user(5), 
  7920 ;;  str2            1    3[COMMON] PTR unsigned char 
  7921 ;;		 -> change_psswd@confirm(5), password(5), 
  7922 ;; Auto vars:     Size  Location     Type
  7923 ;;  str1            1    7[COMMON] PTR unsigned char 
  7924 ;;		 -> change_psswd@user(5), login@user(5), 
  7925 ;; Return value:  Size  Location     Type
  7926 ;;                  2    3[COMMON] int 
  7927 ;; Registers used:
  7928 ;;		wreg, fsr0l, fsr0h, status,2, status,0, btemp+1
  7929 ;; Tracked objects:
  7930 ;;		On entry : 0/0
  7931 ;;		On exit  : 0/0
  7932 ;;		Unchanged: 0/0
  7933 ;; Data sizes:     COMMON   BANK0   BANK1   BANK3   BANK2
  7934 ;;      Params:         2       0       0       0       0
  7935 ;;      Locals:         1       0       0       0       0
  7936 ;;      Temps:          2       0       0       0       0
  7937 ;;      Totals:         5       0       0       0       0
  7938 ;;Total ram usage:        5 bytes
  7939 ;; Hardware stack levels used: 1
  7940 ;; Hardware stack levels required when called: 1
  7941 ;; This function calls:
  7942 ;;		Nothing
  7943 ;; This function is called by:
  7944 ;;		_login
  7945 ;;		_change_psswd
  7946 ;; This function uses a non-reentrant model
  7947 ;;
  7948                           
  7949     13D5                     _my_strcmp:	
  7950                           ;psect for function _my_strcmp
  7951                           
  7952                           
  7953                           ;incstack = 0
  7954                           ; Regs used in _my_strcmp: [wreg-fsr0h+status,2+status,0+btemp+1]
  7955                           ;my_strcmp@str1 stored from wreg
  7956     13D5  00F7               	movwf	my_strcmp@str1
  7957     13D6                     l3217:
  7958                           
  7959                           ;login.c: 154: int my_strcmp(unsigned char *str1, unsigned char *str2);login.c: 155: {;l
      +                          ogin.c: 156:     while(*str1 && *str2 && *str1 == *str2)
  7960     13D6  2BDF               	goto	l3223
  7961     13D7                     l3219:
  7962                           
  7963                           ;login.c: 157:     {;login.c: 158:         str1++;
  7964     13D7  3001               	movlw	1
  7965     13D8  00FF               	movwf	btemp+1
  7966     13D9  087F               	movf	btemp+1,w
  7967     13DA  07F7               	addwf	my_strcmp@str1,f
  7968     13DB                     l3221:
  7969                           
  7970                           ;login.c: 159:         str2++;
  7971     13DB  3001               	movlw	1
  7972     13DC  00FF               	movwf	btemp+1
  7973     13DD  087F               	movf	btemp+1,w
  7974     13DE  07F3               	addwf	my_strcmp@str2,f
  7975     13DF                     l3223:
  7976                           
  7977                           ;login.c: 156:     while(*str1 && *str2 && *str1 == *str2)
  7978     13DF  0877               	movf	my_strcmp@str1,w
  7979     13E0  0084               	movwf	4
  7980     13E1  1383               	bcf	3,7	;select IRP bank0
  7981     13E2  0800               	movf	0,w
  7982     13E3  1903               	btfsc	3,2
  7983     13E4  2BE6               	goto	u2591
  7984     13E5  2BE7               	goto	u2590
  7985     13E6                     u2591:
  7986     13E6  2BFA               	goto	l3229
  7987     13E7                     u2590:
  7988     13E7                     l3225:
  7989     13E7  0873               	movf	my_strcmp@str2,w
  7990     13E8  0084               	movwf	4
  7991     13E9  0800               	movf	0,w
  7992     13EA  1903               	btfsc	3,2
  7993     13EB  2BED               	goto	u2601
  7994     13EC  2BEE               	goto	u2600
  7995     13ED                     u2601:
  7996     13ED  2BFA               	goto	l3229
  7997     13EE                     u2600:
  7998     13EE                     l3227:
  7999     13EE  0873               	movf	my_strcmp@str2,w
  8000     13EF  0084               	movwf	4
  8001     13F0  0800               	movf	0,w
  8002     13F1  00F5               	movwf	??_my_strcmp
  8003     13F2  0877               	movf	my_strcmp@str1,w
  8004     13F3  0084               	movwf	4
  8005     13F4  0800               	movf	0,w
  8006     13F5  0675               	xorwf	??_my_strcmp,w
  8007     13F6  1903               	skipnz
  8008     13F7  2BF9               	goto	u2611
  8009     13F8  2BFA               	goto	u2610
  8010     13F9                     u2611:
  8011     13F9  2BD7               	goto	l3219
  8012     13FA                     u2610:
  8013     13FA                     l3229:
  8014                           
  8015                           ;login.c: 161:     if(*str1 == *str2)
  8016     13FA  0873               	movf	my_strcmp@str2,w
  8017     13FB  0084               	movwf	4
  8018     13FC  0800               	movf	0,w
  8019     13FD  00F5               	movwf	??_my_strcmp
  8020     13FE  0877               	movf	my_strcmp@str1,w
  8021     13FF  0084               	movwf	4
  8022     1400  0800               	movf	0,w
  8023     1401  0675               	xorwf	??_my_strcmp,w
  8024     1402  1D03               	skipz
  8025     1403  2C05               	goto	u2621
  8026     1404  2C06               	goto	u2620
  8027     1405                     u2621:
  8028     1405  2C09               	goto	l3235
  8029     1406                     u2620:
  8030     1406                     l3231:
  8031                           
  8032                           ;login.c: 162:     {;login.c: 163:         return 0;
  8033     1406  01F3               	clrf	?_my_strcmp
  8034     1407  01F4               	clrf	?_my_strcmp+1
  8035     1408  2C17               	goto	l346
  8036     1409                     l3235:
  8037                           
  8038                           ;login.c: 165:     return *str1 - *str2 ;
  8039     1409  0873               	movf	my_strcmp@str2,w
  8040     140A  0084               	movwf	4
  8041     140B  0800               	movf	0,w
  8042     140C  00F5               	movwf	??_my_strcmp
  8043     140D  0877               	movf	my_strcmp@str1,w
  8044     140E  0084               	movwf	4
  8045     140F  0800               	movf	0,w
  8046     1410  00F6               	movwf	??_my_strcmp+1
  8047     1411  0875               	movf	??_my_strcmp,w
  8048     1412  0276               	subwf	??_my_strcmp+1,w
  8049     1413  00F3               	movwf	?_my_strcmp
  8050     1414  01F4               	clrf	?_my_strcmp+1
  8051     1415  1C03               	skipc
  8052     1416  03F4               	decf	?_my_strcmp+1,f
  8053     1417                     l346:
  8054     1417  0008               	return
  8055     1418                     __end_of_my_strcmp:
  8056                           
  8057                           	psect	text20
  8058     124F                     __ptext20:	
  8059 ;; *************** function _eeprom_write *****************
  8060 ;; Defined at:
  8061 ;;		line 6 in file "C:\Program Files\Microchip\xc8\v2.41\pic\sources\c90\pic\__eewrite.c"
  8062 ;; Parameters:    Size  Location     Type
  8063 ;;  addr            1    wreg     unsigned char 
  8064 ;;  value           1    3[COMMON] unsigned char 
  8065 ;; Auto vars:     Size  Location     Type
  8066 ;;  addr            1    4[COMMON] unsigned char 
  8067 ;; Return value:  Size  Location     Type
  8068 ;;                  1    wreg      void 
  8069 ;; Registers used:
  8070 ;;		wreg, status,2, status,0, btemp+1
  8071 ;; Tracked objects:
  8072 ;;		On entry : 0/0
  8073 ;;		On exit  : 0/0
  8074 ;;		Unchanged: 0/0
  8075 ;; Data sizes:     COMMON   BANK0   BANK1   BANK3   BANK2
  8076 ;;      Params:         1       0       0       0       0
  8077 ;;      Locals:         1       0       0       0       0
  8078 ;;      Temps:          0       0       0       0       0
  8079 ;;      Totals:         2       0       0       0       0
  8080 ;;Total ram usage:        2 bytes
  8081 ;; Hardware stack levels used: 1
  8082 ;; Hardware stack levels required when called: 1
  8083 ;; This function calls:
  8084 ;;		Nothing
  8085 ;; This function is called by:
  8086 ;;		_login
  8087 ;;		_write_password
  8088 ;; This function uses a non-reentrant model
  8089 ;;
  8090                           
  8091     124F                     _eeprom_write:	
  8092                           ;psect for function _eeprom_write
  8093                           
  8094                           
  8095                           ;incstack = 0
  8096                           ; Regs used in _eeprom_write: [wreg+status,2+status,0+btemp+1]
  8097                           ;eeprom_write@addr stored from wreg
  8098     124F  00F4               	movwf	eeprom_write@addr
  8099     1250                     l890:	
  8100                           ;C:\Program Files\Microchip\xc8\v2.41\pic\sources\c90\pic\__eewrite.c: 6: eeprom_write(u
      +                          nsigned char addr, unsigned char value);C:\Program Files\Microchip\xc8\v2.41\pic\sources
      +                          \c90\pic\__eewrite.c: 7: {;C:\Program Files\Microchip\xc8\v2.41\pic\sources\c90\pic\__ee
      +                          write.c: 8:  do{ while (EECON1bits.WR) { continue; } EEADR = (addr); EEDATA = (value); E
      +                          ECON1 &= 0x3F; STATUSbits.CARRY = 0; if (INTCONbits.GIE) { STATUSbits.CARRY = 1; } INTCO
      +                          Nbits.GIE = 0; EECON1bits.WREN = 1; EECON2 = 0x55; EECON2 = 0xAA; EECON1bits.WR = 1; EEC
      +                          ON1bits.WREN = 0; if (STATUSbits.CARRY) { INTCONbits.GIE = 1; } } while (0);
  8101                           
  8102     1250                     l891:
  8103     1250  1683               	bsf	3,5	;RP0=1, select bank3
  8104     1251  1703               	bsf	3,6	;RP1=1, select bank3
  8105     1252  188C               	btfsc	12,1	;volsfr
  8106     1253  2A55               	goto	u2451
  8107     1254  2A56               	goto	u2450
  8108     1255                     u2451:
  8109     1255  2A50               	goto	l891
  8110     1256                     u2450:
  8111     1256                     l3101:
  8112     1256  0874               	movf	eeprom_write@addr,w
  8113     1257  1283               	bcf	3,5	;RP0=0, select bank2
  8114     1258  1703               	bsf	3,6	;RP1=1, select bank2
  8115     1259  008D               	movwf	13	;volatile
  8116     125A  0873               	movf	eeprom_write@value,w
  8117     125B  008C               	movwf	12	;volatile
  8118     125C                     l3103:
  8119     125C  303F               	movlw	63
  8120     125D  00FF               	movwf	btemp+1
  8121     125E  087F               	movf	btemp+1,w
  8122     125F  1683               	bsf	3,5	;RP0=1, select bank3
  8123     1260  1703               	bsf	3,6	;RP1=1, select bank3
  8124     1261  058C               	andwf	12,f	;volsfr
  8125     1262                     l3105:
  8126     1262  1283               	bcf	3,5	;RP0=0, select bank0
  8127     1263  1303               	bcf	3,6	;RP1=0, select bank0
  8128     1264  1003               	bcf	3,0	;volatile
  8129     1265                     l3107:
  8130     1265  1F8B               	btfss	11,7	;volatile
  8131     1266  2A68               	goto	u2461
  8132     1267  2A69               	goto	u2460
  8133     1268                     u2461:
  8134     1268  2A6A               	goto	l894
  8135     1269                     u2460:
  8136     1269                     l3109:
  8137     1269  1403               	bsf	3,0	;volatile
  8138     126A                     l894:
  8139     126A  138B               	bcf	11,7	;volatile
  8140     126B  1683               	bsf	3,5	;RP0=1, select bank3
  8141     126C  1703               	bsf	3,6	;RP1=1, select bank3
  8142     126D  150C               	bsf	12,2	;volsfr
  8143     126E                     l3111:
  8144     126E  3055               	movlw	85
  8145     126F  008D               	movwf	13	;volsfr
  8146     1270  30AA               	movlw	170
  8147     1271  008D               	movwf	13	;volsfr
  8148     1272                     l3113:
  8149     1272  148C               	bsf	12,1	;volsfr
  8150     1273                     l3115:
  8151     1273  110C               	bcf	12,2	;volsfr
  8152     1274                     l3117:
  8153     1274  1283               	bcf	3,5	;RP0=0, select bank0
  8154     1275  1303               	bcf	3,6	;RP1=0, select bank0
  8155     1276  1C03               	btfss	3,0	;volatile
  8156     1277  2A79               	goto	u2471
  8157     1278  2A7A               	goto	u2470
  8158     1279                     u2471:
  8159     1279  2A7B               	goto	l897
  8160     127A                     u2470:
  8161     127A                     l3119:
  8162     127A  178B               	bsf	11,7	;volatile
  8163     127B                     l897:
  8164     127B  0008               	return
  8165     127C                     __end_of_eeprom_write:
  8166                           
  8167                           	psect	text21
  8168     1F0F                     __ptext21:	
  8169 ;; *************** function _eeprom_read *****************
  8170 ;; Defined at:
  8171 ;;		line 6 in file "C:\Program Files\Microchip\xc8\v2.41\pic\sources\c90\pic\__eeread.c"
  8172 ;; Parameters:    Size  Location     Type
  8173 ;;  addr            1    wreg     unsigned char 
  8174 ;; Auto vars:     Size  Location     Type
  8175 ;;  addr            1    3[COMMON] unsigned char 
  8176 ;; Return value:  Size  Location     Type
  8177 ;;                  1    wreg      unsigned char 
  8178 ;; Registers used:
  8179 ;;		wreg, status,2, status,0, btemp+1
  8180 ;; Tracked objects:
  8181 ;;		On entry : 0/0
  8182 ;;		On exit  : 0/0
  8183 ;;		Unchanged: 0/0
  8184 ;; Data sizes:     COMMON   BANK0   BANK1   BANK3   BANK2
  8185 ;;      Params:         0       0       0       0       0
  8186 ;;      Locals:         1       0       0       0       0
  8187 ;;      Temps:          0       0       0       0       0
  8188 ;;      Totals:         1       0       0       0       0
  8189 ;;Total ram usage:        1 bytes
  8190 ;; Hardware stack levels used: 1
  8191 ;; Hardware stack levels required when called: 1
  8192 ;; This function calls:
  8193 ;;		Nothing
  8194 ;; This function is called by:
  8195 ;;		_login
  8196 ;; This function uses a non-reentrant model
  8197 ;;
  8198                           
  8199     1F0F                     _eeprom_read:	
  8200                           ;psect for function _eeprom_read
  8201                           
  8202                           
  8203                           ;incstack = 0
  8204                           ; Regs used in _eeprom_read: [wreg+status,2+status,0+btemp+1]
  8205                           ;eeprom_read@addr stored from wreg
  8206     1F0F  00F3               	movwf	eeprom_read@addr
  8207     1F10                     l871:	
  8208                           ;C:\Program Files\Microchip\xc8\v2.41\pic\sources\c90\pic\__eeread.c: 6: eeprom_read(uns
      +                          igned char addr);C:\Program Files\Microchip\xc8\v2.41\pic\sources\c90\pic\__eeread.c: 7:
      +                           {;C:\Program Files\Microchip\xc8\v2.41\pic\sources\c90\pic\__eeread.c: 8:  do
  8209                           
  8210     1F10  0064               	clrwdt	;# 
  8211     1F11  1683               	bsf	3,5	;RP0=1, select bank3
  8212     1F12  1703               	bsf	3,6	;RP1=1, select bank3
  8213     1F13  188C               	btfsc	12,1	;volsfr
  8214     1F14  2F16               	goto	u3181
  8215     1F15  2F17               	goto	u3180
  8216     1F16                     u3181:
  8217     1F16  2F10               	goto	l871
  8218     1F17                     u3180:
  8219     1F17                     l3569:
  8220                           
  8221                           ;C:\Program Files\Microchip\xc8\v2.41\pic\sources\c90\pic\__eeread.c: 18:  return ( EEAD
      +                          R = addr, EECON1 &= 0x3F, EECON1bits.RD = 1, EEDATA);
  8222     1F17  0873               	movf	eeprom_read@addr,w
  8223     1F18  1283               	bcf	3,5	;RP0=0, select bank2
  8224     1F19  1703               	bsf	3,6	;RP1=1, select bank2
  8225     1F1A  008D               	movwf	13	;volatile
  8226     1F1B  303F               	movlw	63
  8227     1F1C  00FF               	movwf	btemp+1
  8228     1F1D  087F               	movf	btemp+1,w
  8229     1F1E  1683               	bsf	3,5	;RP0=1, select bank3
  8230     1F1F  1703               	bsf	3,6	;RP1=1, select bank3
  8231     1F20  058C               	andwf	12,f	;volsfr
  8232     1F21  140C               	bsf	12,0	;volsfr
  8233     1F22  1283               	bcf	3,5	;RP0=0, select bank2
  8234     1F23  1703               	bsf	3,6	;RP1=1, select bank2
  8235     1F24  080C               	movf	12,w	;volatile
  8236     1F25                     l873:
  8237     1F25  0008               	return
  8238     1F26                     __end_of_eeprom_read:
  8239                           
  8240                           	psect	text22
  8241     1EAD                     __ptext22:	
  8242 ;; *************** function _clear_clcd *****************
  8243 ;; Defined at:
  8244 ;;		line 65 in file "clcd.c"
  8245 ;; Parameters:    Size  Location     Type
  8246 ;;		None
  8247 ;; Auto vars:     Size  Location     Type
  8248 ;;		None
  8249 ;; Return value:  Size  Location     Type
  8250 ;;                  1    wreg      void 
  8251 ;; Registers used:
  8252 ;;		wreg, status,2, status,0, pclath, cstack
  8253 ;; Tracked objects:
  8254 ;;		On entry : 0/0
  8255 ;;		On exit  : 0/0
  8256 ;;		Unchanged: 0/0
  8257 ;; Data sizes:     COMMON   BANK0   BANK1   BANK3   BANK2
  8258 ;;      Params:         0       0       0       0       0
  8259 ;;      Locals:         0       0       0       0       0
  8260 ;;      Temps:          0       2       0       0       0
  8261 ;;      Totals:         0       2       0       0       0
  8262 ;;Total ram usage:        2 bytes
  8263 ;; Hardware stack levels used: 1
  8264 ;; Hardware stack levels required when called: 2
  8265 ;; This function calls:
  8266 ;;		_clcd_write
  8267 ;; This function is called by:
  8268 ;;		_main
  8269 ;;		_login
  8270 ;;		_menu
  8271 ;;		_view_logs
  8272 ;;		_clear_log
  8273 ;;		_download
  8274 ;;		_set_time
  8275 ;;		_change_psswd
  8276 ;; This function uses a non-reentrant model
  8277 ;;
  8278                           
  8279     1EAD                     _clear_clcd:	
  8280                           ;psect for function _clear_clcd
  8281                           
  8282     1EAD                     l4787:	
  8283                           ;incstack = 0
  8284                           ; Regs used in _clear_clcd: [wreg+status,2+status,0+pclath+cstack]
  8285                           
  8286                           
  8287                           ;clcd.c: 67:     clcd_write(0x01,0);
  8288     1EAD  01F3               	clrf	clcd_write@mode
  8289     1EAE  3001               	movlw	1
  8290     1EAF  160A  158A  2799  160A  158A  	fcall	_clcd_write
  8291     1EB4                     l4789:
  8292                           
  8293                           ;clcd.c: 68:     _delay((unsigned long)((500)*(20000000/4000000.0)));
  8294     1EB4  3004               	movlw	4
  8295     1EB5  1283               	bcf	3,5	;RP0=0, select bank0
  8296     1EB6  1303               	bcf	3,6	;RP1=0, select bank0
  8297     1EB7  00A1               	movwf	??_clear_clcd+1
  8298     1EB8  303D               	movlw	61
  8299     1EB9  00A0               	movwf	??_clear_clcd
  8300     1EBA                     u7027:
  8301     1EBA  0BA0               	decfsz	??_clear_clcd,f
  8302     1EBB  2EBA               	goto	u7027
  8303     1EBC  0BA1               	decfsz	??_clear_clcd+1,f
  8304     1EBD  2EBA               	goto	u7027
  8305     1EBE                     l35:
  8306     1EBE  0008               	return
  8307     1EBF                     __end_of_clear_clcd:
  8308                           
  8309                           	psect	text23
  8310     1E9B                     __ptext23:	
  8311 ;; *************** function _clear_arr *****************
  8312 ;; Defined at:
  8313 ;;		line 145 in file "login.c"
  8314 ;; Parameters:    Size  Location     Type
  8315 ;;  arr             1    wreg     PTR unsigned char 
  8316 ;;		 -> change_psswd@confirm(5), change_psswd@user(5), login@user(5), 
  8317 ;; Auto vars:     Size  Location     Type
  8318 ;;  arr             1    3[COMMON] PTR unsigned char 
  8319 ;;		 -> change_psswd@confirm(5), change_psswd@user(5), login@user(5), 
  8320 ;; Return value:  Size  Location     Type
  8321 ;;                  1    wreg      void 
  8322 ;; Registers used:
  8323 ;;		wreg, fsr0l, fsr0h, status,2, status,0, btemp+1
  8324 ;; Tracked objects:
  8325 ;;		On entry : 0/0
  8326 ;;		On exit  : 0/0
  8327 ;;		Unchanged: 0/0
  8328 ;; Data sizes:     COMMON   BANK0   BANK1   BANK3   BANK2
  8329 ;;      Params:         0       0       0       0       0
  8330 ;;      Locals:         1       0       0       0       0
  8331 ;;      Temps:          0       0       0       0       0
  8332 ;;      Totals:         1       0       0       0       0
  8333 ;;Total ram usage:        1 bytes
  8334 ;; Hardware stack levels used: 1
  8335 ;; Hardware stack levels required when called: 1
  8336 ;; This function calls:
  8337 ;;		Nothing
  8338 ;; This function is called by:
  8339 ;;		_login
  8340 ;;		_change_psswd
  8341 ;; This function uses a non-reentrant model
  8342 ;;
  8343                           
  8344     1E9B                     _clear_arr:	
  8345                           ;psect for function _clear_arr
  8346                           
  8347                           
  8348                           ;incstack = 0
  8349                           ; Regs used in _clear_arr: [wreg-fsr0h+status,2+status,0+btemp+1]
  8350                           ;clear_arr@arr stored from wreg
  8351     1E9B  00F3               	movwf	clear_arr@arr
  8352     1E9C                     l3239:
  8353                           
  8354                           ;login.c: 145: void clear_arr(unsigned char *arr);login.c: 146: {;login.c: 147:     whil
      +                          e(*arr)
  8355     1E9C  2EA4               	goto	l3245
  8356     1E9D                     l3241:
  8357                           
  8358                           ;login.c: 148:     {;login.c: 149:         *arr = '\0';
  8359     1E9D  0873               	movf	clear_arr@arr,w
  8360     1E9E  0084               	movwf	4
  8361     1E9F  0180               	clrf	0
  8362     1EA0                     l3243:
  8363                           
  8364                           ;login.c: 150:         arr++;
  8365     1EA0  3001               	movlw	1
  8366     1EA1  00FF               	movwf	btemp+1
  8367     1EA2  087F               	movf	btemp+1,w
  8368     1EA3  07F3               	addwf	clear_arr@arr,f
  8369     1EA4                     l3245:
  8370                           
  8371                           ;login.c: 147:     while(*arr)
  8372     1EA4  0873               	movf	clear_arr@arr,w
  8373     1EA5  0084               	movwf	4
  8374     1EA6  1383               	bcf	3,7	;select IRP bank0
  8375     1EA7  0800               	movf	0,w
  8376     1EA8  1D03               	btfss	3,2
  8377     1EA9  2EAB               	goto	u2631
  8378     1EAA  2EAC               	goto	u2630
  8379     1EAB                     u2631:
  8380     1EAB  2E9D               	goto	l3241
  8381     1EAC                     u2630:
  8382     1EAC                     l337:
  8383     1EAC  0008               	return
  8384     1EAD                     __end_of_clear_arr:
  8385                           
  8386                           	psect	text24
  8387     1EFA                     __ptext24:	
  8388 ;; *************** function _clcd_putch *****************
  8389 ;; Defined at:
  8390 ;;		line 49 in file "clcd.c"
  8391 ;; Parameters:    Size  Location     Type
  8392 ;;  data            1    wreg     const unsigned char 
  8393 ;;  addr            1    7[COMMON] unsigned char 
  8394 ;; Auto vars:     Size  Location     Type
  8395 ;;  data            1    0[BANK0 ] const unsigned char 
  8396 ;; Return value:  Size  Location     Type
  8397 ;;                  1    wreg      void 
  8398 ;; Registers used:
  8399 ;;		wreg, status,2, status,0, pclath, cstack
  8400 ;; Tracked objects:
  8401 ;;		On entry : 0/0
  8402 ;;		On exit  : 0/0
  8403 ;;		Unchanged: 0/0
  8404 ;; Data sizes:     COMMON   BANK0   BANK1   BANK3   BANK2
  8405 ;;      Params:         1       0       0       0       0
  8406 ;;      Locals:         0       1       0       0       0
  8407 ;;      Temps:          0       0       0       0       0
  8408 ;;      Totals:         1       1       0       0       0
  8409 ;;Total ram usage:        2 bytes
  8410 ;; Hardware stack levels used: 1
  8411 ;; Hardware stack levels required when called: 2
  8412 ;; This function calls:
  8413 ;;		_clcd_write
  8414 ;; This function is called by:
  8415 ;;		_login
  8416 ;;		_display_menu
  8417 ;;		_view_log_events
  8418 ;;		_change_psswd
  8419 ;; This function uses a non-reentrant model
  8420 ;;
  8421                           
  8422     1EFA                     _clcd_putch:	
  8423                           ;psect for function _clcd_putch
  8424                           
  8425                           
  8426                           ;incstack = 0
  8427                           ; Regs used in _clcd_putch: [wreg+status,2+status,0+pclath+cstack]
  8428                           ;clcd_putch@data stored from wreg
  8429     1EFA  1283               	bcf	3,5	;RP0=0, select bank0
  8430     1EFB  1303               	bcf	3,6	;RP1=0, select bank0
  8431     1EFC  00A0               	movwf	clcd_putch@data
  8432     1EFD                     l4719:
  8433                           
  8434                           ;clcd.c: 49: void clcd_putch(const char data, unsigned char addr);clcd.c: 50: {;clcd.c: 
      +                          51:     clcd_write(addr, 0);
  8435     1EFD  01F3               	clrf	clcd_write@mode
  8436     1EFE  0877               	movf	clcd_putch@addr,w
  8437     1EFF  160A  158A  2799  160A  158A  	fcall	_clcd_write
  8438                           
  8439                           ;clcd.c: 52:     clcd_write(data, 1);
  8440     1F04  01F3               	clrf	clcd_write@mode
  8441     1F05  0AF3               	incf	clcd_write@mode,f
  8442     1F06  1283               	bcf	3,5	;RP0=0, select bank0
  8443     1F07  1303               	bcf	3,6	;RP1=0, select bank0
  8444     1F08  0820               	movf	clcd_putch@data,w
  8445     1F09  160A  158A  2799  160A  158A  	fcall	_clcd_write
  8446     1F0E                     l26:
  8447     1F0E  0008               	return
  8448     1F0F                     __end_of_clcd_putch:
  8449                           
  8450                           	psect	text25
  8451     131D                     __ptext25:	
  8452 ;; *************** function _init_config *****************
  8453 ;; Defined at:
  8454 ;;		line 20 in file "main.c"
  8455 ;; Parameters:    Size  Location     Type
  8456 ;;		None
  8457 ;; Auto vars:     Size  Location     Type
  8458 ;;		None
  8459 ;; Return value:  Size  Location     Type
  8460 ;;                  1    wreg      void 
  8461 ;; Registers used:
  8462 ;;		wreg, status,2, status,0, btemp+1, pclath, cstack
  8463 ;; Tracked objects:
  8464 ;;		On entry : 0/0
  8465 ;;		On exit  : 0/0
  8466 ;;		Unchanged: 0/0
  8467 ;; Data sizes:     COMMON   BANK0   BANK1   BANK3   BANK2
  8468 ;;      Params:         0       0       0       0       0
  8469 ;;      Locals:         0       0       0       0       0
  8470 ;;      Temps:          0       0       0       0       0
  8471 ;;      Totals:         0       0       0       0       0
  8472 ;;Total ram usage:        0 bytes
  8473 ;; Hardware stack levels used: 1
  8474 ;; Hardware stack levels required when called: 6
  8475 ;; This function calls:
  8476 ;;		_init_adc
  8477 ;;		_init_clcd
  8478 ;;		_init_digital_keypad
  8479 ;;		_init_ds1307
  8480 ;;		_init_i2c
  8481 ;;		_init_timer
  8482 ;;		_init_uart
  8483 ;; This function is called by:
  8484 ;;		_main
  8485 ;; This function uses a non-reentrant model
  8486 ;;
  8487                           
  8488     131D                     _init_config:	
  8489                           ;psect for function _init_config
  8490                           
  8491     131D                     l5761:	
  8492                           ;incstack = 0
  8493                           ; Regs used in _init_config: [wreg+status,2+status,0+btemp+1+pclath+cstack]
  8494                           
  8495                           
  8496                           ;main.c: 22:         if(dash_flag)
  8497     131D  160A  158A  2666  160A  118A  	fcall	_init_timer
  8498     1322                     l5763:
  8499                           
  8500                           ;main.c: 23:         {
  8501     1322  160A  158A  2611  160A  118A  	fcall	_init_adc
  8502     1327                     l5765:
  8503                           
  8504                           ;main.c: 24:             key = read_digital_keypad(1);
  8505     1327  160A  158A  265B  160A  118A  	fcall	_init_clcd
  8506     132C                     l5767:
  8507                           
  8508                           ;main.c: 25:         }
  8509     132C  160A  158A  260B  160A  118A  	fcall	_init_digital_keypad
  8510     1331                     l5769:
  8511                           
  8512                           ;main.c: 26:         if(key == 0x37 && dash_flag)
  8513     1331  3000               	movlw	0
  8514     1332  1283               	bcf	3,5	;RP0=0, select bank0
  8515     1333  1303               	bcf	3,6	;RP1=0, select bank0
  8516     1334  00B0               	movwf	init_i2c@baud+3
  8517     1335  3001               	movlw	1
  8518     1336  00AF               	movwf	init_i2c@baud+2
  8519     1337  3086               	movlw	134
  8520     1338  00AE               	movwf	init_i2c@baud+1
  8521     1339  30A0               	movlw	160
  8522     133A  00AD               	movwf	init_i2c@baud
  8523     133B  160A  118A  22AF  160A  118A  	fcall	_init_i2c
  8524     1340                     l5771:
  8525                           
  8526                           ;main.c: 27:         {
  8527     1340  160A  158A  26BF  160A  118A  	fcall	_init_ds1307
  8528     1345                     l5773:
  8529                           
  8530                           ;main.c: 28:             clear_clcd();
  8531     1345  3000               	movlw	0
  8532     1346  1283               	bcf	3,5	;RP0=0, select bank0
  8533     1347  1303               	bcf	3,6	;RP1=0, select bank0
  8534     1348  00B0               	movwf	init_uart@baud+3
  8535     1349  3000               	movlw	0
  8536     134A  00AF               	movwf	init_uart@baud+2
  8537     134B  3025               	movlw	37
  8538     134C  00AE               	movwf	init_uart@baud+1
  8539     134D  3080               	movlw	128
  8540     134E  00AD               	movwf	init_uart@baud
  8541     134F  160A  118A  2357  160A  118A  	fcall	_init_uart
  8542     1354                     l5775:
  8543                           
  8544                           ;main.c: 29:             dash_flag = 0;
  8545     1354  178B               	bsf	11,7	;volatile
  8546     1355                     l5777:
  8547                           
  8548                           ;main.c: 30:         }
  8549     1355  170B               	bsf	11,6	;volatile
  8550     1356                     l104:
  8551     1356  0008               	return
  8552     1357                     __end_of_init_config:
  8553                           
  8554                           	psect	text26
  8555     1357                     __ptext26:	
  8556 ;; *************** function _init_uart *****************
  8557 ;; Defined at:
  8558 ;;		line 4 in file "uart.c"
  8559 ;; Parameters:    Size  Location     Type
  8560 ;;  baud            4   13[BANK0 ] unsigned long 
  8561 ;; Auto vars:     Size  Location     Type
  8562 ;;		None
  8563 ;; Return value:  Size  Location     Type
  8564 ;;                  1    wreg      void 
  8565 ;; Registers used:
  8566 ;;		wreg, status,2, status,0, btemp+1, pclath, cstack
  8567 ;; Tracked objects:
  8568 ;;		On entry : 0/0
  8569 ;;		On exit  : 0/0
  8570 ;;		Unchanged: 0/0
  8571 ;; Data sizes:     COMMON   BANK0   BANK1   BANK3   BANK2
  8572 ;;      Params:         0       4       0       0       0
  8573 ;;      Locals:         0       0       0       0       0
  8574 ;;      Temps:          4       0       0       0       0
  8575 ;;      Totals:         4       4       0       0       0
  8576 ;;Total ram usage:        8 bytes
  8577 ;; Hardware stack levels used: 1
  8578 ;; Hardware stack levels required when called: 2
  8579 ;; This function calls:
  8580 ;;		___lldiv
  8581 ;; This function is called by:
  8582 ;;		_init_config
  8583 ;; This function uses a non-reentrant model
  8584 ;;
  8585                           
  8586     1357                     _init_uart:	
  8587                           ;psect for function _init_uart
  8588                           
  8589     1357                     l5037:	
  8590                           ;incstack = 0
  8591                           ; Regs used in _init_uart: [wreg+status,2+status,0+btemp+1+pclath+cstack]
  8592                           
  8593                           
  8594                           ;uart.c: 4: void init_uart(unsigned long baud);uart.c: 5: {;uart.c: 7:     SPEN = 1;
  8595     1357  1283               	bcf	3,5	;RP0=0, select bank0
  8596     1358  1303               	bcf	3,6	;RP1=0, select bank0
  8597     1359  1798               	bsf	24,7	;volatile
  8598                           
  8599                           ;uart.c: 8:     TXEN = 1;
  8600     135A  1683               	bsf	3,5	;RP0=1, select bank1
  8601     135B  1303               	bcf	3,6	;RP1=0, select bank1
  8602     135C  1698               	bsf	24,5	;volatile
  8603                           
  8604                           ;uart.c: 9:     SYNC = 0;
  8605     135D  1218               	bcf	24,4	;volatile
  8606                           
  8607                           ;uart.c: 10:     BRGH = 1;
  8608     135E  1518               	bsf	24,2	;volatile
  8609                           
  8610                           ;uart.c: 12:     CREN = 1;
  8611     135F  1283               	bcf	3,5	;RP0=0, select bank0
  8612     1360  1303               	bcf	3,6	;RP1=0, select bank0
  8613     1361  1618               	bsf	24,4	;volatile
  8614     1362                     l5039:
  8615                           
  8616                           ;uart.c: 15:     SPBRG = (20000000 / (16 * baud)) - 1;
  8617     1362  082D               	movf	init_uart@baud,w
  8618     1363  00F4               	movwf	??_init_uart
  8619     1364  082E               	movf	init_uart@baud+1,w
  8620     1365  00F5               	movwf	??_init_uart+1
  8621     1366  082F               	movf	init_uart@baud+2,w
  8622     1367  00F6               	movwf	??_init_uart+2
  8623     1368  0830               	movf	init_uart@baud+3,w
  8624     1369  00F7               	movwf	??_init_uart+3
  8625     136A  3004               	movlw	4
  8626     136B                     u5365:
  8627     136B  1003               	clrc
  8628     136C  0DF4               	rlf	??_init_uart,f
  8629     136D  0DF5               	rlf	??_init_uart+1,f
  8630     136E  0DF6               	rlf	??_init_uart+2,f
  8631     136F  0DF7               	rlf	??_init_uart+3,f
  8632     1370                     u5360:
  8633     1370  3EFF               	addlw	-1
  8634     1371  1D03               	skipz
  8635     1372  2B6B               	goto	u5365
  8636     1373  0877               	movf	??_init_uart+3,w
  8637     1374  00A3               	movwf	___lldiv@divisor+3
  8638     1375  0876               	movf	??_init_uart+2,w
  8639     1376  00A2               	movwf	___lldiv@divisor+2
  8640     1377  0875               	movf	??_init_uart+1,w
  8641     1378  00A1               	movwf	___lldiv@divisor+1
  8642     1379  0874               	movf	??_init_uart,w
  8643     137A  00A0               	movwf	___lldiv@divisor
  8644     137B  3001               	movlw	1
  8645     137C  00A7               	movwf	___lldiv@dividend+3
  8646     137D  3031               	movlw	49
  8647     137E  00A6               	movwf	___lldiv@dividend+2
  8648     137F  302D               	movlw	45
  8649     1380  00A5               	movwf	___lldiv@dividend+1
  8650     1381  3000               	movlw	0
  8651     1382  00A4               	movwf	___lldiv@dividend
  8652     1383  160A  118A  272D  160A  118A  	fcall	___lldiv
  8653     1388  1283               	bcf	3,5	;RP0=0, select bank0
  8654     1389  1303               	bcf	3,6	;RP1=0, select bank0
  8655     138A  0820               	movf	?___lldiv,w
  8656     138B  3EFF               	addlw	255
  8657     138C  1683               	bsf	3,5	;RP0=1, select bank1
  8658     138D  1303               	bcf	3,6	;RP1=0, select bank1
  8659     138E  0099               	movwf	25	;volatile
  8660     138F                     l5041:
  8661                           
  8662                           ;uart.c: 18:     RCIE = 1;
  8663     138F  168C               	bsf	12,5	;volatile
  8664     1390                     l5043:
  8665                           
  8666                           ;uart.c: 19:     TXIE = 1;
  8667     1390  160C               	bsf	12,4	;volatile
  8668     1391                     l5045:
  8669                           
  8670                           ;uart.c: 20:     RCIF = 0;
  8671     1391  1283               	bcf	3,5	;RP0=0, select bank0
  8672     1392  1303               	bcf	3,6	;RP1=0, select bank0
  8673     1393  128C               	bcf	12,5	;volatile
  8674     1394                     l5047:
  8675                           
  8676                           ;uart.c: 21:     TXIF = 0;
  8677     1394  120C               	bcf	12,4	;volatile
  8678     1395                     l644:
  8679     1395  0008               	return
  8680     1396                     __end_of_init_uart:
  8681                           
  8682                           	psect	text27
  8683     1E66                     __ptext27:	
  8684 ;; *************** function _init_timer *****************
  8685 ;; Defined at:
  8686 ;;		line 3 in file "timer_1.c"
  8687 ;; Parameters:    Size  Location     Type
  8688 ;;		None
  8689 ;; Auto vars:     Size  Location     Type
  8690 ;;		None
  8691 ;; Return value:  Size  Location     Type
  8692 ;;                  1    wreg      void 
  8693 ;; Registers used:
  8694 ;;		wreg
  8695 ;; Tracked objects:
  8696 ;;		On entry : 0/0
  8697 ;;		On exit  : 0/0
  8698 ;;		Unchanged: 0/0
  8699 ;; Data sizes:     COMMON   BANK0   BANK1   BANK3   BANK2
  8700 ;;      Params:         0       0       0       0       0
  8701 ;;      Locals:         0       0       0       0       0
  8702 ;;      Temps:          0       0       0       0       0
  8703 ;;      Totals:         0       0       0       0       0
  8704 ;;Total ram usage:        0 bytes
  8705 ;; Hardware stack levels used: 1
  8706 ;; Hardware stack levels required when called: 1
  8707 ;; This function calls:
  8708 ;;		Nothing
  8709 ;; This function is called by:
  8710 ;;		_init_config
  8711 ;; This function uses a non-reentrant model
  8712 ;;
  8713                           
  8714     1E66                     _init_timer:	
  8715                           ;psect for function _init_timer
  8716                           
  8717     1E66                     l3501:	
  8718                           ;incstack = 0
  8719                           ; Regs used in _init_timer: [wreg]
  8720                           
  8721                           
  8722                           ;timer_1.c: 5:     T0CS = 0;
  8723     1E66  1683               	bsf	3,5	;RP0=1, select bank1
  8724     1E67  1303               	bcf	3,6	;RP1=0, select bank1
  8725     1E68  1281               	bcf	1,5	;volatile
  8726                           
  8727                           ;timer_1.c: 6:     PSA = 1;
  8728     1E69  1581               	bsf	1,3	;volatile
  8729     1E6A                     l3503:
  8730                           
  8731                           ;timer_1.c: 7:     TMR0 = 6;
  8732     1E6A  3006               	movlw	6
  8733     1E6B  1283               	bcf	3,5	;RP0=0, select bank0
  8734     1E6C  1303               	bcf	3,6	;RP1=0, select bank0
  8735     1E6D  0081               	movwf	1	;volatile
  8736     1E6E                     l3505:
  8737                           
  8738                           ;timer_1.c: 8:     TMR0IE = 1;
  8739     1E6E  168B               	bsf	11,5	;volatile
  8740     1E6F                     l3507:
  8741                           
  8742                           ;timer_1.c: 9:     TMR0IF = 0;
  8743     1E6F  110B               	bcf	11,2	;volatile
  8744     1E70                     l366:
  8745     1E70  0008               	return
  8746     1E71                     __end_of_init_timer:
  8747                           
  8748                           	psect	text28
  8749     12AF                     __ptext28:	
  8750 ;; *************** function _init_i2c *****************
  8751 ;; Defined at:
  8752 ;;		line 4 in file "i2c.c"
  8753 ;; Parameters:    Size  Location     Type
  8754 ;;  baud            4   13[BANK0 ] unsigned long 
  8755 ;; Auto vars:     Size  Location     Type
  8756 ;;		None
  8757 ;; Return value:  Size  Location     Type
  8758 ;;                  1    wreg      void 
  8759 ;; Registers used:
  8760 ;;		wreg, status,2, status,0, btemp+1, pclath, cstack
  8761 ;; Tracked objects:
  8762 ;;		On entry : 0/0
  8763 ;;		On exit  : 0/0
  8764 ;;		Unchanged: 0/0
  8765 ;; Data sizes:     COMMON   BANK0   BANK1   BANK3   BANK2
  8766 ;;      Params:         0       4       0       0       0
  8767 ;;      Locals:         0       0       0       0       0
  8768 ;;      Temps:          4       0       0       0       0
  8769 ;;      Totals:         4       4       0       0       0
  8770 ;;Total ram usage:        8 bytes
  8771 ;; Hardware stack levels used: 1
  8772 ;; Hardware stack levels required when called: 2
  8773 ;; This function calls:
  8774 ;;		___lldiv
  8775 ;; This function is called by:
  8776 ;;		_init_config
  8777 ;; This function uses a non-reentrant model
  8778 ;;
  8779                           
  8780     12AF                     _init_i2c:	
  8781                           ;psect for function _init_i2c
  8782                           
  8783     12AF                     l5025:	
  8784                           ;incstack = 0
  8785                           ; Regs used in _init_i2c: [wreg+status,2+status,0+btemp+1+pclath+cstack]
  8786                           
  8787                           
  8788                           ;i2c.c: 4: void init_i2c(unsigned long baud);i2c.c: 5: {;i2c.c: 7:     SSPM3 = 1;
  8789     12AF  1283               	bcf	3,5	;RP0=0, select bank0
  8790     12B0  1303               	bcf	3,6	;RP1=0, select bank0
  8791     12B1  1594               	bsf	20,3	;volatile
  8792     12B2                     l5027:
  8793                           
  8794                           ;i2c.c: 10:     SSPADD = (unsigned char)(20000000 / (4 * baud)) - 1;
  8795     12B2  082D               	movf	init_i2c@baud,w
  8796     12B3  00F4               	movwf	??_init_i2c
  8797     12B4  082E               	movf	init_i2c@baud+1,w
  8798     12B5  00F5               	movwf	??_init_i2c+1
  8799     12B6  082F               	movf	init_i2c@baud+2,w
  8800     12B7  00F6               	movwf	??_init_i2c+2
  8801     12B8  0830               	movf	init_i2c@baud+3,w
  8802     12B9  00F7               	movwf	??_init_i2c+3
  8803     12BA  3002               	movlw	2
  8804     12BB                     u5355:
  8805     12BB  1003               	clrc
  8806     12BC  0DF4               	rlf	??_init_i2c,f
  8807     12BD  0DF5               	rlf	??_init_i2c+1,f
  8808     12BE  0DF6               	rlf	??_init_i2c+2,f
  8809     12BF  0DF7               	rlf	??_init_i2c+3,f
  8810     12C0                     u5350:
  8811     12C0  3EFF               	addlw	-1
  8812     12C1  1D03               	skipz
  8813     12C2  2ABB               	goto	u5355
  8814     12C3  0877               	movf	??_init_i2c+3,w
  8815     12C4  00A3               	movwf	___lldiv@divisor+3
  8816     12C5  0876               	movf	??_init_i2c+2,w
  8817     12C6  00A2               	movwf	___lldiv@divisor+2
  8818     12C7  0875               	movf	??_init_i2c+1,w
  8819     12C8  00A1               	movwf	___lldiv@divisor+1
  8820     12C9  0874               	movf	??_init_i2c,w
  8821     12CA  00A0               	movwf	___lldiv@divisor
  8822     12CB  3001               	movlw	1
  8823     12CC  00A7               	movwf	___lldiv@dividend+3
  8824     12CD  3031               	movlw	49
  8825     12CE  00A6               	movwf	___lldiv@dividend+2
  8826     12CF  302D               	movlw	45
  8827     12D0  00A5               	movwf	___lldiv@dividend+1
  8828     12D1  3000               	movlw	0
  8829     12D2  00A4               	movwf	___lldiv@dividend
  8830     12D3  160A  118A  272D  160A  118A  	fcall	___lldiv
  8831     12D8  1283               	bcf	3,5	;RP0=0, select bank0
  8832     12D9  1303               	bcf	3,6	;RP1=0, select bank0
  8833     12DA  0820               	movf	?___lldiv,w
  8834     12DB  3EFF               	addlw	255
  8835     12DC  1683               	bsf	3,5	;RP0=1, select bank1
  8836     12DD  1303               	bcf	3,6	;RP1=0, select bank1
  8837     12DE  0093               	movwf	19	;volatile
  8838     12DF                     l5029:
  8839                           
  8840                           ;i2c.c: 13:     SSPEN = 1;
  8841     12DF  1283               	bcf	3,5	;RP0=0, select bank0
  8842     12E0  1303               	bcf	3,6	;RP1=0, select bank0
  8843     12E1  1694               	bsf	20,5	;volatile
  8844     12E2                     l233:
  8845     12E2  0008               	return
  8846     12E3                     __end_of_init_i2c:
  8847                           
  8848                           	psect	text29
  8849     172D                     __ptext29:	
  8850 ;; *************** function ___lldiv *****************
  8851 ;; Defined at:
  8852 ;;		line 5 in file "C:\Program Files\Microchip\xc8\v2.41\pic\sources\c90\common\__lldiv.c"
  8853 ;; Parameters:    Size  Location     Type
  8854 ;;  divisor         4    0[BANK0 ] unsigned long 
  8855 ;;  dividend        4    4[BANK0 ] unsigned long 
  8856 ;; Auto vars:     Size  Location     Type
  8857 ;;  quotient        4    8[BANK0 ] unsigned long 
  8858 ;;  counter         1   12[BANK0 ] unsigned char 
  8859 ;; Return value:  Size  Location     Type
  8860 ;;                  4    0[BANK0 ] unsigned long 
  8861 ;; Registers used:
  8862 ;;		wreg, status,2, status,0, btemp+1
  8863 ;; Tracked objects:
  8864 ;;		On entry : 0/0
  8865 ;;		On exit  : 0/0
  8866 ;;		Unchanged: 0/0
  8867 ;; Data sizes:     COMMON   BANK0   BANK1   BANK3   BANK2
  8868 ;;      Params:         0       8       0       0       0
  8869 ;;      Locals:         0       5       0       0       0
  8870 ;;      Temps:          1       0       0       0       0
  8871 ;;      Totals:         1      13       0       0       0
  8872 ;;Total ram usage:       14 bytes
  8873 ;; Hardware stack levels used: 1
  8874 ;; Hardware stack levels required when called: 1
  8875 ;; This function calls:
  8876 ;;		Nothing
  8877 ;; This function is called by:
  8878 ;;		_init_i2c
  8879 ;;		_print_sec
  8880 ;;		_init_uart
  8881 ;; This function uses a non-reentrant model
  8882 ;;
  8883                           
  8884     172D                     ___lldiv:	
  8885                           ;psect for function ___lldiv
  8886                           
  8887     172D                     l4877:	
  8888                           ;incstack = 0
  8889                           ; Regs used in ___lldiv: [wreg+status,2+status,0+btemp+1]
  8890                           
  8891     172D  3000               	movlw	0
  8892     172E  1283               	bcf	3,5	;RP0=0, select bank0
  8893     172F  1303               	bcf	3,6	;RP1=0, select bank0
  8894     1730  00AB               	movwf	___lldiv@quotient+3
  8895     1731  3000               	movlw	0
  8896     1732  00AA               	movwf	___lldiv@quotient+2
  8897     1733  3000               	movlw	0
  8898     1734  00A9               	movwf	___lldiv@quotient+1
  8899     1735  3000               	movlw	0
  8900     1736  00A8               	movwf	___lldiv@quotient
  8901     1737  0823               	movf	___lldiv@divisor+3,w
  8902     1738  0422               	iorwf	___lldiv@divisor+2,w
  8903     1739  0421               	iorwf	___lldiv@divisor+1,w
  8904     173A  0420               	iorwf	___lldiv@divisor,w
  8905     173B  1903               	skipnz
  8906     173C  2F3E               	goto	u4991
  8907     173D  2F3F               	goto	u4990
  8908     173E                     u4991:
  8909     173E  2F8C               	goto	l4899
  8910     173F                     u4990:
  8911     173F                     l4879:
  8912     173F  01AC               	clrf	___lldiv@counter
  8913     1740  0AAC               	incf	___lldiv@counter,f
  8914     1741  2F4F               	goto	l4885
  8915     1742                     l4881:
  8916     1742  3001               	movlw	1
  8917     1743  00F3               	movwf	??___lldiv
  8918     1744                     u5005:
  8919     1744  1003               	clrc
  8920     1745  0DA0               	rlf	___lldiv@divisor,f
  8921     1746  0DA1               	rlf	___lldiv@divisor+1,f
  8922     1747  0DA2               	rlf	___lldiv@divisor+2,f
  8923     1748  0DA3               	rlf	___lldiv@divisor+3,f
  8924     1749  0BF3               	decfsz	??___lldiv,f
  8925     174A  2F44               	goto	u5005
  8926     174B                     l4883:
  8927     174B  3001               	movlw	1
  8928     174C  00FF               	movwf	btemp+1
  8929     174D  087F               	movf	btemp+1,w
  8930     174E  07AC               	addwf	___lldiv@counter,f
  8931     174F                     l4885:
  8932     174F  1FA3               	btfss	___lldiv@divisor+3,7
  8933     1750  2F52               	goto	u5011
  8934     1751  2F53               	goto	u5010
  8935     1752                     u5011:
  8936     1752  2F42               	goto	l4881
  8937     1753                     u5010:
  8938     1753                     l4887:
  8939     1753  3001               	movlw	1
  8940     1754  00F3               	movwf	??___lldiv
  8941     1755                     u5025:
  8942     1755  1003               	clrc
  8943     1756  0DA8               	rlf	___lldiv@quotient,f
  8944     1757  0DA9               	rlf	___lldiv@quotient+1,f
  8945     1758  0DAA               	rlf	___lldiv@quotient+2,f
  8946     1759  0DAB               	rlf	___lldiv@quotient+3,f
  8947     175A  0BF3               	decfsz	??___lldiv,f
  8948     175B  2F55               	goto	u5025
  8949     175C                     l4889:
  8950     175C  0823               	movf	___lldiv@divisor+3,w
  8951     175D  0227               	subwf	___lldiv@dividend+3,w
  8952     175E  1D03               	skipz
  8953     175F  2F6A               	goto	u5035
  8954     1760  0822               	movf	___lldiv@divisor+2,w
  8955     1761  0226               	subwf	___lldiv@dividend+2,w
  8956     1762  1D03               	skipz
  8957     1763  2F6A               	goto	u5035
  8958     1764  0821               	movf	___lldiv@divisor+1,w
  8959     1765  0225               	subwf	___lldiv@dividend+1,w
  8960     1766  1D03               	skipz
  8961     1767  2F6A               	goto	u5035
  8962     1768  0820               	movf	___lldiv@divisor,w
  8963     1769  0224               	subwf	___lldiv@dividend,w
  8964     176A                     u5035:
  8965     176A  1C03               	skipc
  8966     176B  2F6D               	goto	u5031
  8967     176C  2F6E               	goto	u5030
  8968     176D                     u5031:
  8969     176D  2F7D               	goto	l4895
  8970     176E                     u5030:
  8971     176E                     l4891:
  8972     176E  0820               	movf	___lldiv@divisor,w
  8973     176F  02A4               	subwf	___lldiv@dividend,f
  8974     1770  0821               	movf	___lldiv@divisor+1,w
  8975     1771  1C03               	skipc
  8976     1772  0F21               	incfsz	___lldiv@divisor+1,w
  8977     1773  02A5               	subwf	___lldiv@dividend+1,f
  8978     1774  0822               	movf	___lldiv@divisor+2,w
  8979     1775  1C03               	skipc
  8980     1776  0F22               	incfsz	___lldiv@divisor+2,w
  8981     1777  02A6               	subwf	___lldiv@dividend+2,f
  8982     1778  0823               	movf	___lldiv@divisor+3,w
  8983     1779  1C03               	skipc
  8984     177A  0F23               	incfsz	___lldiv@divisor+3,w
  8985     177B  02A7               	subwf	___lldiv@dividend+3,f
  8986     177C                     l4893:
  8987     177C  1428               	bsf	___lldiv@quotient,0
  8988     177D                     l4895:
  8989     177D  3001               	movlw	1
  8990     177E                     u5045:
  8991     177E  1003               	clrc
  8992     177F  0CA3               	rrf	___lldiv@divisor+3,f
  8993     1780  0CA2               	rrf	___lldiv@divisor+2,f
  8994     1781  0CA1               	rrf	___lldiv@divisor+1,f
  8995     1782  0CA0               	rrf	___lldiv@divisor,f
  8996     1783  3EFF               	addlw	-1
  8997     1784  1D03               	skipz
  8998     1785  2F7E               	goto	u5045
  8999     1786                     l4897:
  9000     1786  3001               	movlw	1
  9001     1787  02AC               	subwf	___lldiv@counter,f
  9002     1788  1D03               	btfss	3,2
  9003     1789  2F8B               	goto	u5051
  9004     178A  2F8C               	goto	u5050
  9005     178B                     u5051:
  9006     178B  2F53               	goto	l4887
  9007     178C                     u5050:
  9008     178C                     l4899:
  9009     178C  082B               	movf	___lldiv@quotient+3,w
  9010     178D  00A3               	movwf	?___lldiv+3
  9011     178E  082A               	movf	___lldiv@quotient+2,w
  9012     178F  00A2               	movwf	?___lldiv+2
  9013     1790  0829               	movf	___lldiv@quotient+1,w
  9014     1791  00A1               	movwf	?___lldiv+1
  9015     1792  0828               	movf	___lldiv@quotient,w
  9016     1793  00A0               	movwf	?___lldiv
  9017     1794                     l937:
  9018     1794  0008               	return
  9019     1795                     __end_of___lldiv:
  9020                           
  9021                           	psect	text30
  9022     1EBF                     __ptext30:	
  9023 ;; *************** function _init_ds1307 *****************
  9024 ;; Defined at:
  9025 ;;		line 5 in file "ds1307.c"
  9026 ;; Parameters:    Size  Location     Type
  9027 ;;		None
  9028 ;; Auto vars:     Size  Location     Type
  9029 ;;  dummy           1    7[COMMON] unsigned char 
  9030 ;; Return value:  Size  Location     Type
  9031 ;;                  1    wreg      void 
  9032 ;; Registers used:
  9033 ;;		wreg, status,2, status,0, pclath, cstack
  9034 ;; Tracked objects:
  9035 ;;		On entry : 0/0
  9036 ;;		On exit  : 0/0
  9037 ;;		Unchanged: 0/0
  9038 ;; Data sizes:     COMMON   BANK0   BANK1   BANK3   BANK2
  9039 ;;      Params:         0       0       0       0       0
  9040 ;;      Locals:         1       0       0       0       0
  9041 ;;      Temps:          0       0       0       0       0
  9042 ;;      Totals:         1       0       0       0       0
  9043 ;;Total ram usage:        1 bytes
  9044 ;; Hardware stack levels used: 1
  9045 ;; Hardware stack levels required when called: 5
  9046 ;; This function calls:
  9047 ;;		_read_ds1307
  9048 ;;		_write_ds1307
  9049 ;; This function is called by:
  9050 ;;		_init_config
  9051 ;; This function uses a non-reentrant model
  9052 ;;
  9053                           
  9054     1EBF                     _init_ds1307:	
  9055                           ;psect for function _init_ds1307
  9056                           
  9057     1EBF                     l5031:	
  9058                           ;incstack = 0
  9059                           ; Regs used in _init_ds1307: [wreg+status,2+status,0+pclath+cstack]
  9060                           
  9061                           
  9062                           ;ds1307.c: 7:     unsigned char dummy;;ds1307.c: 9:     dummy = read_ds1307(0x00);
  9063     1EBF  3000               	movlw	0
  9064     1EC0  160A  118A  21A2  160A  158A  	fcall	_read_ds1307
  9065     1EC5  00F7               	movwf	init_ds1307@dummy
  9066     1EC6                     l5033:
  9067                           
  9068                           ;ds1307.c: 10:     dummy = dummy & 0x7F;
  9069     1EC6  0877               	movf	init_ds1307@dummy,w
  9070     1EC7  397F               	andlw	127
  9071     1EC8  00F7               	movwf	init_ds1307@dummy
  9072     1EC9                     l5035:
  9073                           
  9074                           ;ds1307.c: 11:     write_ds1307(0x00, dummy);
  9075     1EC9  0877               	movf	init_ds1307@dummy,w
  9076     1ECA  00F4               	movwf	write_ds1307@data
  9077     1ECB  3000               	movlw	0
  9078     1ECC  160A  158A  277B  160A  158A  	fcall	_write_ds1307
  9079     1ED1                     l198:
  9080     1ED1  0008               	return
  9081     1ED2                     __end_of_init_ds1307:
  9082                           
  9083                           	psect	text31
  9084     1F7B                     __ptext31:	
  9085 ;; *************** function _write_ds1307 *****************
  9086 ;; Defined at:
  9087 ;;		line 29 in file "ds1307.c"
  9088 ;; Parameters:    Size  Location     Type
  9089 ;;  addr            1    wreg     unsigned char 
  9090 ;;  data            1    4[COMMON] unsigned char 
  9091 ;; Auto vars:     Size  Location     Type
  9092 ;;  addr            1    5[COMMON] unsigned char 
  9093 ;; Return value:  Size  Location     Type
  9094 ;;                  1    wreg      void 
  9095 ;; Registers used:
  9096 ;;		wreg, status,2, status,0, pclath, cstack
  9097 ;; Tracked objects:
  9098 ;;		On entry : 0/0
  9099 ;;		On exit  : 0/0
  9100 ;;		Unchanged: 0/0
  9101 ;; Data sizes:     COMMON   BANK0   BANK1   BANK3   BANK2
  9102 ;;      Params:         1       0       0       0       0
  9103 ;;      Locals:         1       0       0       0       0
  9104 ;;      Temps:          0       0       0       0       0
  9105 ;;      Totals:         2       0       0       0       0
  9106 ;;Total ram usage:        2 bytes
  9107 ;; Hardware stack levels used: 1
  9108 ;; Hardware stack levels required when called: 3
  9109 ;; This function calls:
  9110 ;;		_i2c_start
  9111 ;;		_i2c_stop
  9112 ;;		_i2c_write
  9113 ;; This function is called by:
  9114 ;;		_init_ds1307
  9115 ;;		_write_time_rtc
  9116 ;; This function uses a non-reentrant model
  9117 ;;
  9118                           
  9119     1F7B                     _write_ds1307:	
  9120                           ;psect for function _write_ds1307
  9121                           
  9122                           
  9123                           ;incstack = 0
  9124                           ; Regs used in _write_ds1307: [wreg+status,2+status,0+pclath+cstack]
  9125                           ;write_ds1307@addr stored from wreg
  9126     1F7B  00F5               	movwf	write_ds1307@addr
  9127     1F7C                     l4729:
  9128                           
  9129                           ;ds1307.c: 29: void write_ds1307(unsigned char addr, unsigned char data);ds1307.c: 30: {
      +                          ;ds1307.c: 31:     i2c_start();
  9130     1F7C  160A  158A  2620  160A  158A  	fcall	_i2c_start
  9131                           
  9132                           ;ds1307.c: 32:     i2c_write(0b11010000);
  9133     1F81  30D0               	movlw	208
  9134     1F82  160A  158A  2650  160A  158A  	fcall	_i2c_write
  9135                           
  9136                           ;ds1307.c: 33:     i2c_write(addr);
  9137     1F87  0875               	movf	write_ds1307@addr,w
  9138     1F88  160A  158A  2650  160A  158A  	fcall	_i2c_write
  9139                           
  9140                           ;ds1307.c: 34:     i2c_write(data);
  9141     1F8D  0874               	movf	write_ds1307@data,w
  9142     1F8E  160A  158A  2650  160A  158A  	fcall	_i2c_write
  9143                           
  9144                           ;ds1307.c: 35:     i2c_stop();
  9145     1F93  160A  158A  2629  160A  158A  	fcall	_i2c_stop
  9146     1F98                     l204:
  9147     1F98  0008               	return
  9148     1F99                     __end_of_write_ds1307:
  9149                           
  9150                           	psect	text32
  9151     1E0B                     __ptext32:	
  9152 ;; *************** function _init_digital_keypad *****************
  9153 ;; Defined at:
  9154 ;;		line 4 in file "digital_keypad.c"
  9155 ;; Parameters:    Size  Location     Type
  9156 ;;		None
  9157 ;; Auto vars:     Size  Location     Type
  9158 ;;		None
  9159 ;; Return value:  Size  Location     Type
  9160 ;;                  1    wreg      void 
  9161 ;; Registers used:
  9162 ;;		wreg, status,2
  9163 ;; Tracked objects:
  9164 ;;		On entry : 0/0
  9165 ;;		On exit  : 0/0
  9166 ;;		Unchanged: 0/0
  9167 ;; Data sizes:     COMMON   BANK0   BANK1   BANK3   BANK2
  9168 ;;      Params:         0       0       0       0       0
  9169 ;;      Locals:         0       0       0       0       0
  9170 ;;      Temps:          0       0       0       0       0
  9171 ;;      Totals:         0       0       0       0       0
  9172 ;;Total ram usage:        0 bytes
  9173 ;; Hardware stack levels used: 1
  9174 ;; Hardware stack levels required when called: 1
  9175 ;; This function calls:
  9176 ;;		Nothing
  9177 ;; This function is called by:
  9178 ;;		_init_config
  9179 ;; This function uses a non-reentrant model
  9180 ;;
  9181                           
  9182     1E0B                     _init_digital_keypad:	
  9183                           ;psect for function _init_digital_keypad
  9184                           
  9185     1E0B                     l3491:	
  9186                           ;incstack = 0
  9187                           ; Regs used in _init_digital_keypad: [wreg+status,2]
  9188                           
  9189                           
  9190                           ;digital_keypad.c: 7:     TRISB = TRISB | 0x3F;
  9191     1E0B  1683               	bsf	3,5	;RP0=1, select bank1
  9192     1E0C  1303               	bcf	3,6	;RP1=0, select bank1
  9193     1E0D  0806               	movf	6,w	;volatile
  9194     1E0E  383F               	iorlw	63
  9195     1E0F  0086               	movwf	6	;volatile
  9196     1E10                     l42:
  9197     1E10  0008               	return
  9198     1E11                     __end_of_init_digital_keypad:
  9199                           
  9200                           	psect	text33
  9201     1E5B                     __ptext33:	
  9202 ;; *************** function _init_clcd *****************
  9203 ;; Defined at:
  9204 ;;		line 37 in file "clcd.c"
  9205 ;; Parameters:    Size  Location     Type
  9206 ;;		None
  9207 ;; Auto vars:     Size  Location     Type
  9208 ;;		None
  9209 ;; Return value:  Size  Location     Type
  9210 ;;                  1    wreg      void 
  9211 ;; Registers used:
  9212 ;;		wreg, status,2, status,0, pclath, cstack
  9213 ;; Tracked objects:
  9214 ;;		On entry : 0/0
  9215 ;;		On exit  : 0/0
  9216 ;;		Unchanged: 0/0
  9217 ;; Data sizes:     COMMON   BANK0   BANK1   BANK3   BANK2
  9218 ;;      Params:         0       0       0       0       0
  9219 ;;      Locals:         0       0       0       0       0
  9220 ;;      Temps:          0       0       0       0       0
  9221 ;;      Totals:         0       0       0       0       0
  9222 ;;Total ram usage:        0 bytes
  9223 ;; Hardware stack levels used: 1
  9224 ;; Hardware stack levels required when called: 3
  9225 ;; This function calls:
  9226 ;;		_init_display_controller
  9227 ;; This function is called by:
  9228 ;;		_init_config
  9229 ;; This function uses a non-reentrant model
  9230 ;;
  9231                           
  9232     1E5B                     _init_clcd:	
  9233                           ;psect for function _init_clcd
  9234                           
  9235     1E5B                     l5011:	
  9236                           ;incstack = 0
  9237                           ; Regs used in _init_clcd: [wreg+status,2+status,0+pclath+cstack]
  9238                           
  9239                           
  9240                           ;clcd.c: 40:     TRISD = 0x00;
  9241     1E5B  1683               	bsf	3,5	;RP0=1, select bank1
  9242     1E5C  1303               	bcf	3,6	;RP1=0, select bank1
  9243     1E5D  0188               	clrf	8	;volatile
  9244     1E5E                     l5013:
  9245                           
  9246                           ;clcd.c: 43:     TRISE2 = 0;
  9247     1E5E  1109               	bcf	9,2	;volatile
  9248     1E5F                     l5015:
  9249                           
  9250                           ;clcd.c: 44:     TRISE1 = 0;
  9251     1E5F  1089               	bcf	9,1	;volatile
  9252     1E60                     l5017:
  9253                           
  9254                           ;clcd.c: 46:     init_display_controller();
  9255     1E60  160A  118A  26CA  160A  158A  	fcall	_init_display_controller
  9256     1E65                     l23:
  9257     1E65  0008               	return
  9258     1E66                     __end_of_init_clcd:
  9259                           
  9260                           	psect	text34
  9261     16CA                     __ptext34:	
  9262 ;; *************** function _init_display_controller *****************
  9263 ;; Defined at:
  9264 ;;		line 16 in file "clcd.c"
  9265 ;; Parameters:    Size  Location     Type
  9266 ;;		None
  9267 ;; Auto vars:     Size  Location     Type
  9268 ;;		None
  9269 ;; Return value:  Size  Location     Type
  9270 ;;                  1    wreg      void 
  9271 ;; Registers used:
  9272 ;;		wreg, status,2, status,0, pclath, cstack
  9273 ;; Tracked objects:
  9274 ;;		On entry : 0/0
  9275 ;;		On exit  : 0/0
  9276 ;;		Unchanged: 0/0
  9277 ;; Data sizes:     COMMON   BANK0   BANK1   BANK3   BANK2
  9278 ;;      Params:         0       0       0       0       0
  9279 ;;      Locals:         0       0       0       0       0
  9280 ;;      Temps:          0       2       0       0       0
  9281 ;;      Totals:         0       2       0       0       0
  9282 ;;Total ram usage:        2 bytes
  9283 ;; Hardware stack levels used: 1
  9284 ;; Hardware stack levels required when called: 2
  9285 ;; This function calls:
  9286 ;;		_clcd_write
  9287 ;; This function is called by:
  9288 ;;		_init_clcd
  9289 ;; This function uses a non-reentrant model
  9290 ;;
  9291                           
  9292     16CA                     _init_display_controller:	
  9293                           ;psect for function _init_display_controller
  9294                           
  9295     16CA                     l4767:	
  9296                           ;incstack = 0
  9297                           ; Regs used in _init_display_controller: [wreg+status,2+status,0+pclath+cstack]
  9298                           
  9299                           
  9300                           ;clcd.c: 19:     _delay((unsigned long)((30)*(20000000/4000.0)));
  9301     16CA  30C3               	movlw	195
  9302     16CB  1283               	bcf	3,5	;RP0=0, select bank0
  9303     16CC  1303               	bcf	3,6	;RP1=0, select bank0
  9304     16CD  00A1               	movwf	??_init_display_controller+1
  9305     16CE  30CC               	movlw	204
  9306     16CF  00A0               	movwf	??_init_display_controller
  9307     16D0                     u7037:
  9308     16D0  0BA0               	decfsz	??_init_display_controller,f
  9309     16D1  2ED0               	goto	u7037
  9310     16D2  0BA1               	decfsz	??_init_display_controller+1,f
  9311     16D3  2ED0               	goto	u7037
  9312     16D4  0000               	nop
  9313     16D5                     l4769:
  9314                           
  9315                           ;clcd.c: 22:     clcd_write(0x33, 0);
  9316     16D5  01F3               	clrf	clcd_write@mode
  9317     16D6  3033               	movlw	51
  9318     16D7  160A  158A  2799  160A  118A  	fcall	_clcd_write
  9319     16DC                     l4771:
  9320                           
  9321                           ;clcd.c: 23:     _delay((unsigned long)((4100)*(20000000/4000000.0)));
  9322     16DC  301B               	movlw	27
  9323     16DD  1283               	bcf	3,5	;RP0=0, select bank0
  9324     16DE  1303               	bcf	3,6	;RP1=0, select bank0
  9325     16DF  00A1               	movwf	??_init_display_controller+1
  9326     16E0  309D               	movlw	157
  9327     16E1  00A0               	movwf	??_init_display_controller
  9328     16E2                     u7047:
  9329     16E2  0BA0               	decfsz	??_init_display_controller,f
  9330     16E3  2EE2               	goto	u7047
  9331     16E4  0BA1               	decfsz	??_init_display_controller+1,f
  9332     16E5  2EE2               	goto	u7047
  9333     16E6  2EE7               	nop2
  9334                           
  9335                           ;clcd.c: 24:     clcd_write(0x33, 0);
  9336     16E7  01F3               	clrf	clcd_write@mode
  9337     16E8  3033               	movlw	51
  9338     16E9  160A  158A  2799  160A  118A  	fcall	_clcd_write
  9339     16EE                     l4773:
  9340                           
  9341                           ;clcd.c: 25:     _delay((unsigned long)((100)*(20000000/4000000.0)));
  9342     16EE  30A5               	movlw	165
  9343     16EF  1283               	bcf	3,5	;RP0=0, select bank0
  9344     16F0  1303               	bcf	3,6	;RP1=0, select bank0
  9345     16F1  00A0               	movwf	??_init_display_controller
  9346     16F2                     u7057:
  9347     16F2  0BA0               	decfsz	??_init_display_controller,f
  9348     16F3  2EF2               	goto	u7057
  9349     16F4  2EF5               	nop2
  9350     16F5                     l4775:
  9351                           
  9352                           ;clcd.c: 26:     clcd_write(0x33, 0);
  9353     16F5  01F3               	clrf	clcd_write@mode
  9354     16F6  3033               	movlw	51
  9355     16F7  160A  158A  2799  160A  118A  	fcall	_clcd_write
  9356     16FC                     l4777:
  9357                           
  9358                           ;clcd.c: 27:     _delay((unsigned long)((1)*(20000000/4000000.0)));
  9359     16FC  2EFD               	nop2	;2 cycle nop
  9360     16FD  2EFE               	nop2	;2 cycle nop
  9361     16FE  0000               	nop
  9362     16FF                     l4779:
  9363                           
  9364                           ;clcd.c: 29:     clcd_write(0x38, 0);
  9365     16FF  01F3               	clrf	clcd_write@mode
  9366     1700  3038               	movlw	56
  9367     1701  160A  158A  2799  160A  118A  	fcall	_clcd_write
  9368     1706                     l4781:
  9369                           
  9370                           ;clcd.c: 30:     _delay((unsigned long)((100)*(20000000/4000000.0)));
  9371     1706  30A5               	movlw	165
  9372     1707  1283               	bcf	3,5	;RP0=0, select bank0
  9373     1708  1303               	bcf	3,6	;RP1=0, select bank0
  9374     1709  00A0               	movwf	??_init_display_controller
  9375     170A                     u7067:
  9376     170A  0BA0               	decfsz	??_init_display_controller,f
  9377     170B  2F0A               	goto	u7067
  9378     170C  2F0D               	nop2
  9379                           
  9380                           ;clcd.c: 31:     clcd_write(0x01, 0);
  9381     170D  01F3               	clrf	clcd_write@mode
  9382     170E  3001               	movlw	1
  9383     170F  160A  158A  2799  160A  118A  	fcall	_clcd_write
  9384     1714                     l4783:
  9385                           
  9386                           ;clcd.c: 32:     _delay((unsigned long)((500)*(20000000/4000000.0)));
  9387     1714  3004               	movlw	4
  9388     1715  1283               	bcf	3,5	;RP0=0, select bank0
  9389     1716  1303               	bcf	3,6	;RP1=0, select bank0
  9390     1717  00A1               	movwf	??_init_display_controller+1
  9391     1718  303D               	movlw	61
  9392     1719  00A0               	movwf	??_init_display_controller
  9393     171A                     u7077:
  9394     171A  0BA0               	decfsz	??_init_display_controller,f
  9395     171B  2F1A               	goto	u7077
  9396     171C  0BA1               	decfsz	??_init_display_controller+1,f
  9397     171D  2F1A               	goto	u7077
  9398     171E                     l4785:
  9399                           
  9400                           ;clcd.c: 33:     clcd_write(0x0C, 0);
  9401     171E  01F3               	clrf	clcd_write@mode
  9402     171F  300C               	movlw	12
  9403     1720  160A  158A  2799  160A  118A  	fcall	_clcd_write
  9404                           
  9405                           ;clcd.c: 34:     _delay((unsigned long)((100)*(20000000/4000000.0)));
  9406     1725  30A5               	movlw	165
  9407     1726  1283               	bcf	3,5	;RP0=0, select bank0
  9408     1727  1303               	bcf	3,6	;RP1=0, select bank0
  9409     1728  00A0               	movwf	??_init_display_controller
  9410     1729                     u7087:
  9411     1729  0BA0               	decfsz	??_init_display_controller,f
  9412     172A  2F29               	goto	u7087
  9413     172B  2F2C               	nop2
  9414     172C                     l20:
  9415     172C  0008               	return
  9416     172D                     __end_of_init_display_controller:
  9417                           
  9418                           	psect	text35
  9419     1E11                     __ptext35:	
  9420 ;; *************** function _init_adc *****************
  9421 ;; Defined at:
  9422 ;;		line 3 in file "adc.c"
  9423 ;; Parameters:    Size  Location     Type
  9424 ;;		None
  9425 ;; Auto vars:     Size  Location     Type
  9426 ;;		None
  9427 ;; Return value:  Size  Location     Type
  9428 ;;                  1    wreg      void 
  9429 ;; Registers used:
  9430 ;;		None
  9431 ;; Tracked objects:
  9432 ;;		On entry : 0/0
  9433 ;;		On exit  : 0/0
  9434 ;;		Unchanged: 0/0
  9435 ;; Data sizes:     COMMON   BANK0   BANK1   BANK3   BANK2
  9436 ;;      Params:         0       0       0       0       0
  9437 ;;      Locals:         0       0       0       0       0
  9438 ;;      Temps:          0       0       0       0       0
  9439 ;;      Totals:         0       0       0       0       0
  9440 ;;Total ram usage:        0 bytes
  9441 ;; Hardware stack levels used: 1
  9442 ;; Hardware stack levels required when called: 1
  9443 ;; This function calls:
  9444 ;;		Nothing
  9445 ;; This function is called by:
  9446 ;;		_init_config
  9447 ;; This function uses a non-reentrant model
  9448 ;;
  9449                           
  9450     1E11                     _init_adc:	
  9451                           ;psect for function _init_adc
  9452                           
  9453     1E11                     l3493:	
  9454                           ;incstack = 0
  9455                           ; Regs used in _init_adc: []
  9456                           
  9457                           
  9458                           ;adc.c: 6:     ADFM = 1;
  9459     1E11  1683               	bsf	3,5	;RP0=1, select bank1
  9460     1E12  1303               	bcf	3,6	;RP1=0, select bank1
  9461     1E13  179F               	bsf	31,7	;volatile
  9462                           
  9463                           ;adc.c: 9:     ADON = 1;
  9464     1E14  1283               	bcf	3,5	;RP0=0, select bank0
  9465     1E15  1303               	bcf	3,6	;RP1=0, select bank0
  9466     1E16  141F               	bsf	31,0	;volatile
  9467     1E17                     l67:
  9468     1E17  0008               	return
  9469     1E18                     __end_of_init_adc:
  9470                           
  9471                           	psect	text36
  9472     0C73                     __ptext36:	
  9473 ;; *************** function _dashboard *****************
  9474 ;; Defined at:
  9475 ;;		line 18 in file "dashboard.c"
  9476 ;; Parameters:    Size  Location     Type
  9477 ;;  event_key       1    wreg     unsigned char 
  9478 ;; Auto vars:     Size  Location     Type
  9479 ;;  event_key       1    2[BANK3 ] unsigned char 
  9480 ;;  j               2    3[BANK3 ] int 
  9481 ;;  reg             2    0[BANK3 ] unsigned short 
  9482 ;; Return value:  Size  Location     Type
  9483 ;;                  1    wreg      void 
  9484 ;; Registers used:
  9485 ;;		wreg, fsr0l, fsr0h, status,2, status,0, btemp+1, pclath, cstack
  9486 ;; Tracked objects:
  9487 ;;		On entry : 0/0
  9488 ;;		On exit  : 0/0
  9489 ;;		Unchanged: 0/0
  9490 ;; Data sizes:     COMMON   BANK0   BANK1   BANK3   BANK2
  9491 ;;      Params:         0       0       0       0       0
  9492 ;;      Locals:         0       0       0       5       0
  9493 ;;      Temps:          0       4       0       0       0
  9494 ;;      Totals:         0       4       0       5       0
  9495 ;;Total ram usage:        9 bytes
  9496 ;; Hardware stack levels used: 1
  9497 ;; Hardware stack levels required when called: 6
  9498 ;; This function calls:
  9499 ;;		___fldiv
  9500 ;;		___fltol
  9501 ;;		___lwdiv
  9502 ;;		___lwmod
  9503 ;;		___xxtofl
  9504 ;;		_clcd_print
  9505 ;;		_display_time
  9506 ;;		_get_time
  9507 ;;		_read_adc
  9508 ;;		_write_event_log
  9509 ;; This function is called by:
  9510 ;;		_main
  9511 ;; This function uses a non-reentrant model
  9512 ;;
  9513                           
  9514     0C73                     _dashboard:	
  9515                           ;psect for function _dashboard
  9516                           
  9517                           
  9518                           ;incstack = 0
  9519                           ; Regs used in _dashboard: [wreg-fsr0h+status,2+status,0+btemp+1+pclath+cstack]
  9520                           ;dashboard@event_key stored from wreg
  9521     0C73  1683               	bsf	3,5	;RP0=1, select bank3
  9522     0C74  1703               	bsf	3,6	;RP1=1, select bank3
  9523     0C75  00DE               	movwf	dashboard@event_key^(0+384)
  9524     0C76                     l5779:
  9525                           
  9526                           ;dashboard.c: 18: void dashboard(unsigned char event_key);dashboard.c: 19: {;dashboard.c
      +                          : 21:     clcd_print(" TIME     E  SP",(0x80 + 0));
  9527     0C76  30BB               	movlw	low (STR_10| (0+32768))
  9528     0C77  1283               	bcf	3,5	;RP0=0, select bank0
  9529     0C78  1303               	bcf	3,6	;RP1=0, select bank0
  9530     0C79  00A0               	movwf	clcd_print@str
  9531     0C7A  3090               	movlw	high (STR_10| (0+32768))
  9532     0C7B  00A1               	movwf	clcd_print@str+1
  9533     0C7C  3080               	movlw	128
  9534     0C7D  00A2               	movwf	clcd_print@addr
  9535     0C7E  160A  118A  227C  120A  158A  	fcall	_clcd_print
  9536     0C83                     l5781:
  9537                           
  9538                           ;dashboard.c: 22:     static unsigned char i = 0;;dashboard.c: 23:     get_time(clock_re
      +                          g);
  9539     0C83  30E2               	movlw	(low (_clock_reg| 0))& (0+255)
  9540     0C84  120A  118A  27DD  120A  158A  	fcall	_get_time
  9541     0C89                     l5783:
  9542                           
  9543                           ;dashboard.c: 24:     display_time(clock_reg);
  9544     0C89  30E2               	movlw	(low (_clock_reg| 0))& (0+255)
  9545     0C8A  160A  118A  2795  120A  158A  	fcall	_display_time
  9546     0C8F                     l5785:
  9547                           
  9548                           ;dashboard.c: 25:     unsigned short int reg = read_adc()/10.23;
  9549     0C8F  160A  158A  2689  120A  158A  	fcall	_read_adc
  9550     0C94  0873               	movf	?_read_adc,w
  9551     0C95  1283               	bcf	3,5	;RP0=0, select bank0
  9552     0C96  1303               	bcf	3,6	;RP1=0, select bank0
  9553     0C97  00D2               	movwf	??_dashboard
  9554     0C98  0874               	movf	?_read_adc+1,w
  9555     0C99  00D3               	movwf	??_dashboard+1
  9556     0C9A  01D4               	clrf	??_dashboard+2
  9557     0C9B  01D5               	clrf	??_dashboard+3
  9558     0C9C  0855               	movf	??_dashboard+3,w
  9559     0C9D  00A3               	movwf	___xxtofl@val+3
  9560     0C9E  0854               	movf	??_dashboard+2,w
  9561     0C9F  00A2               	movwf	___xxtofl@val+2
  9562     0CA0  0853               	movf	??_dashboard+1,w
  9563     0CA1  00A1               	movwf	___xxtofl@val+1
  9564     0CA2  0852               	movf	??_dashboard,w
  9565     0CA3  00A0               	movwf	___xxtofl@val
  9566     0CA4  3000               	movlw	0
  9567     0CA5  120A  158A  2234  120A  158A  	fcall	___xxtofl
  9568     0CAA  1283               	bcf	3,5	;RP0=0, select bank0
  9569     0CAB  1303               	bcf	3,6	;RP1=0, select bank0
  9570     0CAC  0823               	movf	?___xxtofl+3,w
  9571     0CAD  00B5               	movwf	___fldiv@b+3
  9572     0CAE  0822               	movf	?___xxtofl+2,w
  9573     0CAF  00B4               	movwf	___fldiv@b+2
  9574     0CB0  0821               	movf	?___xxtofl+1,w
  9575     0CB1  00B3               	movwf	___fldiv@b+1
  9576     0CB2  0820               	movf	?___xxtofl,w
  9577     0CB3  00B2               	movwf	___fldiv@b
  9578     0CB4  3041               	movlw	65
  9579     0CB5  00B1               	movwf	___fldiv@a+3
  9580     0CB6  3023               	movlw	35
  9581     0CB7  00B0               	movwf	___fldiv@a+2
  9582     0CB8  30AE               	movlw	174
  9583     0CB9  00AF               	movwf	___fldiv@a+1
  9584     0CBA  3014               	movlw	20
  9585     0CBB  00AE               	movwf	___fldiv@a
  9586     0CBC  120A  158A  2631  120A  158A  	fcall	___fldiv
  9587     0CC1  1283               	bcf	3,5	;RP0=0, select bank0
  9588     0CC2  1303               	bcf	3,6	;RP1=0, select bank0
  9589     0CC3  0831               	movf	?___fldiv+3,w
  9590     0CC4  00CB               	movwf	___fltol@f1+3
  9591     0CC5  0830               	movf	?___fldiv+2,w
  9592     0CC6  00CA               	movwf	___fltol@f1+2
  9593     0CC7  082F               	movf	?___fldiv+1,w
  9594     0CC8  00C9               	movwf	___fltol@f1+1
  9595     0CC9  082E               	movf	?___fldiv,w
  9596     0CCA  00C8               	movwf	___fltol@f1
  9597     0CCB  120A  158A  20BD  120A  158A  	fcall	___fltol
  9598     0CD0  1283               	bcf	3,5	;RP0=0, select bank0
  9599     0CD1  1303               	bcf	3,6	;RP1=0, select bank0
  9600     0CD2  0849               	movf	?___fltol+1,w
  9601     0CD3  1683               	bsf	3,5	;RP0=1, select bank3
  9602     0CD4  1703               	bsf	3,6	;RP1=1, select bank3
  9603     0CD5  00DD               	movwf	(dashboard@reg+1)^(0+384)
  9604     0CD6  1283               	bcf	3,5	;RP0=0, select bank0
  9605     0CD7  1303               	bcf	3,6	;RP1=0, select bank0
  9606     0CD8  0848               	movf	?___fltol,w
  9607     0CD9  1683               	bsf	3,5	;RP0=1, select bank3
  9608     0CDA  1703               	bsf	3,6	;RP1=1, select bank3
  9609     0CDB  00DC               	movwf	dashboard@reg^(0+384)
  9610     0CDC                     l5787:
  9611                           
  9612                           ;dashboard.c: 28:     for(int j=2; j>=0; j--)
  9613     0CDC  3002               	movlw	2
  9614     0CDD  00DF               	movwf	dashboard@j^(0+384)
  9615     0CDE  3000               	movlw	0
  9616     0CDF  00E0               	movwf	(dashboard@j^(0+384)+1)
  9617     0CE0                     l5793:
  9618                           
  9619                           ;dashboard.c: 29:     {;dashboard.c: 30:         speed[j] = reg%10 + '0';
  9620     0CE0  085F               	movf	dashboard@j^(0+384),w
  9621     0CE1  3EDE               	addlw	(low (_speed| 0))& (0+255)
  9622     0CE2  0084               	movwf	4
  9623     0CE3  300A               	movlw	10
  9624     0CE4  00F3               	movwf	___lwmod@divisor
  9625     0CE5  3000               	movlw	0
  9626     0CE6  00F4               	movwf	___lwmod@divisor+1
  9627     0CE7  085D               	movf	(dashboard@reg+1)^(0+384),w
  9628     0CE8  00F6               	movwf	___lwmod@dividend+1
  9629     0CE9  085C               	movf	dashboard@reg^(0+384),w
  9630     0CEA  00F5               	movwf	___lwmod@dividend
  9631     0CEB  160A  118A  22E3  120A  158A  	fcall	___lwmod
  9632     0CF0  0873               	movf	?___lwmod,w
  9633     0CF1  3E30               	addlw	48
  9634     0CF2  1383               	bcf	3,7	;select IRP bank1
  9635     0CF3  0080               	movwf	0
  9636     0CF4                     l5795:
  9637                           
  9638                           ;dashboard.c: 31:         reg = reg / 10;
  9639     0CF4  300A               	movlw	10
  9640     0CF5  00F3               	movwf	___lwdiv@divisor
  9641     0CF6  3000               	movlw	0
  9642     0CF7  00F4               	movwf	___lwdiv@divisor+1
  9643     0CF8  1683               	bsf	3,5	;RP0=1, select bank3
  9644     0CF9  1703               	bsf	3,6	;RP1=1, select bank3
  9645     0CFA  085D               	movf	(dashboard@reg+1)^(0+384),w
  9646     0CFB  00F6               	movwf	___lwdiv@dividend+1
  9647     0CFC  085C               	movf	dashboard@reg^(0+384),w
  9648     0CFD  00F5               	movwf	___lwdiv@dividend
  9649     0CFE  160A  118A  2418  120A  158A  	fcall	___lwdiv
  9650     0D03  0874               	movf	?___lwdiv+1,w
  9651     0D04  1683               	bsf	3,5	;RP0=1, select bank3
  9652     0D05  1703               	bsf	3,6	;RP1=1, select bank3
  9653     0D06  00DD               	movwf	(dashboard@reg+1)^(0+384)
  9654     0D07  0873               	movf	?___lwdiv,w
  9655     0D08  00DC               	movwf	dashboard@reg^(0+384)
  9656     0D09                     l5797:
  9657                           
  9658                           ;dashboard.c: 32:     }
  9659     0D09  30FF               	movlw	255
  9660     0D0A  07DF               	addwf	dashboard@j^(0+384),f
  9661     0D0B  1803               	skipnc
  9662     0D0C  0AE0               	incf	(dashboard@j+1)^(0+384),f
  9663     0D0D  30FF               	movlw	255
  9664     0D0E  07E0               	addwf	(dashboard@j+1)^(0+384),f
  9665     0D0F                     l5799:
  9666     0D0F  1FE0               	btfss	(dashboard@j+1)^(0+384),7
  9667     0D10  2D12               	goto	u6441
  9668     0D11  2D13               	goto	u6440
  9669     0D12                     u6441:
  9670     0D12  2CE0               	goto	l5793
  9671     0D13                     u6440:
  9672     0D13                     l5801:
  9673                           
  9674                           ;dashboard.c: 33:     speed[3] = '\0';
  9675     0D13  1683               	bsf	3,5	;RP0=1, select bank1
  9676     0D14  1303               	bcf	3,6	;RP1=0, select bank1
  9677     0D15  01E1               	clrf	(_speed^(0+128)+3)
  9678     0D16                     l5803:
  9679                           
  9680                           ;dashboard.c: 34:     if(event_key == 0x3E)
  9681     0D16  303E               	movlw	62
  9682     0D17  1683               	bsf	3,5	;RP0=1, select bank3
  9683     0D18  1703               	bsf	3,6	;RP1=1, select bank3
  9684     0D19  065E               	xorwf	dashboard@event_key^(0+384),w
  9685     0D1A  1D03               	btfss	3,2
  9686     0D1B  2D1D               	goto	u6451
  9687     0D1C  2D1E               	goto	u6450
  9688     0D1D                     u6451:
  9689     0D1D  2D64               	goto	l5825
  9690     0D1E                     u6450:
  9691     0D1E                     l5805:
  9692                           
  9693                           ;dashboard.c: 35:     {;dashboard.c: 36:         i = 8;
  9694     0D1E  3008               	movlw	8
  9695     0D1F  1283               	bcf	3,5	;RP0=0, select bank0
  9696     0D20  1303               	bcf	3,6	;RP1=0, select bank0
  9697     0D21  00E3               	movwf	dashboard@i
  9698     0D22                     l5807:
  9699                           
  9700                           ;dashboard.c: 37:         if(no_event)
  9701     0D22  086B               	movf	_no_event,w
  9702     0D23  1903               	btfsc	3,2
  9703     0D24  2D26               	goto	u6461
  9704     0D25  2D27               	goto	u6460
  9705     0D26                     u6461:
  9706     0D26  2D28               	goto	l5811
  9707     0D27                     u6460:
  9708     0D27                     l5809:
  9709                           
  9710                           ;dashboard.c: 38:         {;dashboard.c: 39:             no_event = 0;
  9711     0D27  01EB               	clrf	_no_event
  9712     0D28                     l5811:
  9713                           
  9714                           ;dashboard.c: 41:         if(event_count < 10)
  9715     0D28  086E               	movf	_event_count+1,w
  9716     0D29  3A80               	xorlw	128
  9717     0D2A  00FF               	movwf	btemp+1
  9718     0D2B  3080               	movlw	128
  9719     0D2C  027F               	subwf	btemp+1,w
  9720     0D2D  1D03               	skipz
  9721     0D2E  2D31               	goto	u6475
  9722     0D2F  300A               	movlw	10
  9723     0D30  026D               	subwf	_event_count,w
  9724     0D31                     u6475:
  9725     0D31  1803               	skipnc
  9726     0D32  2D34               	goto	u6471
  9727     0D33  2D35               	goto	u6470
  9728     0D34                     u6471:
  9729     0D34  2D46               	goto	l5819
  9730     0D35                     u6470:
  9731     0D35                     l5813:
  9732                           
  9733                           ;dashboard.c: 42:         {;dashboard.c: 43:             event_count++;
  9734     0D35  3001               	movlw	1
  9735     0D36  1283               	bcf	3,5	;RP0=0, select bank0
  9736     0D37  1303               	bcf	3,6	;RP1=0, select bank0
  9737     0D38  07ED               	addwf	_event_count,f
  9738     0D39  1803               	skipnc
  9739     0D3A  0AEE               	incf	_event_count+1,f
  9740     0D3B  3000               	movlw	0
  9741     0D3C  07EE               	addwf	_event_count+1,f
  9742     0D3D                     l5815:
  9743                           
  9744                           ;dashboard.c: 44:             if(event_count == 10)
  9745     0D3D  300A               	movlw	10
  9746     0D3E  066D               	xorwf	_event_count,w
  9747     0D3F  046E               	iorwf	_event_count+1,w
  9748     0D40  1D03               	btfss	3,2
  9749     0D41  2D43               	goto	u6481
  9750     0D42  2D44               	goto	u6480
  9751     0D43                     u6481:
  9752     0D43  2D46               	goto	l5819
  9753     0D44                     u6480:
  9754     0D44                     l5817:
  9755                           
  9756                           ;dashboard.c: 45:             {;dashboard.c: 46:                 event_count = 0;
  9757     0D44  01ED               	clrf	_event_count
  9758     0D45  01EE               	clrf	_event_count+1
  9759     0D46                     l5819:
  9760                           
  9761                           ;dashboard.c: 49:         if(event_10 < 9)
  9762     0D46  1283               	bcf	3,5	;RP0=0, select bank0
  9763     0D47  1303               	bcf	3,6	;RP1=0, select bank0
  9764     0D48  0866               	movf	_event_10+1,w
  9765     0D49  3A80               	xorlw	128
  9766     0D4A  00FF               	movwf	btemp+1
  9767     0D4B  3080               	movlw	128
  9768     0D4C  027F               	subwf	btemp+1,w
  9769     0D4D  1D03               	skipz
  9770     0D4E  2D51               	goto	u6495
  9771     0D4F  3009               	movlw	9
  9772     0D50  0265               	subwf	_event_10,w
  9773     0D51                     u6495:
  9774     0D51  1803               	skipnc
  9775     0D52  2D54               	goto	u6491
  9776     0D53  2D55               	goto	u6490
  9777     0D54                     u6491:
  9778     0D54  2D5D               	goto	l5823
  9779     0D55                     u6490:
  9780     0D55                     l5821:
  9781                           
  9782                           ;dashboard.c: 50:         {;dashboard.c: 51:             event_10++;
  9783     0D55  3001               	movlw	1
  9784     0D56  1283               	bcf	3,5	;RP0=0, select bank0
  9785     0D57  1303               	bcf	3,6	;RP1=0, select bank0
  9786     0D58  07E5               	addwf	_event_10,f
  9787     0D59  1803               	skipnc
  9788     0D5A  0AE6               	incf	_event_10+1,f
  9789     0D5B  3000               	movlw	0
  9790     0D5C  07E6               	addwf	_event_10+1,f
  9791     0D5D                     l5823:
  9792                           
  9793                           ;dashboard.c: 54:         write_event_log(i);
  9794     0D5D  3008               	movlw	8
  9795     0D5E  160A  118A  245E  120A  158A  	fcall	_write_event_log
  9796                           
  9797                           ;dashboard.c: 55:     }
  9798     0D63  2E0E               	goto	l5871
  9799     0D64                     l5825:
  9800     0D64  303D               	movlw	61
  9801     0D65  065E               	xorwf	dashboard@event_key^(0+384),w
  9802     0D66  1D03               	btfss	3,2
  9803     0D67  2D69               	goto	u6501
  9804     0D68  2D6A               	goto	u6500
  9805     0D69                     u6501:
  9806     0D69  2DBA               	goto	l5849
  9807     0D6A                     u6500:
  9808     0D6A                     l5827:
  9809     0D6A  3007               	movlw	7
  9810     0D6B  1283               	bcf	3,5	;RP0=0, select bank0
  9811     0D6C  1303               	bcf	3,6	;RP1=0, select bank0
  9812     0D6D  0263               	subwf	dashboard@i,w
  9813     0D6E  1803               	skipnc
  9814     0D6F  2D71               	goto	u6511
  9815     0D70  2D72               	goto	u6510
  9816     0D71                     u6511:
  9817     0D71  2DBA               	goto	l5849
  9818     0D72                     u6510:
  9819     0D72                     l5829:
  9820                           
  9821                           ;dashboard.c: 57:     {;dashboard.c: 58:         i++;
  9822     0D72  3001               	movlw	1
  9823     0D73  00FF               	movwf	btemp+1
  9824     0D74  087F               	movf	btemp+1,w
  9825     0D75  07E3               	addwf	dashboard@i,f
  9826     0D76                     l5831:
  9827                           
  9828                           ;dashboard.c: 59:         if(no_event)
  9829     0D76  086B               	movf	_no_event,w
  9830     0D77  1903               	btfsc	3,2
  9831     0D78  2D7A               	goto	u6521
  9832     0D79  2D7B               	goto	u6520
  9833     0D7A                     u6521:
  9834     0D7A  2D7C               	goto	l5835
  9835     0D7B                     u6520:
  9836     0D7B                     l5833:
  9837                           
  9838                           ;dashboard.c: 60:         {;dashboard.c: 61:             no_event = 0;
  9839     0D7B  01EB               	clrf	_no_event
  9840     0D7C                     l5835:
  9841                           
  9842                           ;dashboard.c: 63:         if(event_count < 10)
  9843     0D7C  086E               	movf	_event_count+1,w
  9844     0D7D  3A80               	xorlw	128
  9845     0D7E  00FF               	movwf	btemp+1
  9846     0D7F  3080               	movlw	128
  9847     0D80  027F               	subwf	btemp+1,w
  9848     0D81  1D03               	skipz
  9849     0D82  2D85               	goto	u6535
  9850     0D83  300A               	movlw	10
  9851     0D84  026D               	subwf	_event_count,w
  9852     0D85                     u6535:
  9853     0D85  1803               	skipnc
  9854     0D86  2D88               	goto	u6531
  9855     0D87  2D89               	goto	u6530
  9856     0D88                     u6531:
  9857     0D88  2D9A               	goto	l5843
  9858     0D89                     u6530:
  9859     0D89                     l5837:
  9860                           
  9861                           ;dashboard.c: 64:         {;dashboard.c: 65:             event_count++;
  9862     0D89  3001               	movlw	1
  9863     0D8A  1283               	bcf	3,5	;RP0=0, select bank0
  9864     0D8B  1303               	bcf	3,6	;RP1=0, select bank0
  9865     0D8C  07ED               	addwf	_event_count,f
  9866     0D8D  1803               	skipnc
  9867     0D8E  0AEE               	incf	_event_count+1,f
  9868     0D8F  3000               	movlw	0
  9869     0D90  07EE               	addwf	_event_count+1,f
  9870     0D91                     l5839:
  9871                           
  9872                           ;dashboard.c: 66:             if(event_count == 10)
  9873     0D91  300A               	movlw	10
  9874     0D92  066D               	xorwf	_event_count,w
  9875     0D93  046E               	iorwf	_event_count+1,w
  9876     0D94  1D03               	btfss	3,2
  9877     0D95  2D97               	goto	u6541
  9878     0D96  2D98               	goto	u6540
  9879     0D97                     u6541:
  9880     0D97  2D9A               	goto	l5843
  9881     0D98                     u6540:
  9882     0D98                     l5841:
  9883                           
  9884                           ;dashboard.c: 67:             {;dashboard.c: 68:                 event_count = 0;
  9885     0D98  01ED               	clrf	_event_count
  9886     0D99  01EE               	clrf	_event_count+1
  9887     0D9A                     l5843:
  9888                           
  9889                           ;dashboard.c: 71:         if(event_10 < 9)
  9890     0D9A  1283               	bcf	3,5	;RP0=0, select bank0
  9891     0D9B  1303               	bcf	3,6	;RP1=0, select bank0
  9892     0D9C  0866               	movf	_event_10+1,w
  9893     0D9D  3A80               	xorlw	128
  9894     0D9E  00FF               	movwf	btemp+1
  9895     0D9F  3080               	movlw	128
  9896     0DA0  027F               	subwf	btemp+1,w
  9897     0DA1  1D03               	skipz
  9898     0DA2  2DA5               	goto	u6555
  9899     0DA3  3009               	movlw	9
  9900     0DA4  0265               	subwf	_event_10,w
  9901     0DA5                     u6555:
  9902     0DA5  1803               	skipnc
  9903     0DA6  2DA8               	goto	u6551
  9904     0DA7  2DA9               	goto	u6550
  9905     0DA8                     u6551:
  9906     0DA8  2DB1               	goto	l5847
  9907     0DA9                     u6550:
  9908     0DA9                     l5845:
  9909                           
  9910                           ;dashboard.c: 72:         {;dashboard.c: 73:             event_10++;
  9911     0DA9  3001               	movlw	1
  9912     0DAA  1283               	bcf	3,5	;RP0=0, select bank0
  9913     0DAB  1303               	bcf	3,6	;RP1=0, select bank0
  9914     0DAC  07E5               	addwf	_event_10,f
  9915     0DAD  1803               	skipnc
  9916     0DAE  0AE6               	incf	_event_10+1,f
  9917     0DAF  3000               	movlw	0
  9918     0DB0  07E6               	addwf	_event_10+1,f
  9919     0DB1                     l5847:
  9920                           
  9921                           ;dashboard.c: 75:         write_event_log(i);
  9922     0DB1  1283               	bcf	3,5	;RP0=0, select bank0
  9923     0DB2  1303               	bcf	3,6	;RP1=0, select bank0
  9924     0DB3  0863               	movf	dashboard@i,w
  9925     0DB4  160A  118A  245E  120A  158A  	fcall	_write_event_log
  9926                           
  9927                           ;dashboard.c: 77:     }
  9928     0DB9  2E0E               	goto	l5871
  9929     0DBA                     l5849:
  9930     0DBA  303B               	movlw	59
  9931     0DBB  1683               	bsf	3,5	;RP0=1, select bank3
  9932     0DBC  1703               	bsf	3,6	;RP1=1, select bank3
  9933     0DBD  065E               	xorwf	dashboard@event_key^(0+384),w
  9934     0DBE  1D03               	btfss	3,2
  9935     0DBF  2DC1               	goto	u6561
  9936     0DC0  2DC2               	goto	u6560
  9937     0DC1                     u6561:
  9938     0DC1  2E0E               	goto	l5871
  9939     0DC2                     u6560:
  9940     0DC2                     l5851:
  9941     0DC2  1283               	bcf	3,5	;RP0=0, select bank0
  9942     0DC3  1303               	bcf	3,6	;RP1=0, select bank0
  9943     0DC4  0863               	movf	dashboard@i,w
  9944     0DC5  1903               	btfsc	3,2
  9945     0DC6  2DC8               	goto	u6571
  9946     0DC7  2DC9               	goto	u6570
  9947     0DC8                     u6571:
  9948     0DC8  2E0E               	goto	l5871
  9949     0DC9                     u6570:
  9950     0DC9                     l5853:
  9951                           
  9952                           ;dashboard.c: 79:     {;dashboard.c: 80:         i--;
  9953     0DC9  3001               	movlw	1
  9954     0DCA  02E3               	subwf	dashboard@i,f
  9955                           
  9956                           ;dashboard.c: 81:         if(no_event)
  9957     0DCB  086B               	movf	_no_event,w
  9958     0DCC  1903               	btfsc	3,2
  9959     0DCD  2DCF               	goto	u6581
  9960     0DCE  2DD0               	goto	u6580
  9961     0DCF                     u6581:
  9962     0DCF  2DD1               	goto	l5857
  9963     0DD0                     u6580:
  9964     0DD0                     l5855:
  9965                           
  9966                           ;dashboard.c: 82:         {;dashboard.c: 83:             no_event = 0;
  9967     0DD0  01EB               	clrf	_no_event
  9968     0DD1                     l5857:
  9969                           
  9970                           ;dashboard.c: 85:         if(event_count < 10)
  9971     0DD1  086E               	movf	_event_count+1,w
  9972     0DD2  3A80               	xorlw	128
  9973     0DD3  00FF               	movwf	btemp+1
  9974     0DD4  3080               	movlw	128
  9975     0DD5  027F               	subwf	btemp+1,w
  9976     0DD6  1D03               	skipz
  9977     0DD7  2DDA               	goto	u6595
  9978     0DD8  300A               	movlw	10
  9979     0DD9  026D               	subwf	_event_count,w
  9980     0DDA                     u6595:
  9981     0DDA  1803               	skipnc
  9982     0DDB  2DDD               	goto	u6591
  9983     0DDC  2DDE               	goto	u6590
  9984     0DDD                     u6591:
  9985     0DDD  2DEF               	goto	l5865
  9986     0DDE                     u6590:
  9987     0DDE                     l5859:
  9988                           
  9989                           ;dashboard.c: 86:         {;dashboard.c: 87:             event_count++;
  9990     0DDE  3001               	movlw	1
  9991     0DDF  1283               	bcf	3,5	;RP0=0, select bank0
  9992     0DE0  1303               	bcf	3,6	;RP1=0, select bank0
  9993     0DE1  07ED               	addwf	_event_count,f
  9994     0DE2  1803               	skipnc
  9995     0DE3  0AEE               	incf	_event_count+1,f
  9996     0DE4  3000               	movlw	0
  9997     0DE5  07EE               	addwf	_event_count+1,f
  9998     0DE6                     l5861:
  9999                           
 10000                           ;dashboard.c: 88:             if(event_count == 10)
 10001     0DE6  300A               	movlw	10
 10002     0DE7  066D               	xorwf	_event_count,w
 10003     0DE8  046E               	iorwf	_event_count+1,w
 10004     0DE9  1D03               	btfss	3,2
 10005     0DEA  2DEC               	goto	u6601
 10006     0DEB  2DED               	goto	u6600
 10007     0DEC                     u6601:
 10008     0DEC  2DEF               	goto	l5865
 10009     0DED                     u6600:
 10010     0DED                     l5863:
 10011                           
 10012                           ;dashboard.c: 89:             {;dashboard.c: 90:                 event_count = 0;
 10013     0DED  01ED               	clrf	_event_count
 10014     0DEE  01EE               	clrf	_event_count+1
 10015     0DEF                     l5865:
 10016                           
 10017                           ;dashboard.c: 93:         if(event_10 < 9)
 10018     0DEF  1283               	bcf	3,5	;RP0=0, select bank0
 10019     0DF0  1303               	bcf	3,6	;RP1=0, select bank0
 10020     0DF1  0866               	movf	_event_10+1,w
 10021     0DF2  3A80               	xorlw	128
 10022     0DF3  00FF               	movwf	btemp+1
 10023     0DF4  3080               	movlw	128
 10024     0DF5  027F               	subwf	btemp+1,w
 10025     0DF6  1D03               	skipz
 10026     0DF7  2DFA               	goto	u6615
 10027     0DF8  3009               	movlw	9
 10028     0DF9  0265               	subwf	_event_10,w
 10029     0DFA                     u6615:
 10030     0DFA  1803               	skipnc
 10031     0DFB  2DFD               	goto	u6611
 10032     0DFC  2DFE               	goto	u6610
 10033     0DFD                     u6611:
 10034     0DFD  2E06               	goto	l5869
 10035     0DFE                     u6610:
 10036     0DFE                     l5867:
 10037                           
 10038                           ;dashboard.c: 94:         {;dashboard.c: 95:             event_10++;
 10039     0DFE  3001               	movlw	1
 10040     0DFF  1283               	bcf	3,5	;RP0=0, select bank0
 10041     0E00  1303               	bcf	3,6	;RP1=0, select bank0
 10042     0E01  07E5               	addwf	_event_10,f
 10043     0E02  1803               	skipnc
 10044     0E03  0AE6               	incf	_event_10+1,f
 10045     0E04  3000               	movlw	0
 10046     0E05  07E6               	addwf	_event_10+1,f
 10047     0E06                     l5869:
 10048                           
 10049                           ;dashboard.c: 97:         write_event_log(i);
 10050     0E06  1283               	bcf	3,5	;RP0=0, select bank0
 10051     0E07  1303               	bcf	3,6	;RP1=0, select bank0
 10052     0E08  0863               	movf	dashboard@i,w
 10053     0E09  160A  118A  245E  120A  158A  	fcall	_write_event_log
 10054     0E0E                     l5871:
 10055                           
 10056                           ;dashboard.c: 99:     clcd_print(events[i],(0xC0 + 10));
 10057     0E0E  1283               	bcf	3,5	;RP0=0, select bank0
 10058     0E0F  1303               	bcf	3,6	;RP1=0, select bank0
 10059     0E10  0863               	movf	dashboard@i,w
 10060     0E11  00D2               	movwf	??_dashboard
 10061     0E12  0752               	addwf	??_dashboard,w
 10062     0E13  3EC0               	addlw	(low (_events| (0+256)))& (0+255)
 10063     0E14  0084               	movwf	4
 10064     0E15  1783               	bsf	3,7	;select IRP bank3
 10065     0E16  0800               	movf	0,w
 10066     0E17  00A0               	movwf	clcd_print@str
 10067     0E18  0A84               	incf	4,f
 10068     0E19  0800               	movf	0,w
 10069     0E1A  0384               	decf	4,f
 10070     0E1B  00A1               	movwf	clcd_print@str+1
 10071     0E1C  30CA               	movlw	202
 10072     0E1D  00A2               	movwf	clcd_print@addr
 10073     0E1E  160A  118A  227C  120A  158A  	fcall	_clcd_print
 10074     0E23                     l5873:
 10075                           
 10076                           ;dashboard.c: 100:     clcd_print(speed,(0xC0 + 13));
 10077     0E23  30DE               	movlw	(low (_speed| 0))& (0+255)
 10078     0E24  1283               	bcf	3,5	;RP0=0, select bank0
 10079     0E25  1303               	bcf	3,6	;RP1=0, select bank0
 10080     0E26  00A0               	movwf	clcd_print@str
 10081     0E27  3000               	movlw	0
 10082     0E28  00A1               	movwf	clcd_print@str+1
 10083     0E29  30CD               	movlw	205
 10084     0E2A  00A2               	movwf	clcd_print@addr
 10085     0E2B  160A  118A  227C  120A  158A  	fcall	_clcd_print
 10086     0E30                     l175:
 10087     0E30  0008               	return
 10088     0E31                     __end_of_dashboard:
 10089                           
 10090                           	psect	text37
 10091     145E                     __ptext37:	
 10092 ;; *************** function _write_event_log *****************
 10093 ;; Defined at:
 10094 ;;		line 13 in file "ext_eeprom.c"
 10095 ;; Parameters:    Size  Location     Type
 10096 ;;  i               1    wreg     unsigned char 
 10097 ;; Auto vars:     Size  Location     Type
 10098 ;;  i               1    7[COMMON] unsigned char 
 10099 ;; Return value:  Size  Location     Type
 10100 ;;                  1    wreg      void 
 10101 ;; Registers used:
 10102 ;;		wreg, fsr0l, fsr0h, status,2, status,0, btemp+1, pclath, cstack
 10103 ;; Tracked objects:
 10104 ;;		On entry : 0/0
 10105 ;;		On exit  : 0/0
 10106 ;;		Unchanged: 0/0
 10107 ;; Data sizes:     COMMON   BANK0   BANK1   BANK3   BANK2
 10108 ;;      Params:         0       0       0       0       0
 10109 ;;      Locals:         1       0       0       0       0
 10110 ;;      Temps:          0       2       0       0       0
 10111 ;;      Totals:         1       2       0       0       0
 10112 ;;Total ram usage:        3 bytes
 10113 ;; Hardware stack levels used: 1
 10114 ;; Hardware stack levels required when called: 4
 10115 ;; This function calls:
 10116 ;;		_ext_eeprom_write
 10117 ;;		_write_event
 10118 ;;		_write_speed
 10119 ;;		_write_time
 10120 ;; This function is called by:
 10121 ;;		_dashboard
 10122 ;; This function uses a non-reentrant model
 10123 ;;
 10124                           
 10125     145E                     _write_event_log:	
 10126                           ;psect for function _write_event_log
 10127                           
 10128                           
 10129                           ;incstack = 0
 10130                           ; Regs used in _write_event_log: [wreg-fsr0h+status,2+status,0+btemp+1+pclath+cstack]
 10131                           ;write_event_log@i stored from wreg
 10132     145E  00F7               	movwf	write_event_log@i
 10133     145F                     l5065:
 10134                           
 10135                           ;ext_eeprom.c: 13: void write_event_log(unsigned char i);ext_eeprom.c: 14: {;ext_eeprom.
      +                          c: 15:     if(event_count >= 10)
 10136     145F  1283               	bcf	3,5	;RP0=0, select bank0
 10137     1460  1303               	bcf	3,6	;RP1=0, select bank0
 10138     1461  086E               	movf	_event_count+1,w
 10139     1462  3A80               	xorlw	128
 10140     1463  00FF               	movwf	btemp+1
 10141     1464  3080               	movlw	128
 10142     1465  027F               	subwf	btemp+1,w
 10143     1466  1D03               	skipz
 10144     1467  2C6A               	goto	u5405
 10145     1468  300A               	movlw	10
 10146     1469  026D               	subwf	_event_count,w
 10147     146A                     u5405:
 10148     146A  1C03               	skipc
 10149     146B  2C6D               	goto	u5401
 10150     146C  2C6E               	goto	u5400
 10151     146D                     u5401:
 10152     146D  2C72               	goto	l5069
 10153     146E                     u5400:
 10154     146E                     l5067:
 10155                           
 10156                           ;ext_eeprom.c: 16:     {;ext_eeprom.c: 17:         event_count = 0;
 10157     146E  1283               	bcf	3,5	;RP0=0, select bank0
 10158     146F  1303               	bcf	3,6	;RP1=0, select bank0
 10159     1470  01ED               	clrf	_event_count
 10160     1471  01EE               	clrf	_event_count+1
 10161     1472                     l5069:
 10162                           
 10163                           ;ext_eeprom.c: 19:     write_time(clock_reg);
 10164     1472  30E2               	movlw	(low (_clock_reg| 0))& (0+255)
 10165     1473  120A  158A  2003  160A  118A  	fcall	_write_time
 10166     1478                     l5071:
 10167                           
 10168                           ;ext_eeprom.c: 20:     event_log[index++] = ' ';
 10169     1478  087A               	movf	_index,w
 10170     1479  3EB1               	addlw	(low (_event_log| (0+256)))& (0+255)
 10171     147A  0084               	movwf	4
 10172     147B  3020               	movlw	32
 10173     147C  1783               	bsf	3,7	;select IRP bank3
 10174     147D  0080               	movwf	0
 10175     147E                     l5073:
 10176     147E  3001               	movlw	1
 10177     147F  00FF               	movwf	btemp+1
 10178     1480  087F               	movf	btemp+1,w
 10179     1481  07FA               	addwf	_index,f
 10180     1482                     l5075:
 10181                           
 10182                           ;ext_eeprom.c: 21:     write_event(events[i]);
 10183     1482  0877               	movf	write_event_log@i,w
 10184     1483  1283               	bcf	3,5	;RP0=0, select bank0
 10185     1484  1303               	bcf	3,6	;RP1=0, select bank0
 10186     1485  00A4               	movwf	??_write_event_log
 10187     1486  0724               	addwf	??_write_event_log,w
 10188     1487  3EC0               	addlw	(low (_events| (0+256)))& (0+255)
 10189     1488  0084               	movwf	4
 10190     1489  0800               	movf	0,w
 10191     148A  00F3               	movwf	write_event@event
 10192     148B  0A84               	incf	4,f
 10193     148C  0800               	movf	0,w
 10194     148D  0384               	decf	4,f
 10195     148E  00F4               	movwf	write_event@event+1
 10196     148F  160A  118A  2223  160A  118A  	fcall	_write_event
 10197     1494                     l5077:
 10198                           
 10199                           ;ext_eeprom.c: 22:     event_log[index++] = ' ';
 10200     1494  087A               	movf	_index,w
 10201     1495  3EB1               	addlw	(low (_event_log| (0+256)))& (0+255)
 10202     1496  0084               	movwf	4
 10203     1497  3020               	movlw	32
 10204     1498  1783               	bsf	3,7	;select IRP bank3
 10205     1499  0080               	movwf	0
 10206     149A                     l5079:
 10207     149A  3001               	movlw	1
 10208     149B  00FF               	movwf	btemp+1
 10209     149C  087F               	movf	btemp+1,w
 10210     149D  07FA               	addwf	_index,f
 10211     149E                     l5081:
 10212                           
 10213                           ;ext_eeprom.c: 23:     write_speed(speed+1);
 10214     149E  30DF               	movlw	(low ((_speed| 0+1)))& (0+255)
 10215     149F  160A  158A  275E  160A  118A  	fcall	_write_speed
 10216     14A4                     l5083:
 10217                           
 10218                           ;ext_eeprom.c: 24:     ext_eeprom_write(event_log);
 10219     14A4  30B1               	movlw	(low (_event_log| (0+256)))& (0+255)
 10220     14A5  160A  118A  260E  160A  118A  	fcall	_ext_eeprom_write
 10221     14AA                     l548:
 10222     14AA  0008               	return
 10223     14AB                     __end_of_write_event_log:
 10224                           
 10225                           	psect	text38
 10226     0803                     __ptext38:	
 10227 ;; *************** function _write_time *****************
 10228 ;; Defined at:
 10229 ;;		line 27 in file "ext_eeprom.c"
 10230 ;; Parameters:    Size  Location     Type
 10231 ;;  clock_reg       1    wreg     PTR unsigned char 
 10232 ;;		 -> clock_reg(3), 
 10233 ;; Auto vars:     Size  Location     Type
 10234 ;;  clock_reg       1    4[COMMON] PTR unsigned char 
 10235 ;;		 -> clock_reg(3), 
 10236 ;;  time            9    0        unsigned char [9]
 10237 ;; Return value:  Size  Location     Type
 10238 ;;                  1    wreg      void 
 10239 ;; Registers used:
 10240 ;;		wreg, fsr0l, fsr0h, status,2, status,0
 10241 ;; Tracked objects:
 10242 ;;		On entry : 0/0
 10243 ;;		On exit  : 0/0
 10244 ;;		Unchanged: 0/0
 10245 ;; Data sizes:     COMMON   BANK0   BANK1   BANK3   BANK2
 10246 ;;      Params:         0       0       0       0       0
 10247 ;;      Locals:         1       0       0       0       0
 10248 ;;      Temps:          1       0       0       0       0
 10249 ;;      Totals:         2       0       0       0       0
 10250 ;;Total ram usage:        2 bytes
 10251 ;; Hardware stack levels used: 1
 10252 ;; Hardware stack levels required when called: 1
 10253 ;; This function calls:
 10254 ;;		Nothing
 10255 ;; This function is called by:
 10256 ;;		_write_event_log
 10257 ;; This function uses a non-reentrant model
 10258 ;;
 10259                           
 10260     0803                     _write_time:	
 10261                           ;psect for function _write_time
 10262                           
 10263                           
 10264                           ;incstack = 0
 10265                           ; Regs used in _write_time: [wreg-fsr0h+status,2+status,0]
 10266                           ;write_time@clock_reg stored from wreg
 10267     0803  00F4               	movwf	write_time@clock_reg
 10268     0804                     l4815:
 10269                           
 10270                           ;ext_eeprom.c: 27: static void write_time(unsigned char *clock_reg);ext_eeprom.c: 28: {;
      +                          ext_eeprom.c: 29:     unsigned char time[9];;ext_eeprom.c: 30:     event_log[0] = ((cloc
      +                          k_reg[0] >> 4) & 0x03) + '0';
 10271     0804  0874               	movf	write_time@clock_reg,w
 10272     0805  0084               	movwf	4
 10273     0806  1383               	bcf	3,7	;select IRP bank0
 10274     0807  0800               	movf	0,w
 10275     0808  00F3               	movwf	??_write_time
 10276     0809  3004               	movlw	4
 10277     080A                     u4905:
 10278     080A  1003               	clrc
 10279     080B  0CF3               	rrf	??_write_time,f
 10280     080C  3EFF               	addlw	-1
 10281     080D  1D03               	skipz
 10282     080E  280A               	goto	u4905
 10283     080F  0873               	movf	??_write_time,w
 10284     0810  3903               	andlw	3
 10285     0811  3E30               	addlw	48
 10286     0812  1683               	bsf	3,5	;RP0=1, select bank3
 10287     0813  1703               	bsf	3,6	;RP1=1, select bank3
 10288     0814  00B1               	movwf	_event_log^(0+384)
 10289                           
 10290                           ;ext_eeprom.c: 31:     event_log[1] = (clock_reg[0] & 0x0F) + '0';
 10291     0815  0874               	movf	write_time@clock_reg,w
 10292     0816  0084               	movwf	4
 10293     0817  0800               	movf	0,w
 10294     0818  390F               	andlw	15
 10295     0819  3E30               	addlw	48
 10296     081A  00B2               	movwf	(_event_log^(0+384)+1)
 10297     081B                     l4817:
 10298                           
 10299                           ;ext_eeprom.c: 33:     event_log[2] = ':';
 10300     081B  303A               	movlw	58
 10301     081C  00B3               	movwf	(_event_log^(0+384)+2)
 10302     081D                     l4819:
 10303                           
 10304                           ;ext_eeprom.c: 35:     event_log[3] = ((clock_reg[1] >> 4) & 0x07) + '0';
 10305     081D  0A74               	incf	write_time@clock_reg,w
 10306     081E  0084               	movwf	4
 10307     081F  0800               	movf	0,w
 10308     0820  00F3               	movwf	??_write_time
 10309     0821  3004               	movlw	4
 10310     0822                     u4915:
 10311     0822  1003               	clrc
 10312     0823  0CF3               	rrf	??_write_time,f
 10313     0824  3EFF               	addlw	-1
 10314     0825  1D03               	skipz
 10315     0826  2822               	goto	u4915
 10316     0827  0873               	movf	??_write_time,w
 10317     0828  3907               	andlw	7
 10318     0829  3E30               	addlw	48
 10319     082A  00B4               	movwf	(_event_log^(0+384)+3)
 10320     082B                     l4821:
 10321                           
 10322                           ;ext_eeprom.c: 36:     event_log[4] = (clock_reg[1] & 0x0F) + '0';
 10323     082B  0A74               	incf	write_time@clock_reg,w
 10324     082C  0084               	movwf	4
 10325     082D  0800               	movf	0,w
 10326     082E  390F               	andlw	15
 10327     082F  3E30               	addlw	48
 10328     0830  00B5               	movwf	(_event_log^(0+384)+4)
 10329     0831                     l4823:
 10330                           
 10331                           ;ext_eeprom.c: 38:     event_log[5] = ':';
 10332     0831  303A               	movlw	58
 10333     0832  00B6               	movwf	(_event_log^(0+384)+5)
 10334                           
 10335                           ;ext_eeprom.c: 40:     event_log[6] = ((clock_reg[2] >> 4) & 0x07) + '0';
 10336     0833  0874               	movf	write_time@clock_reg,w
 10337     0834  3E02               	addlw	2
 10338     0835  0084               	movwf	4
 10339     0836  0800               	movf	0,w
 10340     0837  00F3               	movwf	??_write_time
 10341     0838  3004               	movlw	4
 10342     0839                     u4925:
 10343     0839  1003               	clrc
 10344     083A  0CF3               	rrf	??_write_time,f
 10345     083B  3EFF               	addlw	-1
 10346     083C  1D03               	skipz
 10347     083D  2839               	goto	u4925
 10348     083E  0873               	movf	??_write_time,w
 10349     083F  3907               	andlw	7
 10350     0840  3E30               	addlw	48
 10351     0841  00B7               	movwf	(_event_log^(0+384)+6)
 10352                           
 10353                           ;ext_eeprom.c: 41:     event_log[7] = (clock_reg[2] & 0x0F) + '0';
 10354     0842  0874               	movf	write_time@clock_reg,w
 10355     0843  3E02               	addlw	2
 10356     0844  0084               	movwf	4
 10357     0845  0800               	movf	0,w
 10358     0846  390F               	andlw	15
 10359     0847  3E30               	addlw	48
 10360     0848  00B8               	movwf	(_event_log^(0+384)+7)
 10361     0849                     l4825:
 10362                           
 10363                           ;ext_eeprom.c: 42:     index = 8;
 10364     0849  3008               	movlw	8
 10365     084A  00FA               	movwf	_index
 10366     084B                     l551:
 10367     084B  0008               	return
 10368     084C                     __end_of_write_time:
 10369                           
 10370                           	psect	text39
 10371     1F5E                     __ptext39:	
 10372 ;; *************** function _write_speed *****************
 10373 ;; Defined at:
 10374 ;;		line 59 in file "ext_eeprom.c"
 10375 ;; Parameters:    Size  Location     Type
 10376 ;;  speed           1    wreg     PTR unsigned char 
 10377 ;;		 -> speed(4), 
 10378 ;; Auto vars:     Size  Location     Type
 10379 ;;  speed           1    3[COMMON] PTR unsigned char 
 10380 ;;		 -> speed(4), 
 10381 ;; Return value:  Size  Location     Type
 10382 ;;                  1    wreg      void 
 10383 ;; Registers used:
 10384 ;;		wreg, fsr0l, fsr0h, status,2, status,0, btemp+1
 10385 ;; Tracked objects:
 10386 ;;		On entry : 0/0
 10387 ;;		On exit  : 0/0
 10388 ;;		Unchanged: 0/0
 10389 ;; Data sizes:     COMMON   BANK0   BANK1   BANK3   BANK2
 10390 ;;      Params:         0       0       0       0       0
 10391 ;;      Locals:         1       0       0       0       0
 10392 ;;      Temps:          0       0       0       0       0
 10393 ;;      Totals:         1       0       0       0       0
 10394 ;;Total ram usage:        1 bytes
 10395 ;; Hardware stack levels used: 1
 10396 ;; Hardware stack levels required when called: 1
 10397 ;; This function calls:
 10398 ;;		Nothing
 10399 ;; This function is called by:
 10400 ;;		_write_event_log
 10401 ;; This function uses a non-reentrant model
 10402 ;;
 10403                           
 10404     1F5E                     _write_speed:	
 10405                           ;psect for function _write_speed
 10406                           
 10407                           
 10408                           ;incstack = 0
 10409                           ; Regs used in _write_speed: [wreg-fsr0h+status,2+status,0+btemp+1]
 10410                           ;write_speed@speed stored from wreg
 10411     1F5E  00F3               	movwf	write_speed@speed
 10412     1F5F                     l4837:
 10413                           
 10414                           ;ext_eeprom.c: 59: static void write_speed(unsigned char *speed);ext_eeprom.c: 60: {;ext
      +                          _eeprom.c: 61:     while(*speed)
 10415     1F5F  2F72               	goto	l4845
 10416     1F60                     l4839:
 10417                           
 10418                           ;ext_eeprom.c: 62:     {;ext_eeprom.c: 63:         event_log[index++] = *speed++;
 10419     1F60  0873               	movf	write_speed@speed,w
 10420     1F61  0084               	movwf	4
 10421     1F62  0800               	movf	0,w
 10422     1F63  00FF               	movwf	btemp+1
 10423     1F64  087A               	movf	_index,w
 10424     1F65  3EB1               	addlw	(low (_event_log| (0+256)))& (0+255)
 10425     1F66  0084               	movwf	4
 10426     1F67  087F               	movf	btemp+1,w
 10427     1F68  1783               	bsf	3,7	;select IRP bank3
 10428     1F69  0080               	movwf	0
 10429     1F6A                     l4841:
 10430     1F6A  3001               	movlw	1
 10431     1F6B  00FF               	movwf	btemp+1
 10432     1F6C  087F               	movf	btemp+1,w
 10433     1F6D  07F3               	addwf	write_speed@speed,f
 10434     1F6E                     l4843:
 10435     1F6E  3001               	movlw	1
 10436     1F6F  00FF               	movwf	btemp+1
 10437     1F70  087F               	movf	btemp+1,w
 10438     1F71  07FA               	addwf	_index,f
 10439     1F72                     l4845:
 10440                           
 10441                           ;ext_eeprom.c: 61:     while(*speed)
 10442     1F72  0873               	movf	write_speed@speed,w
 10443     1F73  0084               	movwf	4
 10444     1F74  1383               	bcf	3,7	;select IRP bank0
 10445     1F75  0800               	movf	0,w
 10446     1F76  1D03               	btfss	3,2
 10447     1F77  2F79               	goto	u4941
 10448     1F78  2F7A               	goto	u4940
 10449     1F79                     u4941:
 10450     1F79  2F60               	goto	l4839
 10451     1F7A                     u4940:
 10452     1F7A                     l563:
 10453     1F7A  0008               	return
 10454     1F7B                     __end_of_write_speed:
 10455                           
 10456                           	psect	text40
 10457     1223                     __ptext40:	
 10458 ;; *************** function _write_event *****************
 10459 ;; Defined at:
 10460 ;;		line 51 in file "ext_eeprom.c"
 10461 ;; Parameters:    Size  Location     Type
 10462 ;;  event           2    3[COMMON] PTR unsigned char 
 10463 ;;		 -> STR_9(3), STR_8(3), STR_7(3), STR_6(3), 
 10464 ;;		 -> STR_5(3), STR_4(3), STR_3(3), STR_2(3), 
 10465 ;;		 -> STR_1(3), 
 10466 ;; Auto vars:     Size  Location     Type
 10467 ;;		None
 10468 ;; Return value:  Size  Location     Type
 10469 ;;                  1    wreg      void 
 10470 ;; Registers used:
 10471 ;;		wreg, fsr0l, fsr0h, status,2, status,0, btemp+1, pclath
 10472 ;; Tracked objects:
 10473 ;;		On entry : 0/0
 10474 ;;		On exit  : 0/0
 10475 ;;		Unchanged: 0/0
 10476 ;; Data sizes:     COMMON   BANK0   BANK1   BANK3   BANK2
 10477 ;;      Params:         2       0       0       0       0
 10478 ;;      Locals:         0       0       0       0       0
 10479 ;;      Temps:          0       0       0       0       0
 10480 ;;      Totals:         2       0       0       0       0
 10481 ;;Total ram usage:        2 bytes
 10482 ;; Hardware stack levels used: 2
 10483 ;; Hardware stack levels required when called: 1
 10484 ;; This function calls:
 10485 ;;		Nothing
 10486 ;; This function is called by:
 10487 ;;		_write_event_log
 10488 ;; This function uses a non-reentrant model
 10489 ;;
 10490                           
 10491     1223                     _write_event:	
 10492                           ;psect for function _write_event
 10493                           
 10494     1223                     l4827:	
 10495                           ;incstack = 0
 10496                           ; Regs used in _write_event: [wreg-fsr0h+status,2+status,0+btemp+1+pclath]
 10497                           
 10498                           
 10499                           ;ext_eeprom.c: 51: static void write_event(unsigned char *event);ext_eeprom.c: 52: {;ext
      +                          _eeprom.c: 53:     while(*event)
 10500     1223  2A3E               	goto	l4835
 10501     1224                     l4829:
 10502                           
 10503                           ;ext_eeprom.c: 54:     {;ext_eeprom.c: 55:         event_log[index++] = *event++;
 10504     1224  0874               	movf	write_event@event+1,w
 10505     1225  00FF               	movwf	btemp+1
 10506     1226  0873               	movf	write_event@event,w
 10507     1227  0084               	movwf	4
 10508     1228  160A  158A  2000  160A  118A  	fcall	stringtab
 10509     122D  00FF               	movwf	btemp+1
 10510     122E  087A               	movf	_index,w
 10511     122F  3EB1               	addlw	(low (_event_log| (0+256)))& (0+255)
 10512     1230  0084               	movwf	4
 10513     1231  087F               	movf	btemp+1,w
 10514     1232  1783               	bsf	3,7	;select IRP bank3
 10515     1233  0080               	movwf	0
 10516     1234                     l4831:
 10517     1234  3001               	movlw	1
 10518     1235  07F3               	addwf	write_event@event,f
 10519     1236  1803               	skipnc
 10520     1237  0AF4               	incf	write_event@event+1,f
 10521     1238  3000               	movlw	0
 10522     1239  07F4               	addwf	write_event@event+1,f
 10523     123A                     l4833:
 10524     123A  3001               	movlw	1
 10525     123B  00FF               	movwf	btemp+1
 10526     123C  087F               	movf	btemp+1,w
 10527     123D  07FA               	addwf	_index,f
 10528     123E                     l4835:
 10529                           
 10530                           ;ext_eeprom.c: 53:     while(*event)
 10531     123E  0874               	movf	write_event@event+1,w
 10532     123F  1283               	bcf	3,5	;RP0=0, select bank0
 10533     1240  1303               	bcf	3,6	;RP1=0, select bank0
 10534     1241  00FF               	movwf	btemp+1
 10535     1242  0873               	movf	write_event@event,w
 10536     1243  0084               	movwf	4
 10537     1244  160A  158A  2000  160A  118A  	fcall	stringtab
 10538     1249  3A00               	xorlw	0
 10539     124A  1D03               	skipz
 10540     124B  2A4D               	goto	u4931
 10541     124C  2A4E               	goto	u4930
 10542     124D                     u4931:
 10543     124D  2A24               	goto	l4829
 10544     124E                     u4930:
 10545     124E                     l557:
 10546     124E  0008               	return
 10547     124F                     __end_of_write_event:
 10548                           
 10549                           	psect	text41
 10550     160E                     __ptext41:	
 10551 ;; *************** function _ext_eeprom_write *****************
 10552 ;; Defined at:
 10553 ;;		line 68 in file "ext_eeprom.c"
 10554 ;; Parameters:    Size  Location     Type
 10555 ;;  event_log       1    wreg     PTR unsigned char 
 10556 ;;		 -> event_log(15), 
 10557 ;; Auto vars:     Size  Location     Type
 10558 ;;  event_log       1    2[BANK0 ] PTR unsigned char 
 10559 ;;		 -> event_log(15), 
 10560 ;;  i               1    3[BANK0 ] unsigned char 
 10561 ;; Return value:  Size  Location     Type
 10562 ;;                  1    wreg      void 
 10563 ;; Registers used:
 10564 ;;		wreg, fsr0l, fsr0h, status,2, status,0, btemp+1, pclath, cstack
 10565 ;; Tracked objects:
 10566 ;;		On entry : 0/0
 10567 ;;		On exit  : 0/0
 10568 ;;		Unchanged: 0/0
 10569 ;; Data sizes:     COMMON   BANK0   BANK1   BANK3   BANK2
 10570 ;;      Params:         0       0       0       0       0
 10571 ;;      Locals:         0       2       0       0       0
 10572 ;;      Temps:          0       0       0       0       0
 10573 ;;      Totals:         0       2       0       0       0
 10574 ;;Total ram usage:        2 bytes
 10575 ;; Hardware stack levels used: 1
 10576 ;; Hardware stack levels required when called: 3
 10577 ;; This function calls:
 10578 ;;		___bmul
 10579 ;;		___wmul
 10580 ;;		_i2c_start
 10581 ;;		_i2c_stop
 10582 ;;		_i2c_write
 10583 ;; This function is called by:
 10584 ;;		_write_event_log
 10585 ;; This function uses a non-reentrant model
 10586 ;;
 10587                           
 10588     160E                     _ext_eeprom_write:	
 10589                           ;psect for function _ext_eeprom_write
 10590                           
 10591                           
 10592                           ;incstack = 0
 10593                           ; Regs used in _ext_eeprom_write: [wreg-fsr0h+status,2+status,0+btemp+1+pclath+cstack]
 10594                           ;ext_eeprom_write@event_log stored from wreg
 10595     160E  1283               	bcf	3,5	;RP0=0, select bank0
 10596     160F  1303               	bcf	3,6	;RP1=0, select bank0
 10597     1610  00A2               	movwf	ext_eeprom_write@event_log
 10598     1611                     l4847:
 10599                           
 10600                           ;ext_eeprom.c: 68: static void ext_eeprom_write(unsigned char *event_log);ext_eeprom.c: 
      +                          69: {;ext_eeprom.c: 70:     for(unsigned char i = event_count *15; i < ((event_count+1)*
      +                          15); i++ )
 10601     1611  300F               	movlw	15
 10602     1612  00F3               	movwf	___bmul@multiplicand
 10603     1613  086D               	movf	_event_count,w
 10604     1614  160A  158A  26E5  160A  118A  	fcall	___bmul
 10605     1619  1283               	bcf	3,5	;RP0=0, select bank0
 10606     161A  1303               	bcf	3,6	;RP1=0, select bank0
 10607     161B  00A3               	movwf	ext_eeprom_write@i
 10608     161C  2E4C               	goto	l4859
 10609     161D                     l4849:
 10610                           
 10611                           ;ext_eeprom.c: 71:     {;ext_eeprom.c: 72:         i2c_start();
 10612     161D  160A  158A  2620  160A  118A  	fcall	_i2c_start
 10613                           
 10614                           ;ext_eeprom.c: 73:         i2c_write(0xA0);
 10615     1622  30A0               	movlw	160
 10616     1623  160A  158A  2650  160A  118A  	fcall	_i2c_write
 10617                           
 10618                           ;ext_eeprom.c: 74:         i2c_write(i);
 10619     1628  1283               	bcf	3,5	;RP0=0, select bank0
 10620     1629  1303               	bcf	3,6	;RP1=0, select bank0
 10621     162A  0823               	movf	ext_eeprom_write@i,w
 10622     162B  160A  158A  2650  160A  118A  	fcall	_i2c_write
 10623     1630                     l4851:
 10624                           
 10625                           ;ext_eeprom.c: 75:         i2c_write(*event_log++);
 10626     1630  1283               	bcf	3,5	;RP0=0, select bank0
 10627     1631  1303               	bcf	3,6	;RP1=0, select bank0
 10628     1632  0822               	movf	ext_eeprom_write@event_log,w
 10629     1633  0084               	movwf	4
 10630     1634  1783               	bsf	3,7	;select IRP bank2
 10631     1635  0800               	movf	0,w
 10632     1636  160A  158A  2650  160A  118A  	fcall	_i2c_write
 10633     163B                     l4853:
 10634     163B  3001               	movlw	1
 10635     163C  00FF               	movwf	btemp+1
 10636     163D  087F               	movf	btemp+1,w
 10637     163E  1283               	bcf	3,5	;RP0=0, select bank0
 10638     163F  1303               	bcf	3,6	;RP1=0, select bank0
 10639     1640  07A2               	addwf	ext_eeprom_write@event_log,f
 10640     1641                     l4855:
 10641                           
 10642                           ;ext_eeprom.c: 76:         i2c_stop();
 10643     1641  160A  158A  2629  160A  118A  	fcall	_i2c_stop
 10644     1646                     l4857:
 10645                           
 10646                           ;ext_eeprom.c: 77:     }
 10647     1646  3001               	movlw	1
 10648     1647  00FF               	movwf	btemp+1
 10649     1648  087F               	movf	btemp+1,w
 10650     1649  1283               	bcf	3,5	;RP0=0, select bank0
 10651     164A  1303               	bcf	3,6	;RP1=0, select bank0
 10652     164B  07A3               	addwf	ext_eeprom_write@i,f
 10653     164C                     l4859:
 10654     164C  086D               	movf	_event_count,w
 10655     164D  3E01               	addlw	1
 10656     164E  00F3               	movwf	___wmul@multiplier
 10657     164F  086E               	movf	_event_count+1,w
 10658     1650  1803               	skipnc
 10659     1651  3E01               	addlw	1
 10660     1652  3E00               	addlw	0
 10661     1653  00F4               	movwf	___wmul@multiplier+1
 10662     1654  300F               	movlw	15
 10663     1655  00F5               	movwf	___wmul@multiplicand
 10664     1656  3000               	movlw	0
 10665     1657  00F6               	movwf	___wmul@multiplicand+1
 10666     1658  160A  118A  21CD  160A  118A  	fcall	___wmul
 10667     165D  0874               	movf	?___wmul+1,w
 10668     165E  3A80               	xorlw	128
 10669     165F  3C80               	sublw	128
 10670     1660  1D03               	skipz
 10671     1661  2E66               	goto	u4955
 10672     1662  0873               	movf	?___wmul,w
 10673     1663  1283               	bcf	3,5	;RP0=0, select bank0
 10674     1664  1303               	bcf	3,6	;RP1=0, select bank0
 10675     1665  0223               	subwf	ext_eeprom_write@i,w
 10676     1666                     u4955:
 10677     1666  1C03               	skipc
 10678     1667  2E69               	goto	u4951
 10679     1668  2E6A               	goto	u4950
 10680     1669                     u4951:
 10681     1669  2E1D               	goto	l4849
 10682     166A                     u4950:
 10683     166A                     l569:
 10684     166A  0008               	return
 10685     166B                     __end_of_ext_eeprom_write:
 10686                           
 10687                           	psect	text42
 10688     11CD                     __ptext42:	
 10689 ;; *************** function ___wmul *****************
 10690 ;; Defined at:
 10691 ;;		line 15 in file "C:\Program Files\Microchip\xc8\v2.41\pic\sources\c90\common\Umul16.c"
 10692 ;; Parameters:    Size  Location     Type
 10693 ;;  multiplier      2    3[COMMON] unsigned int 
 10694 ;;  multiplicand    2    5[COMMON] unsigned int 
 10695 ;; Auto vars:     Size  Location     Type
 10696 ;;  product         2    0[BANK0 ] unsigned int 
 10697 ;; Return value:  Size  Location     Type
 10698 ;;                  2    3[COMMON] unsigned int 
 10699 ;; Registers used:
 10700 ;;		wreg, status,2, status,0
 10701 ;; Tracked objects:
 10702 ;;		On entry : 0/0
 10703 ;;		On exit  : 0/0
 10704 ;;		Unchanged: 0/0
 10705 ;; Data sizes:     COMMON   BANK0   BANK1   BANK3   BANK2
 10706 ;;      Params:         4       0       0       0       0
 10707 ;;      Locals:         0       2       0       0       0
 10708 ;;      Temps:          0       0       0       0       0
 10709 ;;      Totals:         4       2       0       0       0
 10710 ;;Total ram usage:        6 bytes
 10711 ;; Hardware stack levels used: 1
 10712 ;; Hardware stack levels required when called: 1
 10713 ;; This function calls:
 10714 ;;		Nothing
 10715 ;; This function is called by:
 10716 ;;		_view_log_events
 10717 ;;		_ext_eeprom_write
 10718 ;;		_download
 10719 ;;		_set_time
 10720 ;; This function uses a non-reentrant model
 10721 ;;
 10722                           
 10723     11CD                     ___wmul:	
 10724                           ;psect for function ___wmul
 10725                           
 10726     11CD                     l4737:	
 10727                           ;incstack = 0
 10728                           ; Regs used in ___wmul: [wreg+status,2+status,0]
 10729                           
 10730     11CD  1283               	bcf	3,5	;RP0=0, select bank0
 10731     11CE  1303               	bcf	3,6	;RP1=0, select bank0
 10732     11CF  01A0               	clrf	___wmul@product
 10733     11D0  01A1               	clrf	___wmul@product+1
 10734     11D1                     l4739:
 10735     11D1  1C73               	btfss	___wmul@multiplier,0
 10736     11D2  29D4               	goto	u4831
 10737     11D3  29D5               	goto	u4830
 10738     11D4                     u4831:
 10739     11D4  29DD               	goto	l901
 10740     11D5                     u4830:
 10741     11D5                     l4741:
 10742     11D5  0875               	movf	___wmul@multiplicand,w
 10743     11D6  1283               	bcf	3,5	;RP0=0, select bank0
 10744     11D7  1303               	bcf	3,6	;RP1=0, select bank0
 10745     11D8  07A0               	addwf	___wmul@product,f
 10746     11D9  1803               	skipnc
 10747     11DA  0AA1               	incf	___wmul@product+1,f
 10748     11DB  0876               	movf	___wmul@multiplicand+1,w
 10749     11DC  07A1               	addwf	___wmul@product+1,f
 10750     11DD                     l901:
 10751     11DD  3001               	movlw	1
 10752     11DE                     u4845:
 10753     11DE  1003               	clrc
 10754     11DF  0DF5               	rlf	___wmul@multiplicand,f
 10755     11E0  0DF6               	rlf	___wmul@multiplicand+1,f
 10756     11E1  3EFF               	addlw	-1
 10757     11E2  1D03               	skipz
 10758     11E3  29DE               	goto	u4845
 10759     11E4                     l4743:
 10760     11E4  3001               	movlw	1
 10761     11E5                     u4855:
 10762     11E5  1003               	clrc
 10763     11E6  0CF4               	rrf	___wmul@multiplier+1,f
 10764     11E7  0CF3               	rrf	___wmul@multiplier,f
 10765     11E8  3EFF               	addlw	-1
 10766     11E9  1D03               	skipz
 10767     11EA  29E5               	goto	u4855
 10768     11EB                     l4745:
 10769     11EB  0873               	movf	___wmul@multiplier,w
 10770     11EC  0474               	iorwf	___wmul@multiplier+1,w
 10771     11ED  1D03               	btfss	3,2
 10772     11EE  29F0               	goto	u4861
 10773     11EF  29F1               	goto	u4860
 10774     11F0                     u4861:
 10775     11F0  29D1               	goto	l4739
 10776     11F1                     u4860:
 10777     11F1                     l4747:
 10778     11F1  1283               	bcf	3,5	;RP0=0, select bank0
 10779     11F2  1303               	bcf	3,6	;RP1=0, select bank0
 10780     11F3  0821               	movf	___wmul@product+1,w
 10781     11F4  00F4               	movwf	?___wmul+1
 10782     11F5  0820               	movf	___wmul@product,w
 10783     11F6  00F3               	movwf	?___wmul
 10784     11F7                     l903:
 10785     11F7  0008               	return
 10786     11F8                     __end_of___wmul:
 10787                           
 10788                           	psect	text43
 10789     1EE5                     __ptext43:	
 10790 ;; *************** function ___bmul *****************
 10791 ;; Defined at:
 10792 ;;		line 4 in file "C:\Program Files\Microchip\xc8\v2.41\pic\sources\c90\common\Umul8.c"
 10793 ;; Parameters:    Size  Location     Type
 10794 ;;  multiplier      1    wreg     unsigned char 
 10795 ;;  multiplicand    1    3[COMMON] unsigned char 
 10796 ;; Auto vars:     Size  Location     Type
 10797 ;;  multiplier      1    5[COMMON] unsigned char 
 10798 ;;  product         1    4[COMMON] unsigned char 
 10799 ;; Return value:  Size  Location     Type
 10800 ;;                  1    wreg      unsigned char 
 10801 ;; Registers used:
 10802 ;;		wreg, status,2, status,0, btemp+1
 10803 ;; Tracked objects:
 10804 ;;		On entry : 0/0
 10805 ;;		On exit  : 0/0
 10806 ;;		Unchanged: 0/0
 10807 ;; Data sizes:     COMMON   BANK0   BANK1   BANK3   BANK2
 10808 ;;      Params:         1       0       0       0       0
 10809 ;;      Locals:         2       0       0       0       0
 10810 ;;      Temps:          0       0       0       0       0
 10811 ;;      Totals:         3       0       0       0       0
 10812 ;;Total ram usage:        3 bytes
 10813 ;; Hardware stack levels used: 1
 10814 ;; Hardware stack levels required when called: 1
 10815 ;; This function calls:
 10816 ;;		Nothing
 10817 ;; This function is called by:
 10818 ;;		_ext_eeprom_write
 10819 ;;		_set_time
 10820 ;; This function uses a non-reentrant model
 10821 ;;
 10822                           
 10823     1EE5                     ___bmul:	
 10824                           ;psect for function ___bmul
 10825                           
 10826                           
 10827                           ;incstack = 0
 10828                           ; Regs used in ___bmul: [wreg+status,2+status,0+btemp+1]
 10829                           ;___bmul@multiplier stored from wreg
 10830     1EE5  00F5               	movwf	___bmul@multiplier
 10831     1EE6                     l4751:
 10832     1EE6  01F4               	clrf	___bmul@product
 10833     1EE7                     l4753:
 10834     1EE7  1C75               	btfss	___bmul@multiplier,0
 10835     1EE8  2EEA               	goto	u4871
 10836     1EE9  2EEB               	goto	u4870
 10837     1EEA                     u4871:
 10838     1EEA  2EEF               	goto	l4757
 10839     1EEB                     u4870:
 10840     1EEB                     l4755:
 10841     1EEB  0873               	movf	___bmul@multiplicand,w
 10842     1EEC  00FF               	movwf	btemp+1
 10843     1EED  087F               	movf	btemp+1,w
 10844     1EEE  07F4               	addwf	___bmul@product,f
 10845     1EEF                     l4757:
 10846     1EEF  1003               	clrc
 10847     1EF0  0DF3               	rlf	___bmul@multiplicand,f
 10848     1EF1                     l4759:
 10849     1EF1  1003               	clrc
 10850     1EF2  0CF5               	rrf	___bmul@multiplier,f
 10851     1EF3                     l4761:
 10852     1EF3  0875               	movf	___bmul@multiplier,w
 10853     1EF4  1D03               	btfss	3,2
 10854     1EF5  2EF7               	goto	u4881
 10855     1EF6  2EF8               	goto	u4880
 10856     1EF7                     u4881:
 10857     1EF7  2EE7               	goto	l4753
 10858     1EF8                     u4880:
 10859     1EF8                     l4763:
 10860     1EF8  0874               	movf	___bmul@product,w
 10861     1EF9                     l927:
 10862     1EF9  0008               	return
 10863     1EFA                     __end_of___bmul:
 10864                           
 10865                           	psect	text44
 10866     1E89                     __ptext44:	
 10867 ;; *************** function _read_adc *****************
 10868 ;; Defined at:
 10869 ;;		line 12 in file "adc.c"
 10870 ;; Parameters:    Size  Location     Type
 10871 ;;		None
 10872 ;; Auto vars:     Size  Location     Type
 10873 ;;  adc_reg_val     2    5[COMMON] unsigned short 
 10874 ;; Return value:  Size  Location     Type
 10875 ;;                  2    3[COMMON] unsigned short 
 10876 ;; Registers used:
 10877 ;;		wreg
 10878 ;; Tracked objects:
 10879 ;;		On entry : 0/0
 10880 ;;		On exit  : 0/0
 10881 ;;		Unchanged: 0/0
 10882 ;; Data sizes:     COMMON   BANK0   BANK1   BANK3   BANK2
 10883 ;;      Params:         2       0       0       0       0
 10884 ;;      Locals:         2       0       0       0       0
 10885 ;;      Temps:          0       0       0       0       0
 10886 ;;      Totals:         4       0       0       0       0
 10887 ;;Total ram usage:        4 bytes
 10888 ;; Hardware stack levels used: 1
 10889 ;; Hardware stack levels required when called: 1
 10890 ;; This function calls:
 10891 ;;		Nothing
 10892 ;; This function is called by:
 10893 ;;		_dashboard
 10894 ;; This function uses a non-reentrant model
 10895 ;;
 10896                           
 10897     1E89                     _read_adc:	
 10898                           ;psect for function _read_adc
 10899                           
 10900     1E89                     l5019:	
 10901                           ;incstack = 0
 10902                           ; Regs used in _read_adc: [wreg]
 10903                           
 10904                           
 10905                           ;adc.c: 14:     unsigned short adc_reg_val;;adc.c: 17:     GO = 1;
 10906     1E89  1283               	bcf	3,5	;RP0=0, select bank0
 10907     1E8A  1303               	bcf	3,6	;RP1=0, select bank0
 10908     1E8B  151F               	bsf	31,2	;volatile
 10909     1E8C                     l70:	
 10910                           ;adc.c: 20:     while (nDONE);
 10911                           
 10912     1E8C  191F               	btfsc	31,2	;volatile
 10913     1E8D  2E8F               	goto	u5341
 10914     1E8E  2E90               	goto	u5340
 10915     1E8F                     u5341:
 10916     1E8F  2E8C               	goto	l70
 10917     1E90                     u5340:
 10918     1E90                     l5021:
 10919                           
 10920                           ;adc.c: 23:     adc_reg_val = (ADRESH << 8) | ADRESL;
 10921     1E90  081E               	movf	30,w	;volatile
 10922     1E91  00F6               	movwf	read_adc@adc_reg_val+1
 10923     1E92  1683               	bsf	3,5	;RP0=1, select bank1
 10924     1E93  1303               	bcf	3,6	;RP1=0, select bank1
 10925     1E94  081E               	movf	30,w	;volatile
 10926     1E95  00F5               	movwf	read_adc@adc_reg_val
 10927                           
 10928                           ;adc.c: 25:     return adc_reg_val;
 10929     1E96  0876               	movf	read_adc@adc_reg_val+1,w
 10930     1E97  00F4               	movwf	?_read_adc+1
 10931     1E98  0875               	movf	read_adc@adc_reg_val,w
 10932     1E99  00F3               	movwf	?_read_adc
 10933     1E9A                     l73:
 10934     1E9A  0008               	return
 10935     1E9B                     __end_of_read_adc:
 10936                           
 10937                           	psect	text45
 10938     07DD                     __ptext45:	
 10939 ;; *************** function _get_time *****************
 10940 ;; Defined at:
 10941 ;;		line 130 in file "dashboard.c"
 10942 ;; Parameters:    Size  Location     Type
 10943 ;;  clock_reg       1    wreg     PTR unsigned char 
 10944 ;;		 -> clock_reg(3), 
 10945 ;; Auto vars:     Size  Location     Type
 10946 ;;  clock_reg       1    7[COMMON] PTR unsigned char 
 10947 ;;		 -> clock_reg(3), 
 10948 ;; Return value:  Size  Location     Type
 10949 ;;                  1    wreg      void 
 10950 ;; Registers used:
 10951 ;;		wreg, fsr0l, fsr0h, status,2, status,0, pclath, cstack
 10952 ;; Tracked objects:
 10953 ;;		On entry : 0/0
 10954 ;;		On exit  : 0/0
 10955 ;;		Unchanged: 0/0
 10956 ;; Data sizes:     COMMON   BANK0   BANK1   BANK3   BANK2
 10957 ;;      Params:         0       0       0       0       0
 10958 ;;      Locals:         1       0       0       0       0
 10959 ;;      Temps:          0       0       0       0       0
 10960 ;;      Totals:         1       0       0       0       0
 10961 ;;Total ram usage:        1 bytes
 10962 ;; Hardware stack levels used: 1
 10963 ;; Hardware stack levels required when called: 5
 10964 ;; This function calls:
 10965 ;;		_read_ds1307
 10966 ;; This function is called by:
 10967 ;;		_dashboard
 10968 ;; This function uses a non-reentrant model
 10969 ;;
 10970                           
 10971     07DD                     _get_time:	
 10972                           ;psect for function _get_time
 10973                           
 10974                           
 10975                           ;incstack = 0
 10976                           ; Regs used in _get_time: [wreg-fsr0h+status,2+status,0+pclath+cstack]
 10977                           ;get_time@clock_reg stored from wreg
 10978     07DD  00F7               	movwf	get_time@clock_reg
 10979     07DE                     l5049:
 10980                           
 10981                           ;dashboard.c: 130: static void get_time(unsigned char *clock_reg);dashboard.c: 131: {;da
      +                          shboard.c: 132:     clock_reg[0] = read_ds1307(0x02);
 10982     07DE  0877               	movf	get_time@clock_reg,w
 10983     07DF  0084               	movwf	4
 10984     07E0  3002               	movlw	2
 10985     07E1  160A  118A  21A2  120A  118A  	fcall	_read_ds1307
 10986     07E6  1383               	bcf	3,7	;select IRP bank0
 10987     07E7  0080               	movwf	0
 10988                           
 10989                           ;dashboard.c: 133:     clock_reg[1] = read_ds1307(0x01);
 10990     07E8  0A77               	incf	get_time@clock_reg,w
 10991     07E9  0084               	movwf	4
 10992     07EA  3001               	movlw	1
 10993     07EB  160A  118A  21A2  120A  118A  	fcall	_read_ds1307
 10994     07F0  1383               	bcf	3,7	;select IRP bank0
 10995     07F1  0080               	movwf	0
 10996                           
 10997                           ;dashboard.c: 134:     clock_reg[2] = read_ds1307(0x00);
 10998     07F2  0877               	movf	get_time@clock_reg,w
 10999     07F3  3E02               	addlw	2
 11000     07F4  0084               	movwf	4
 11001     07F5  3000               	movlw	0
 11002     07F6  160A  118A  21A2  120A  118A  	fcall	_read_ds1307
 11003     07FB  1383               	bcf	3,7	;select IRP bank0
 11004     07FC  0080               	movwf	0
 11005     07FD                     l181:
 11006     07FD  0008               	return
 11007     07FE                     __end_of_get_time:
 11008                           
 11009                           	psect	text46
 11010     11A2                     __ptext46:	
 11011 ;; *************** function _read_ds1307 *****************
 11012 ;; Defined at:
 11013 ;;		line 14 in file "ds1307.c"
 11014 ;; Parameters:    Size  Location     Type
 11015 ;;  addr            1    wreg     unsigned char 
 11016 ;; Auto vars:     Size  Location     Type
 11017 ;;  addr            1    5[COMMON] unsigned char 
 11018 ;;  data            1    6[COMMON] unsigned char 
 11019 ;; Return value:  Size  Location     Type
 11020 ;;                  1    wreg      unsigned char 
 11021 ;; Registers used:
 11022 ;;		wreg, status,2, status,0, pclath, cstack
 11023 ;; Tracked objects:
 11024 ;;		On entry : 0/0
 11025 ;;		On exit  : 0/0
 11026 ;;		Unchanged: 0/0
 11027 ;; Data sizes:     COMMON   BANK0   BANK1   BANK3   BANK2
 11028 ;;      Params:         0       0       0       0       0
 11029 ;;      Locals:         2       0       0       0       0
 11030 ;;      Temps:          0       0       0       0       0
 11031 ;;      Totals:         2       0       0       0       0
 11032 ;;Total ram usage:        2 bytes
 11033 ;; Hardware stack levels used: 1
 11034 ;; Hardware stack levels required when called: 4
 11035 ;; This function calls:
 11036 ;;		_i2c_read
 11037 ;;		_i2c_rep_start
 11038 ;;		_i2c_start
 11039 ;;		_i2c_stop
 11040 ;;		_i2c_write
 11041 ;; This function is called by:
 11042 ;;		_get_time
 11043 ;;		_init_ds1307
 11044 ;; This function uses a non-reentrant model
 11045 ;;
 11046                           
 11047     11A2                     _read_ds1307:	
 11048                           ;psect for function _read_ds1307
 11049                           
 11050                           
 11051                           ;incstack = 0
 11052                           ; Regs used in _read_ds1307: [wreg+status,2+status,0+pclath+cstack]
 11053                           ;read_ds1307@addr stored from wreg
 11054     11A2  00F5               	movwf	read_ds1307@addr
 11055     11A3                     l4791:
 11056                           
 11057                           ;ds1307.c: 14: unsigned char read_ds1307(unsigned char addr);ds1307.c: 15: {;ds1307.c: 1
      +                          6:     unsigned char data;;ds1307.c: 18:     i2c_start();
 11058     11A3  160A  158A  2620  160A  118A  	fcall	_i2c_start
 11059                           
 11060                           ;ds1307.c: 19:     i2c_write(0b11010000);
 11061     11A8  30D0               	movlw	208
 11062     11A9  160A  158A  2650  160A  118A  	fcall	_i2c_write
 11063                           
 11064                           ;ds1307.c: 20:     i2c_write(addr);
 11065     11AE  0875               	movf	read_ds1307@addr,w
 11066     11AF  160A  158A  2650  160A  118A  	fcall	_i2c_write
 11067                           
 11068                           ;ds1307.c: 21:     i2c_rep_start();
 11069     11B4  160A  158A  2645  160A  118A  	fcall	_i2c_rep_start
 11070                           
 11071                           ;ds1307.c: 22:     i2c_write(0b11010001);
 11072     11B9  30D1               	movlw	209
 11073     11BA  160A  158A  2650  160A  118A  	fcall	_i2c_write
 11074                           
 11075                           ;ds1307.c: 23:     data = i2c_read(0);
 11076     11BF  3000               	movlw	0
 11077     11C0  160A  158A  27B9  160A  118A  	fcall	_i2c_read
 11078     11C5  00F6               	movwf	read_ds1307@data
 11079                           
 11080                           ;ds1307.c: 24:     i2c_stop();
 11081     11C6  160A  158A  2629  160A  118A  	fcall	_i2c_stop
 11082     11CB                     l4793:
 11083                           
 11084                           ;ds1307.c: 26:     return data;
 11085     11CB  0876               	movf	read_ds1307@data,w
 11086     11CC                     l201:
 11087     11CC  0008               	return
 11088     11CD                     __end_of_read_ds1307:
 11089                           
 11090                           	psect	text47
 11091     1E50                     __ptext47:	
 11092 ;; *************** function _i2c_write *****************
 11093 ;; Defined at:
 11094 ;;		line 65 in file "i2c.c"
 11095 ;; Parameters:    Size  Location     Type
 11096 ;;  data            1    wreg     unsigned char 
 11097 ;; Auto vars:     Size  Location     Type
 11098 ;;  data            1    3[COMMON] unsigned char 
 11099 ;; Return value:  Size  Location     Type
 11100 ;;                  2  189[None  ] int 
 11101 ;; Registers used:
 11102 ;;		wreg, status,2, status,0, pclath, cstack
 11103 ;; Tracked objects:
 11104 ;;		On entry : 0/0
 11105 ;;		On exit  : 0/0
 11106 ;;		Unchanged: 0/0
 11107 ;; Data sizes:     COMMON   BANK0   BANK1   BANK3   BANK2
 11108 ;;      Params:         0       0       0       0       0
 11109 ;;      Locals:         1       0       0       0       0
 11110 ;;      Temps:          0       0       0       0       0
 11111 ;;      Totals:         1       0       0       0       0
 11112 ;;Total ram usage:        1 bytes
 11113 ;; Hardware stack levels used: 1
 11114 ;; Hardware stack levels required when called: 2
 11115 ;; This function calls:
 11116 ;;		_i2c_wait_for_idle
 11117 ;; This function is called by:
 11118 ;;		_read_ds1307
 11119 ;;		_write_ds1307
 11120 ;;		_ext_eeprom_write
 11121 ;;		_ext_eeprom_read
 11122 ;; This function uses a non-reentrant model
 11123 ;;
 11124                           
 11125     1E50                     _i2c_write:	
 11126                           ;psect for function _i2c_write
 11127                           
 11128                           
 11129                           ;incstack = 0
 11130                           ; Regs used in _i2c_write: [wreg+status,2+status,0+pclath+cstack]
 11131                           ;i2c_write@data stored from wreg
 11132     1E50  00F3               	movwf	i2c_write@data
 11133     1E51                     l4695:
 11134                           
 11135                           ;i2c.c: 65: int i2c_write(unsigned char data);i2c.c: 66: {;i2c.c: 67:     i2c_wait_for_i
      +                          dle();
 11136     1E51  160A  158A  267C  160A  158A  	fcall	_i2c_wait_for_idle
 11137     1E56                     l4697:
 11138                           
 11139                           ;i2c.c: 68:     SSPBUF = data;
 11140     1E56  0873               	movf	i2c_write@data,w
 11141     1E57  1283               	bcf	3,5	;RP0=0, select bank0
 11142     1E58  1303               	bcf	3,6	;RP1=0, select bank0
 11143     1E59  0093               	movwf	19	;volatile
 11144     1E5A                     l4699:
 11145     1E5A                     l256:	
 11146                           ;i2c.c: 70:     return !ACKSTAT;;	Return value of _i2c_write is never used
 11147                           
 11148     1E5A  0008               	return
 11149     1E5B                     __end_of_i2c_write:
 11150                           
 11151                           	psect	text48
 11152     1E45                     __ptext48:	
 11153 ;; *************** function _i2c_rep_start *****************
 11154 ;; Defined at:
 11155 ;;		line 28 in file "i2c.c"
 11156 ;; Parameters:    Size  Location     Type
 11157 ;;		None
 11158 ;; Auto vars:     Size  Location     Type
 11159 ;;		None
 11160 ;; Return value:  Size  Location     Type
 11161 ;;                  1    wreg      void 
 11162 ;; Registers used:
 11163 ;;		wreg, status,2, status,0, pclath, cstack
 11164 ;; Tracked objects:
 11165 ;;		On entry : 0/0
 11166 ;;		On exit  : 0/0
 11167 ;;		Unchanged: 0/0
 11168 ;; Data sizes:     COMMON   BANK0   BANK1   BANK3   BANK2
 11169 ;;      Params:         0       0       0       0       0
 11170 ;;      Locals:         0       0       0       0       0
 11171 ;;      Temps:          0       0       0       0       0
 11172 ;;      Totals:         0       0       0       0       0
 11173 ;;Total ram usage:        0 bytes
 11174 ;; Hardware stack levels used: 1
 11175 ;; Hardware stack levels required when called: 3
 11176 ;; This function calls:
 11177 ;;		_i2c_start
 11178 ;;		_i2c_stop
 11179 ;; This function is called by:
 11180 ;;		_read_ds1307
 11181 ;;		_ext_eeprom_read
 11182 ;; This function uses a non-reentrant model
 11183 ;;
 11184                           
 11185     1E45                     _i2c_rep_start:	
 11186                           ;psect for function _i2c_rep_start
 11187                           
 11188     1E45                     l4703:	
 11189                           ;incstack = 0
 11190                           ; Regs used in _i2c_rep_start: [wreg+status,2+status,0+pclath+cstack]
 11191                           
 11192                           
 11193                           ;i2c.c: 30:     i2c_stop();
 11194     1E45  160A  158A  2629  160A  158A  	fcall	_i2c_stop
 11195                           
 11196                           ;i2c.c: 31:     i2c_start();
 11197     1E4A  160A  158A  2620  160A  158A  	fcall	_i2c_start
 11198     1E4F                     l245:
 11199     1E4F  0008               	return
 11200     1E50                     __end_of_i2c_rep_start:
 11201                           
 11202                           	psect	text49
 11203     1E29                     __ptext49:	
 11204 ;; *************** function _i2c_stop *****************
 11205 ;; Defined at:
 11206 ;;		line 35 in file "i2c.c"
 11207 ;; Parameters:    Size  Location     Type
 11208 ;;		None
 11209 ;; Auto vars:     Size  Location     Type
 11210 ;;		None
 11211 ;; Return value:  Size  Location     Type
 11212 ;;                  1    wreg      void 
 11213 ;; Registers used:
 11214 ;;		wreg, status,2, status,0, pclath, cstack
 11215 ;; Tracked objects:
 11216 ;;		On entry : 0/0
 11217 ;;		On exit  : 0/0
 11218 ;;		Unchanged: 0/0
 11219 ;; Data sizes:     COMMON   BANK0   BANK1   BANK3   BANK2
 11220 ;;      Params:         0       0       0       0       0
 11221 ;;      Locals:         0       0       0       0       0
 11222 ;;      Temps:          0       0       0       0       0
 11223 ;;      Totals:         0       0       0       0       0
 11224 ;;Total ram usage:        0 bytes
 11225 ;; Hardware stack levels used: 1
 11226 ;; Hardware stack levels required when called: 2
 11227 ;; This function calls:
 11228 ;;		_i2c_wait_for_idle
 11229 ;; This function is called by:
 11230 ;;		_read_ds1307
 11231 ;;		_write_ds1307
 11232 ;;		_i2c_rep_start
 11233 ;;		_ext_eeprom_write
 11234 ;;		_ext_eeprom_read
 11235 ;; This function uses a non-reentrant model
 11236 ;;
 11237                           
 11238     1E29                     _i2c_stop:	
 11239                           ;psect for function _i2c_stop
 11240                           
 11241     1E29                     l4683:	
 11242                           ;incstack = 0
 11243                           ; Regs used in _i2c_stop: [wreg+status,2+status,0+pclath+cstack]
 11244                           
 11245                           
 11246                           ;i2c.c: 37:     i2c_wait_for_idle();
 11247     1E29  160A  158A  267C  160A  158A  	fcall	_i2c_wait_for_idle
 11248     1E2E                     l4685:
 11249                           
 11250                           ;i2c.c: 38:     PEN = 1;
 11251     1E2E  1683               	bsf	3,5	;RP0=1, select bank1
 11252     1E2F  1303               	bcf	3,6	;RP1=0, select bank1
 11253     1E30  1511               	bsf	17,2	;volatile
 11254     1E31                     l248:
 11255     1E31  0008               	return
 11256     1E32                     __end_of_i2c_stop:
 11257                           
 11258                           	psect	text50
 11259     1E20                     __ptext50:	
 11260 ;; *************** function _i2c_start *****************
 11261 ;; Defined at:
 11262 ;;		line 22 in file "i2c.c"
 11263 ;; Parameters:    Size  Location     Type
 11264 ;;		None
 11265 ;; Auto vars:     Size  Location     Type
 11266 ;;		None
 11267 ;; Return value:  Size  Location     Type
 11268 ;;                  1    wreg      void 
 11269 ;; Registers used:
 11270 ;;		wreg, status,2, status,0, pclath, cstack
 11271 ;; Tracked objects:
 11272 ;;		On entry : 0/0
 11273 ;;		On exit  : 0/0
 11274 ;;		Unchanged: 0/0
 11275 ;; Data sizes:     COMMON   BANK0   BANK1   BANK3   BANK2
 11276 ;;      Params:         0       0       0       0       0
 11277 ;;      Locals:         0       0       0       0       0
 11278 ;;      Temps:          0       0       0       0       0
 11279 ;;      Totals:         0       0       0       0       0
 11280 ;;Total ram usage:        0 bytes
 11281 ;; Hardware stack levels used: 1
 11282 ;; Hardware stack levels required when called: 2
 11283 ;; This function calls:
 11284 ;;		_i2c_wait_for_idle
 11285 ;; This function is called by:
 11286 ;;		_read_ds1307
 11287 ;;		_write_ds1307
 11288 ;;		_i2c_rep_start
 11289 ;;		_ext_eeprom_write
 11290 ;;		_ext_eeprom_read
 11291 ;; This function uses a non-reentrant model
 11292 ;;
 11293                           
 11294     1E20                     _i2c_start:	
 11295                           ;psect for function _i2c_start
 11296                           
 11297     1E20                     l4679:	
 11298                           ;incstack = 0
 11299                           ; Regs used in _i2c_start: [wreg+status,2+status,0+pclath+cstack]
 11300                           
 11301                           
 11302                           ;i2c.c: 24:     i2c_wait_for_idle();
 11303     1E20  160A  158A  267C  160A  158A  	fcall	_i2c_wait_for_idle
 11304     1E25                     l4681:
 11305                           
 11306                           ;i2c.c: 25:     SEN = 1;
 11307     1E25  1683               	bsf	3,5	;RP0=1, select bank1
 11308     1E26  1303               	bcf	3,6	;RP1=0, select bank1
 11309     1E27  1411               	bsf	17,0	;volatile
 11310     1E28                     l242:
 11311     1E28  0008               	return
 11312     1E29                     __end_of_i2c_start:
 11313                           
 11314                           	psect	text51
 11315     1FB9                     __ptext51:	
 11316 ;; *************** function _i2c_read *****************
 11317 ;; Defined at:
 11318 ;;		line 41 in file "i2c.c"
 11319 ;; Parameters:    Size  Location     Type
 11320 ;;  ack             1    wreg     unsigned char 
 11321 ;; Auto vars:     Size  Location     Type
 11322 ;;  ack             1    3[COMMON] unsigned char 
 11323 ;;  data            1    4[COMMON] unsigned char 
 11324 ;; Return value:  Size  Location     Type
 11325 ;;                  1    wreg      unsigned char 
 11326 ;; Registers used:
 11327 ;;		wreg, status,2, status,0, pclath, cstack
 11328 ;; Tracked objects:
 11329 ;;		On entry : 0/0
 11330 ;;		On exit  : 0/0
 11331 ;;		Unchanged: 0/0
 11332 ;; Data sizes:     COMMON   BANK0   BANK1   BANK3   BANK2
 11333 ;;      Params:         0       0       0       0       0
 11334 ;;      Locals:         2       0       0       0       0
 11335 ;;      Temps:          0       0       0       0       0
 11336 ;;      Totals:         2       0       0       0       0
 11337 ;;Total ram usage:        2 bytes
 11338 ;; Hardware stack levels used: 1
 11339 ;; Hardware stack levels required when called: 2
 11340 ;; This function calls:
 11341 ;;		_i2c_wait_for_idle
 11342 ;; This function is called by:
 11343 ;;		_read_ds1307
 11344 ;;		_ext_eeprom_read
 11345 ;; This function uses a non-reentrant model
 11346 ;;
 11347                           
 11348     1FB9                     _i2c_read:	
 11349                           ;psect for function _i2c_read
 11350                           
 11351                           
 11352                           ;incstack = 0
 11353                           ; Regs used in _i2c_read: [wreg+status,2+status,0+pclath+cstack]
 11354                           ;i2c_read@ack stored from wreg
 11355     1FB9  00F3               	movwf	i2c_read@ack
 11356     1FBA                     l4705:
 11357                           
 11358                           ;i2c.c: 41: unsigned char i2c_read(unsigned char ack);i2c.c: 42: {;i2c.c: 43:     unsign
      +                          ed char data;;i2c.c: 45:     i2c_wait_for_idle();
 11359     1FBA  160A  158A  267C  160A  158A  	fcall	_i2c_wait_for_idle
 11360     1FBF                     l4707:
 11361                           
 11362                           ;i2c.c: 46:     RCEN = 1;
 11363     1FBF  1683               	bsf	3,5	;RP0=1, select bank1
 11364     1FC0  1303               	bcf	3,6	;RP1=0, select bank1
 11365     1FC1  1591               	bsf	17,3	;volatile
 11366                           
 11367                           ;i2c.c: 48:     i2c_wait_for_idle();
 11368     1FC2  160A  158A  267C  160A  158A  	fcall	_i2c_wait_for_idle
 11369     1FC7                     l4709:
 11370                           
 11371                           ;i2c.c: 49:     data = SSPBUF;
 11372     1FC7  1283               	bcf	3,5	;RP0=0, select bank0
 11373     1FC8  1303               	bcf	3,6	;RP1=0, select bank0
 11374     1FC9  0813               	movf	19,w	;volatile
 11375     1FCA  00F4               	movwf	i2c_read@data
 11376     1FCB                     l4711:
 11377                           
 11378                           ;i2c.c: 51:     if (ack == 1)
 11379     1FCB  0373               	decf	i2c_read@ack,w
 11380     1FCC  1D03               	btfss	3,2
 11381     1FCD  2FCF               	goto	u4811
 11382     1FCE  2FD0               	goto	u4810
 11383     1FCF                     u4811:
 11384     1FCF  2FD4               	goto	l251
 11385     1FD0                     u4810:
 11386     1FD0                     l4713:
 11387                           
 11388                           ;i2c.c: 52:     {;i2c.c: 53:         ACKDT = 1;
 11389     1FD0  1683               	bsf	3,5	;RP0=1, select bank1
 11390     1FD1  1303               	bcf	3,6	;RP1=0, select bank1
 11391     1FD2  1691               	bsf	17,5	;volatile
 11392                           
 11393                           ;i2c.c: 54:     }
 11394     1FD3  2FD7               	goto	l252
 11395     1FD4                     l251:	
 11396                           ;i2c.c: 55:     else
 11397                           
 11398                           
 11399                           ;i2c.c: 56:     {;i2c.c: 57:         ACKDT = 0;
 11400     1FD4  1683               	bsf	3,5	;RP0=1, select bank1
 11401     1FD5  1303               	bcf	3,6	;RP1=0, select bank1
 11402     1FD6  1291               	bcf	17,5	;volatile
 11403     1FD7                     l252:	
 11404                           ;i2c.c: 58:     }
 11405                           
 11406                           
 11407                           ;i2c.c: 60:     ACKEN = 1;
 11408     1FD7  1611               	bsf	17,4	;volatile
 11409     1FD8                     l4715:
 11410                           
 11411                           ;i2c.c: 62:     return data;
 11412     1FD8  0874               	movf	i2c_read@data,w
 11413     1FD9                     l253:
 11414     1FD9  0008               	return
 11415     1FDA                     __end_of_i2c_read:
 11416                           
 11417                           	psect	text52
 11418     1E7C                     __ptext52:	
 11419 ;; *************** function _i2c_wait_for_idle *****************
 11420 ;; Defined at:
 11421 ;;		line 16 in file "i2c.c"
 11422 ;; Parameters:    Size  Location     Type
 11423 ;;		None
 11424 ;; Auto vars:     Size  Location     Type
 11425 ;;		None
 11426 ;; Return value:  Size  Location     Type
 11427 ;;                  1    wreg      void 
 11428 ;; Registers used:
 11429 ;;		wreg, status,2
 11430 ;; Tracked objects:
 11431 ;;		On entry : 0/0
 11432 ;;		On exit  : 0/0
 11433 ;;		Unchanged: 0/0
 11434 ;; Data sizes:     COMMON   BANK0   BANK1   BANK3   BANK2
 11435 ;;      Params:         0       0       0       0       0
 11436 ;;      Locals:         0       0       0       0       0
 11437 ;;      Temps:          0       0       0       0       0
 11438 ;;      Totals:         0       0       0       0       0
 11439 ;;Total ram usage:        0 bytes
 11440 ;; Hardware stack levels used: 1
 11441 ;; Hardware stack levels required when called: 1
 11442 ;; This function calls:
 11443 ;;		Nothing
 11444 ;; This function is called by:
 11445 ;;		_i2c_start
 11446 ;;		_i2c_stop
 11447 ;;		_i2c_read
 11448 ;;		_i2c_write
 11449 ;; This function uses a non-reentrant model
 11450 ;;
 11451                           
 11452     1E7C                     _i2c_wait_for_idle:	
 11453                           ;psect for function _i2c_wait_for_idle
 11454                           
 11455     1E7C                     l4675:	
 11456                           ;incstack = 0
 11457                           ; Regs used in _i2c_wait_for_idle: [wreg+status,2]
 11458                           
 11459     1E7C                     l236:	
 11460                           ;i2c.c: 19:     while (R_nW || (SSPCON2 & 0x1F));
 11461                           
 11462     1E7C  1683               	bsf	3,5	;RP0=1, select bank1
 11463     1E7D  1303               	bcf	3,6	;RP1=0, select bank1
 11464     1E7E  1914               	btfsc	20,2	;volatile
 11465     1E7F  2E81               	goto	u4771
 11466     1E80  2E82               	goto	u4770
 11467     1E81                     u4771:
 11468     1E81  2E7C               	goto	l236
 11469     1E82                     u4770:
 11470     1E82                     l4677:
 11471     1E82  0811               	movf	17,w	;volatile
 11472     1E83  391F               	andlw	31
 11473     1E84  1D03               	btfss	3,2
 11474     1E85  2E87               	goto	u4781
 11475     1E86  2E88               	goto	u4780
 11476     1E87                     u4781:
 11477     1E87  2E7C               	goto	l236
 11478     1E88                     u4780:
 11479     1E88                     l239:
 11480     1E88  0008               	return
 11481     1E89                     __end_of_i2c_wait_for_idle:
 11482                           
 11483                           	psect	text53
 11484     1795                     __ptext53:	
 11485 ;; *************** function _display_time *****************
 11486 ;; Defined at:
 11487 ;;		line 103 in file "dashboard.c"
 11488 ;; Parameters:    Size  Location     Type
 11489 ;;  clock_reg       1    wreg     PTR unsigned char 
 11490 ;;		 -> clock_reg(3), 
 11491 ;; Auto vars:     Size  Location     Type
 11492 ;;  clock_reg       1    3[BANK0 ] PTR unsigned char 
 11493 ;;		 -> clock_reg(3), 
 11494 ;; Return value:  Size  Location     Type
 11495 ;;                  1    wreg      void 
 11496 ;; Registers used:
 11497 ;;		wreg, fsr0l, fsr0h, status,2, status,0, btemp+1, pclath, cstack
 11498 ;; Tracked objects:
 11499 ;;		On entry : 0/0
 11500 ;;		On exit  : 0/0
 11501 ;;		Unchanged: 0/0
 11502 ;; Data sizes:     COMMON   BANK0   BANK1   BANK3   BANK2
 11503 ;;      Params:         0       0       0       0       0
 11504 ;;      Locals:         0       1       0       0       0
 11505 ;;      Temps:          1       0       0       0       0
 11506 ;;      Totals:         1       1       0       0       0
 11507 ;;Total ram usage:        2 bytes
 11508 ;; Hardware stack levels used: 1
 11509 ;; Hardware stack levels required when called: 3
 11510 ;; This function calls:
 11511 ;;		_clcd_print
 11512 ;; This function is called by:
 11513 ;;		_dashboard
 11514 ;; This function uses a non-reentrant model
 11515 ;;
 11516                           
 11517     1795                     _display_time:	
 11518                           ;psect for function _display_time
 11519                           
 11520                           
 11521                           ;incstack = 0
 11522                           ; Regs used in _display_time: [wreg-fsr0h+status,2+status,0+btemp+1+pclath+cstack]
 11523                           ;display_time@clock_reg stored from wreg
 11524     1795  1283               	bcf	3,5	;RP0=0, select bank0
 11525     1796  1303               	bcf	3,6	;RP1=0, select bank0
 11526     1797  00A3               	movwf	display_time@clock_reg
 11527     1798                     l5051:
 11528                           
 11529                           ;dashboard.c: 103: static void display_time(unsigned char *clock_reg);dashboard.c: 104: 
      +                          {;dashboard.c: 113:     time[0] = ((clock_reg[0] >> 4) & 0x03) + '0';
 11530     1798  0823               	movf	display_time@clock_reg,w
 11531     1799  0084               	movwf	4
 11532     179A  1383               	bcf	3,7	;select IRP bank0
 11533     179B  0800               	movf	0,w
 11534     179C  00F7               	movwf	??_display_time
 11535     179D  3004               	movlw	4
 11536     179E                     u5375:
 11537     179E  1003               	clrc
 11538     179F  0CF7               	rrf	??_display_time,f
 11539     17A0  3EFF               	addlw	-1
 11540     17A1  1D03               	skipz
 11541     17A2  2F9E               	goto	u5375
 11542     17A3  0877               	movf	??_display_time,w
 11543     17A4  3903               	andlw	3
 11544     17A5  3E30               	addlw	48
 11545     17A6  1683               	bsf	3,5	;RP0=1, select bank1
 11546     17A7  1303               	bcf	3,6	;RP1=0, select bank1
 11547     17A8  00CB               	movwf	_time^(0+128)
 11548                           
 11549                           ;dashboard.c: 114:     time[1] = (clock_reg[0] & 0x0F) + '0';
 11550     17A9  1283               	bcf	3,5	;RP0=0, select bank0
 11551     17AA  1303               	bcf	3,6	;RP1=0, select bank0
 11552     17AB  0823               	movf	display_time@clock_reg,w
 11553     17AC  0084               	movwf	4
 11554     17AD  0800               	movf	0,w
 11555     17AE  390F               	andlw	15
 11556     17AF  3E30               	addlw	48
 11557     17B0  1683               	bsf	3,5	;RP0=1, select bank1
 11558     17B1  1303               	bcf	3,6	;RP1=0, select bank1
 11559     17B2  00CC               	movwf	(_time^(0+128)+1)
 11560     17B3                     l5053:
 11561                           
 11562                           ;dashboard.c: 116:     time[2] = ':';
 11563     17B3  303A               	movlw	58
 11564     17B4  00CD               	movwf	(_time^(0+128)+2)
 11565     17B5                     l5055:
 11566                           
 11567                           ;dashboard.c: 118:     time[3] = ((clock_reg[1] >> 4) & 0x07) + '0';
 11568     17B5  1283               	bcf	3,5	;RP0=0, select bank0
 11569     17B6  1303               	bcf	3,6	;RP1=0, select bank0
 11570     17B7  0A23               	incf	display_time@clock_reg,w
 11571     17B8  0084               	movwf	4
 11572     17B9  0800               	movf	0,w
 11573     17BA  00F7               	movwf	??_display_time
 11574     17BB  3004               	movlw	4
 11575     17BC                     u5385:
 11576     17BC  1003               	clrc
 11577     17BD  0CF7               	rrf	??_display_time,f
 11578     17BE  3EFF               	addlw	-1
 11579     17BF  1D03               	skipz
 11580     17C0  2FBC               	goto	u5385
 11581     17C1  0877               	movf	??_display_time,w
 11582     17C2  3907               	andlw	7
 11583     17C3  3E30               	addlw	48
 11584     17C4  1683               	bsf	3,5	;RP0=1, select bank1
 11585     17C5  1303               	bcf	3,6	;RP1=0, select bank1
 11586     17C6  00CE               	movwf	(_time^(0+128)+3)
 11587     17C7                     l5057:
 11588                           
 11589                           ;dashboard.c: 119:     time[4] = (clock_reg[1] & 0x0F) + '0';
 11590     17C7  1283               	bcf	3,5	;RP0=0, select bank0
 11591     17C8  1303               	bcf	3,6	;RP1=0, select bank0
 11592     17C9  0A23               	incf	display_time@clock_reg,w
 11593     17CA  0084               	movwf	4
 11594     17CB  0800               	movf	0,w
 11595     17CC  390F               	andlw	15
 11596     17CD  3E30               	addlw	48
 11597     17CE  1683               	bsf	3,5	;RP0=1, select bank1
 11598     17CF  1303               	bcf	3,6	;RP1=0, select bank1
 11599     17D0  00CF               	movwf	(_time^(0+128)+4)
 11600     17D1                     l5059:
 11601                           
 11602                           ;dashboard.c: 121:     time[5] = ':';
 11603     17D1  303A               	movlw	58
 11604     17D2  00D0               	movwf	(_time^(0+128)+5)
 11605                           
 11606                           ;dashboard.c: 123:     time[6] = ((clock_reg[2] >> 4) & 0x07) + '0';
 11607     17D3  1283               	bcf	3,5	;RP0=0, select bank0
 11608     17D4  1303               	bcf	3,6	;RP1=0, select bank0
 11609     17D5  0823               	movf	display_time@clock_reg,w
 11610     17D6  3E02               	addlw	2
 11611     17D7  0084               	movwf	4
 11612     17D8  0800               	movf	0,w
 11613     17D9  00F7               	movwf	??_display_time
 11614     17DA  3004               	movlw	4
 11615     17DB                     u5395:
 11616     17DB  1003               	clrc
 11617     17DC  0CF7               	rrf	??_display_time,f
 11618     17DD  3EFF               	addlw	-1
 11619     17DE  1D03               	skipz
 11620     17DF  2FDB               	goto	u5395
 11621     17E0  0877               	movf	??_display_time,w
 11622     17E1  3907               	andlw	7
 11623     17E2  3E30               	addlw	48
 11624     17E3  1683               	bsf	3,5	;RP0=1, select bank1
 11625     17E4  1303               	bcf	3,6	;RP1=0, select bank1
 11626     17E5  00D1               	movwf	(_time^(0+128)+6)
 11627                           
 11628                           ;dashboard.c: 124:     time[7] = (clock_reg[2] & 0x0F) + '0';
 11629     17E6  1283               	bcf	3,5	;RP0=0, select bank0
 11630     17E7  1303               	bcf	3,6	;RP1=0, select bank0
 11631     17E8  0823               	movf	display_time@clock_reg,w
 11632     17E9  3E02               	addlw	2
 11633     17EA  0084               	movwf	4
 11634     17EB  0800               	movf	0,w
 11635     17EC  390F               	andlw	15
 11636     17ED  3E30               	addlw	48
 11637     17EE  1683               	bsf	3,5	;RP0=1, select bank1
 11638     17EF  1303               	bcf	3,6	;RP1=0, select bank1
 11639     17F0  00D2               	movwf	(_time^(0+128)+7)
 11640     17F1                     l5061:
 11641                           
 11642                           ;dashboard.c: 125:     time[8] = '\0';
 11643     17F1  01D3               	clrf	(_time^(0+128)+8)
 11644     17F2                     l5063:
 11645                           
 11646                           ;dashboard.c: 127:     clcd_print(time, (0xC0 + 1));
 11647     17F2  30CB               	movlw	(low (_time| 0))& (0+255)
 11648     17F3  1283               	bcf	3,5	;RP0=0, select bank0
 11649     17F4  1303               	bcf	3,6	;RP1=0, select bank0
 11650     17F5  00A0               	movwf	clcd_print@str
 11651     17F6  3000               	movlw	0
 11652     17F7  00A1               	movwf	clcd_print@str+1
 11653     17F8  30C1               	movlw	193
 11654     17F9  00A2               	movwf	clcd_print@addr
 11655     17FA  160A  118A  227C  160A  118A  	fcall	_clcd_print
 11656     17FF                     l178:
 11657     17FF  0008               	return
 11658     1800                     __end_of_display_time:
 11659                           
 11660                           	psect	text54
 11661     127C                     __ptext54:	
 11662 ;; *************** function _clcd_print *****************
 11663 ;; Defined at:
 11664 ;;		line 55 in file "clcd.c"
 11665 ;; Parameters:    Size  Location     Type
 11666 ;;  str             2    0[BANK0 ] PTR const unsigned char 
 11667 ;;		 -> STR_34(14), STR_33(15), STR_32(16), STR_31(17), 
 11668 ;;		 -> STR_30(17), STR_29(17), set_time@blink(3), STR_28(17), 
 11669 ;;		 -> STR_25(11), STR_24(17), STR_23(17), STR_22(16), 
 11670 ;;		 -> view_log(16), STR_21(12), STR_20(14), STR_19(9), 
 11671 ;;		 -> STR_18(13), STR_17(10), STR_16(9), STR_15(5), 
 11672 ;;		 -> print_sec@sec(4), STR_14(10), STR_13(17), STR_12(15), 
 11673 ;;		 -> STR_11(17), password(5), time(9), speed(4), 
 11674 ;;		 -> STR_10(16), STR_9(3), STR_8(3), STR_7(3), 
 11675 ;;		 -> STR_6(3), STR_5(3), STR_4(3), STR_3(3), 
 11676 ;;		 -> STR_2(3), STR_1(3), 
 11677 ;;  addr            1    2[BANK0 ] unsigned char 
 11678 ;; Auto vars:     Size  Location     Type
 11679 ;;		None
 11680 ;; Return value:  Size  Location     Type
 11681 ;;                  1    wreg      void 
 11682 ;; Registers used:
 11683 ;;		wreg, fsr0l, fsr0h, status,2, status,0, btemp+1, pclath, cstack
 11684 ;; Tracked objects:
 11685 ;;		On entry : 0/0
 11686 ;;		On exit  : 0/0
 11687 ;;		Unchanged: 0/0
 11688 ;; Data sizes:     COMMON   BANK0   BANK1   BANK3   BANK2
 11689 ;;      Params:         0       3       0       0       0
 11690 ;;      Locals:         0       0       0       0       0
 11691 ;;      Temps:          0       0       0       0       0
 11692 ;;      Totals:         0       3       0       0       0
 11693 ;;Total ram usage:        3 bytes
 11694 ;; Hardware stack levels used: 1
 11695 ;; Hardware stack levels required when called: 2
 11696 ;; This function calls:
 11697 ;;		_clcd_write
 11698 ;; This function is called by:
 11699 ;;		_dashboard
 11700 ;;		_display_time
 11701 ;;		_login
 11702 ;;		_print_sec
 11703 ;;		_display_menu
 11704 ;;		_view_logs
 11705 ;;		_view_log_events
 11706 ;;		_clear_log
 11707 ;;		_download
 11708 ;;		_set_time
 11709 ;;		_change_psswd
 11710 ;; This function uses a non-reentrant model
 11711 ;;
 11712                           
 11713     127C                     _clcd_print:	
 11714                           ;psect for function _clcd_print
 11715                           
 11716     127C                     l4721:	
 11717                           ;incstack = 0
 11718                           ; Regs used in _clcd_print: [wreg-fsr0h+status,2+status,0+btemp+1+pclath+cstack]
 11719                           
 11720                           
 11721                           ;clcd.c: 55: void clcd_print(const char *str, unsigned char addr);clcd.c: 56: {;clcd.c: 
      +                          57:     clcd_write(addr, 0);
 11722     127C  01F3               	clrf	clcd_write@mode
 11723     127D  1283               	bcf	3,5	;RP0=0, select bank0
 11724     127E  1303               	bcf	3,6	;RP1=0, select bank0
 11725     127F  0822               	movf	clcd_print@addr,w
 11726     1280  160A  158A  2799  160A  118A  	fcall	_clcd_write
 11727                           
 11728                           ;clcd.c: 59:     while (*str != '\0')
 11729     1285  2A9E               	goto	l4727
 11730     1286                     l4723:
 11731                           
 11732                           ;clcd.c: 60:     {;clcd.c: 61:         clcd_write(*str, 1);
 11733     1286  01F3               	clrf	clcd_write@mode
 11734     1287  0AF3               	incf	clcd_write@mode,f
 11735     1288  0821               	movf	clcd_print@str+1,w
 11736     1289  00FF               	movwf	btemp+1
 11737     128A  0820               	movf	clcd_print@str,w
 11738     128B  0084               	movwf	4
 11739     128C  160A  158A  2000  160A  118A  	fcall	stringtab
 11740     1291  160A  158A  2799  160A  118A  	fcall	_clcd_write
 11741     1296                     l4725:
 11742                           
 11743                           ;clcd.c: 62:         str++;
 11744     1296  3001               	movlw	1
 11745     1297  1283               	bcf	3,5	;RP0=0, select bank0
 11746     1298  1303               	bcf	3,6	;RP1=0, select bank0
 11747     1299  07A0               	addwf	clcd_print@str,f
 11748     129A  1803               	skipnc
 11749     129B  0AA1               	incf	clcd_print@str+1,f
 11750     129C  3000               	movlw	0
 11751     129D  07A1               	addwf	clcd_print@str+1,f
 11752     129E                     l4727:
 11753                           
 11754                           ;clcd.c: 59:     while (*str != '\0')
 11755     129E  1283               	bcf	3,5	;RP0=0, select bank0
 11756     129F  1303               	bcf	3,6	;RP1=0, select bank0
 11757     12A0  0821               	movf	clcd_print@str+1,w
 11758     12A1  00FF               	movwf	btemp+1
 11759     12A2  0820               	movf	clcd_print@str,w
 11760     12A3  0084               	movwf	4
 11761     12A4  160A  158A  2000  160A  118A  	fcall	stringtab
 11762     12A9  3A00               	xorlw	0
 11763     12AA  1D03               	skipz
 11764     12AB  2AAD               	goto	u4821
 11765     12AC  2AAE               	goto	u4820
 11766     12AD                     u4821:
 11767     12AD  2A86               	goto	l4723
 11768     12AE                     u4820:
 11769     12AE                     l32:
 11770     12AE  0008               	return
 11771     12AF                     __end_of_clcd_print:
 11772                           
 11773                           	psect	text55
 11774     1F99                     __ptext55:	
 11775 ;; *************** function _clcd_write *****************
 11776 ;; Defined at:
 11777 ;;		line 4 in file "clcd.c"
 11778 ;; Parameters:    Size  Location     Type
 11779 ;;  byte            1    wreg     unsigned char 
 11780 ;;  mode            1    3[COMMON] unsigned char 
 11781 ;; Auto vars:     Size  Location     Type
 11782 ;;  byte            1    6[COMMON] unsigned char 
 11783 ;; Return value:  Size  Location     Type
 11784 ;;                  1    wreg      void 
 11785 ;; Registers used:
 11786 ;;		wreg
 11787 ;; Tracked objects:
 11788 ;;		On entry : 0/0
 11789 ;;		On exit  : 0/0
 11790 ;;		Unchanged: 0/0
 11791 ;; Data sizes:     COMMON   BANK0   BANK1   BANK3   BANK2
 11792 ;;      Params:         1       0       0       0       0
 11793 ;;      Locals:         1       0       0       0       0
 11794 ;;      Temps:          2       0       0       0       0
 11795 ;;      Totals:         4       0       0       0       0
 11796 ;;Total ram usage:        4 bytes
 11797 ;; Hardware stack levels used: 1
 11798 ;; Hardware stack levels required when called: 1
 11799 ;; This function calls:
 11800 ;;		Nothing
 11801 ;; This function is called by:
 11802 ;;		_init_display_controller
 11803 ;;		_clcd_putch
 11804 ;;		_clcd_print
 11805 ;;		_clear_clcd
 11806 ;; This function uses a non-reentrant model
 11807 ;;
 11808                           
 11809     1F99                     _clcd_write:	
 11810                           ;psect for function _clcd_write
 11811                           
 11812                           
 11813                           ;incstack = 0
 11814                           ; Regs used in _clcd_write: [wreg]
 11815                           ;clcd_write@byte stored from wreg
 11816     1F99  00F6               	movwf	clcd_write@byte
 11817     1F9A                     l4687:
 11818                           
 11819                           ;clcd.c: 4: static void clcd_write(unsigned char byte, unsigned char mode);clcd.c: 5: {;
      +                          clcd.c: 6:     RE2 = mode;
 11820     1F9A  1873               	btfsc	clcd_write@mode,0
 11821     1F9B  2F9D               	goto	u4791
 11822     1F9C  2FA1               	goto	u4790
 11823     1F9D                     u4791:
 11824     1F9D  1283               	bcf	3,5	;RP0=0, select bank0
 11825     1F9E  1303               	bcf	3,6	;RP1=0, select bank0
 11826     1F9F  1509               	bsf	9,2	;volatile
 11827     1FA0  2FA4               	goto	u4804
 11828     1FA1                     u4790:
 11829     1FA1  1283               	bcf	3,5	;RP0=0, select bank0
 11830     1FA2  1303               	bcf	3,6	;RP1=0, select bank0
 11831     1FA3  1109               	bcf	9,2	;volatile
 11832     1FA4                     u4804:
 11833     1FA4                     l4689:
 11834                           
 11835                           ;clcd.c: 7:     PORTD = byte;
 11836     1FA4  0876               	movf	clcd_write@byte,w
 11837     1FA5  0088               	movwf	8	;volatile
 11838     1FA6                     l4691:
 11839                           
 11840                           ;clcd.c: 9:     RE1 = 1;
 11841     1FA6  1489               	bsf	9,1	;volatile
 11842                           
 11843                           ;clcd.c: 10:     _delay((unsigned long)((100)*(20000000/4000000.0)));
 11844     1FA7  30A6               	movlw	166
 11845     1FA8  00F4               	movwf	??_clcd_write
 11846     1FA9                     u7097:
 11847     1FA9  0BF4               	decfsz	??_clcd_write,f
 11848     1FAA  2FA9               	goto	u7097
 11849     1FAB  0000               	nop
 11850     1FAC                     l4693:
 11851                           
 11852                           ;clcd.c: 11:     RE1 = 0;
 11853     1FAC  1283               	bcf	3,5	;RP0=0, select bank0
 11854     1FAD  1303               	bcf	3,6	;RP1=0, select bank0
 11855     1FAE  1089               	bcf	9,1	;volatile
 11856                           
 11857                           ;clcd.c: 13:     _delay((unsigned long)((4100)*(20000000/4000000.0)));
 11858     1FAF  301B               	movlw	27
 11859     1FB0  00F5               	movwf	??_clcd_write+1
 11860     1FB1  309E               	movlw	158
 11861     1FB2  00F4               	movwf	??_clcd_write
 11862     1FB3                     u7107:
 11863     1FB3  0BF4               	decfsz	??_clcd_write,f
 11864     1FB4  2FB3               	goto	u7107
 11865     1FB5  0BF5               	decfsz	??_clcd_write+1,f
 11866     1FB6  2FB3               	goto	u7107
 11867     1FB7  0000               	nop
 11868     1FB8                     l17:
 11869     1FB8  0008               	return
 11870     1FB9                     __end_of_clcd_write:
 11871                           
 11872                           	psect	text56
 11873     0A34                     __ptext56:	
 11874 ;; *************** function ___xxtofl *****************
 11875 ;; Defined at:
 11876 ;;		line 10 in file "C:\Program Files\Microchip\xc8\v2.41\pic\sources\c90\common\xxtofl.c"
 11877 ;; Parameters:    Size  Location     Type
 11878 ;;  sign            1    wreg     unsigned char 
 11879 ;;  val             4    0[BANK0 ] long 
 11880 ;; Auto vars:     Size  Location     Type
 11881 ;;  sign            1    8[BANK0 ] unsigned char 
 11882 ;;  arg             4   10[BANK0 ] unsigned long 
 11883 ;;  exp             1    9[BANK0 ] unsigned char 
 11884 ;; Return value:  Size  Location     Type
 11885 ;;                  4    0[BANK0 ] unsigned char 
 11886 ;; Registers used:
 11887 ;;		wreg, status,2, status,0, btemp+1
 11888 ;; Tracked objects:
 11889 ;;		On entry : 0/0
 11890 ;;		On exit  : 0/0
 11891 ;;		Unchanged: 0/0
 11892 ;; Data sizes:     COMMON   BANK0   BANK1   BANK3   BANK2
 11893 ;;      Params:         0       4       0       0       0
 11894 ;;      Locals:         0       6       0       0       0
 11895 ;;      Temps:          0       4       0       0       0
 11896 ;;      Totals:         0      14       0       0       0
 11897 ;;Total ram usage:       14 bytes
 11898 ;; Hardware stack levels used: 1
 11899 ;; Hardware stack levels required when called: 1
 11900 ;; This function calls:
 11901 ;;		Nothing
 11902 ;; This function is called by:
 11903 ;;		_dashboard
 11904 ;; This function uses a non-reentrant model
 11905 ;;
 11906                           
 11907     0A34                     ___xxtofl:	
 11908                           ;psect for function ___xxtofl
 11909                           
 11910                           
 11911                           ;incstack = 0
 11912                           ; Regs used in ___xxtofl: [wreg+status,2+status,0+btemp+1]
 11913                           ;___xxtofl@sign stored from wreg
 11914     0A34  1283               	bcf	3,5	;RP0=0, select bank0
 11915     0A35  1303               	bcf	3,6	;RP1=0, select bank0
 11916     0A36  00A8               	movwf	___xxtofl@sign
 11917     0A37                     l5713:
 11918     0A37  0828               	movf	___xxtofl@sign,w
 11919     0A38  1903               	btfsc	3,2
 11920     0A39  2A3B               	goto	u6301
 11921     0A3A  2A3C               	goto	u6300
 11922     0A3B                     u6301:
 11923     0A3B  2A50               	goto	l5719
 11924     0A3C                     u6300:
 11925     0A3C                     l5715:
 11926     0A3C  1FA3               	btfss	___xxtofl@val+3,7
 11927     0A3D  2A3F               	goto	u6311
 11928     0A3E  2A40               	goto	u6310
 11929     0A3F                     u6311:
 11930     0A3F  2A50               	goto	l5719
 11931     0A40                     u6310:
 11932     0A40                     l5717:
 11933     0A40  0920               	comf	___xxtofl@val,w
 11934     0A41  00AA               	movwf	___xxtofl@arg
 11935     0A42  0921               	comf	___xxtofl@val+1,w
 11936     0A43  00AB               	movwf	___xxtofl@arg+1
 11937     0A44  0922               	comf	___xxtofl@val+2,w
 11938     0A45  00AC               	movwf	___xxtofl@arg+2
 11939     0A46  0923               	comf	___xxtofl@val+3,w
 11940     0A47  00AD               	movwf	___xxtofl@arg+3
 11941     0A48  0AAA               	incf	___xxtofl@arg,f
 11942     0A49  1903               	skipnz
 11943     0A4A  0AAB               	incf	___xxtofl@arg+1,f
 11944     0A4B  1903               	skipnz
 11945     0A4C  0AAC               	incf	___xxtofl@arg+2,f
 11946     0A4D  1903               	skipnz
 11947     0A4E  0AAD               	incf	___xxtofl@arg+3,f
 11948     0A4F  2A58               	goto	l1334
 11949     0A50                     l5719:
 11950     0A50  0823               	movf	___xxtofl@val+3,w
 11951     0A51  00AD               	movwf	___xxtofl@arg+3
 11952     0A52  0822               	movf	___xxtofl@val+2,w
 11953     0A53  00AC               	movwf	___xxtofl@arg+2
 11954     0A54  0821               	movf	___xxtofl@val+1,w
 11955     0A55  00AB               	movwf	___xxtofl@arg+1
 11956     0A56  0820               	movf	___xxtofl@val,w
 11957     0A57  00AA               	movwf	___xxtofl@arg
 11958     0A58                     l1334:
 11959     0A58  0823               	movf	___xxtofl@val+3,w
 11960     0A59  0422               	iorwf	___xxtofl@val+2,w
 11961     0A5A  0421               	iorwf	___xxtofl@val+1,w
 11962     0A5B  0420               	iorwf	___xxtofl@val,w
 11963     0A5C  1D03               	skipz
 11964     0A5D  2A5F               	goto	u6321
 11965     0A5E  2A60               	goto	u6320
 11966     0A5F                     u6321:
 11967     0A5F  2A69               	goto	l5725
 11968     0A60                     u6320:
 11969     0A60                     l5721:
 11970     0A60  3000               	movlw	0
 11971     0A61  00A3               	movwf	?___xxtofl+3
 11972     0A62  3000               	movlw	0
 11973     0A63  00A2               	movwf	?___xxtofl+2
 11974     0A64  3000               	movlw	0
 11975     0A65  00A1               	movwf	?___xxtofl+1
 11976     0A66  3000               	movlw	0
 11977     0A67  00A0               	movwf	?___xxtofl
 11978     0A68  2AED               	goto	l1336
 11979     0A69                     l5725:
 11980     0A69  3096               	movlw	150
 11981     0A6A  00A9               	movwf	___xxtofl@exp
 11982     0A6B  2A79               	goto	l5731
 11983     0A6C                     l5727:
 11984     0A6C  3001               	movlw	1
 11985     0A6D  00FF               	movwf	btemp+1
 11986     0A6E  087F               	movf	btemp+1,w
 11987     0A6F  07A9               	addwf	___xxtofl@exp,f
 11988     0A70                     l5729:
 11989     0A70  3001               	movlw	1
 11990     0A71                     u6335:
 11991     0A71  1003               	clrc
 11992     0A72  0CAD               	rrf	___xxtofl@arg+3,f
 11993     0A73  0CAC               	rrf	___xxtofl@arg+2,f
 11994     0A74  0CAB               	rrf	___xxtofl@arg+1,f
 11995     0A75  0CAA               	rrf	___xxtofl@arg,f
 11996     0A76  3EFF               	addlw	-1
 11997     0A77  1D03               	skipz
 11998     0A78  2A71               	goto	u6335
 11999     0A79                     l5731:
 12000     0A79  30FE               	movlw	254
 12001     0A7A  052D               	andwf	___xxtofl@arg+3,w
 12002     0A7B  1D03               	btfss	3,2
 12003     0A7C  2A7E               	goto	u6341
 12004     0A7D  2A7F               	goto	u6340
 12005     0A7E                     u6341:
 12006     0A7E  2A6C               	goto	l5727
 12007     0A7F                     u6340:
 12008     0A7F  2A9B               	goto	l5739
 12009     0A80                     l5733:
 12010     0A80  3001               	movlw	1
 12011     0A81  00FF               	movwf	btemp+1
 12012     0A82  087F               	movf	btemp+1,w
 12013     0A83  07A9               	addwf	___xxtofl@exp,f
 12014     0A84                     l5735:
 12015     0A84  3001               	movlw	1
 12016     0A85  07AA               	addwf	___xxtofl@arg,f
 12017     0A86  3000               	movlw	0
 12018     0A87  1803               	skipnc
 12019     0A88  3001               	movlw	1
 12020     0A89  07AB               	addwf	___xxtofl@arg+1,f
 12021     0A8A  3000               	movlw	0
 12022     0A8B  1803               	skipnc
 12023     0A8C  3001               	movlw	1
 12024     0A8D  07AC               	addwf	___xxtofl@arg+2,f
 12025     0A8E  3000               	movlw	0
 12026     0A8F  1803               	skipnc
 12027     0A90  3001               	movlw	1
 12028     0A91  07AD               	addwf	___xxtofl@arg+3,f
 12029     0A92                     l5737:
 12030     0A92  3001               	movlw	1
 12031     0A93                     u6355:
 12032     0A93  1003               	clrc
 12033     0A94  0CAD               	rrf	___xxtofl@arg+3,f
 12034     0A95  0CAC               	rrf	___xxtofl@arg+2,f
 12035     0A96  0CAB               	rrf	___xxtofl@arg+1,f
 12036     0A97  0CAA               	rrf	___xxtofl@arg,f
 12037     0A98  3EFF               	addlw	-1
 12038     0A99  1D03               	skipz
 12039     0A9A  2A93               	goto	u6355
 12040     0A9B                     l5739:
 12041     0A9B  30FF               	movlw	255
 12042     0A9C  052D               	andwf	___xxtofl@arg+3,w
 12043     0A9D  1D03               	btfss	3,2
 12044     0A9E  2AA0               	goto	u6361
 12045     0A9F  2AA1               	goto	u6360
 12046     0AA0                     u6361:
 12047     0AA0  2A80               	goto	l5733
 12048     0AA1                     u6360:
 12049     0AA1  2AAD               	goto	l5743
 12050     0AA2                     l5741:
 12051     0AA2  3001               	movlw	1
 12052     0AA3  02A9               	subwf	___xxtofl@exp,f
 12053     0AA4  3001               	movlw	1
 12054     0AA5  00A4               	movwf	??___xxtofl
 12055     0AA6                     u6375:
 12056     0AA6  1003               	clrc
 12057     0AA7  0DAA               	rlf	___xxtofl@arg,f
 12058     0AA8  0DAB               	rlf	___xxtofl@arg+1,f
 12059     0AA9  0DAC               	rlf	___xxtofl@arg+2,f
 12060     0AAA  0DAD               	rlf	___xxtofl@arg+3,f
 12061     0AAB  0BA4               	decfsz	??___xxtofl,f
 12062     0AAC  2AA6               	goto	u6375
 12063     0AAD                     l5743:
 12064     0AAD  1BAC               	btfsc	___xxtofl@arg+2,7
 12065     0AAE  2AB0               	goto	u6381
 12066     0AAF  2AB1               	goto	u6380
 12067     0AB0                     u6381:
 12068     0AB0  2AB7               	goto	l1347
 12069     0AB1                     u6380:
 12070     0AB1                     l5745:
 12071     0AB1  3002               	movlw	2
 12072     0AB2  0229               	subwf	___xxtofl@exp,w
 12073     0AB3  1803               	skipnc
 12074     0AB4  2AB6               	goto	u6391
 12075     0AB5  2AB7               	goto	u6390
 12076     0AB6                     u6391:
 12077     0AB6  2AA2               	goto	l5741
 12078     0AB7                     u6390:
 12079     0AB7                     l1347:
 12080     0AB7  1829               	btfsc	___xxtofl@exp,0
 12081     0AB8  2ABA               	goto	u6401
 12082     0AB9  2ABB               	goto	u6400
 12083     0ABA                     u6401:
 12084     0ABA  2AC3               	goto	l1348
 12085     0ABB                     u6400:
 12086     0ABB                     l5747:
 12087     0ABB  30FF               	movlw	255
 12088     0ABC  05AA               	andwf	___xxtofl@arg,f
 12089     0ABD  30FF               	movlw	255
 12090     0ABE  05AB               	andwf	___xxtofl@arg+1,f
 12091     0ABF  307F               	movlw	127
 12092     0AC0  05AC               	andwf	___xxtofl@arg+2,f
 12093     0AC1  30FF               	movlw	255
 12094     0AC2  05AD               	andwf	___xxtofl@arg+3,f
 12095     0AC3                     l1348:
 12096     0AC3  1003               	clrc
 12097     0AC4  0CA9               	rrf	___xxtofl@exp,f
 12098     0AC5                     l5749:
 12099     0AC5  0829               	movf	___xxtofl@exp,w
 12100     0AC6  00A4               	movwf	??___xxtofl
 12101     0AC7  01A5               	clrf	??___xxtofl+1
 12102     0AC8  01A6               	clrf	??___xxtofl+2
 12103     0AC9  01A7               	clrf	??___xxtofl+3
 12104     0ACA  3018               	movlw	24
 12105     0ACB                     u6415:
 12106     0ACB  1003               	clrc
 12107     0ACC  0DA4               	rlf	??___xxtofl,f
 12108     0ACD  0DA5               	rlf	??___xxtofl+1,f
 12109     0ACE  0DA6               	rlf	??___xxtofl+2,f
 12110     0ACF  0DA7               	rlf	??___xxtofl+3,f
 12111     0AD0                     u6410:
 12112     0AD0  3EFF               	addlw	-1
 12113     0AD1  1D03               	skipz
 12114     0AD2  2ACB               	goto	u6415
 12115     0AD3  0824               	movf	??___xxtofl,w
 12116     0AD4  04AA               	iorwf	___xxtofl@arg,f
 12117     0AD5  0825               	movf	??___xxtofl+1,w
 12118     0AD6  04AB               	iorwf	___xxtofl@arg+1,f
 12119     0AD7  0826               	movf	??___xxtofl+2,w
 12120     0AD8  04AC               	iorwf	___xxtofl@arg+2,f
 12121     0AD9  0827               	movf	??___xxtofl+3,w
 12122     0ADA  04AD               	iorwf	___xxtofl@arg+3,f
 12123     0ADB                     l5751:
 12124     0ADB  0828               	movf	___xxtofl@sign,w
 12125     0ADC  1903               	btfsc	3,2
 12126     0ADD  2ADF               	goto	u6421
 12127     0ADE  2AE0               	goto	u6420
 12128     0ADF                     u6421:
 12129     0ADF  2AE5               	goto	l5757
 12130     0AE0                     u6420:
 12131     0AE0                     l5753:
 12132     0AE0  1FA3               	btfss	___xxtofl@val+3,7
 12133     0AE1  2AE3               	goto	u6431
 12134     0AE2  2AE4               	goto	u6430
 12135     0AE3                     u6431:
 12136     0AE3  2AE5               	goto	l5757
 12137     0AE4                     u6430:
 12138     0AE4                     l5755:
 12139     0AE4  17AD               	bsf	___xxtofl@arg+3,7
 12140     0AE5                     l5757:
 12141     0AE5  082D               	movf	___xxtofl@arg+3,w
 12142     0AE6  00A3               	movwf	?___xxtofl+3
 12143     0AE7  082C               	movf	___xxtofl@arg+2,w
 12144     0AE8  00A2               	movwf	?___xxtofl+2
 12145     0AE9  082B               	movf	___xxtofl@arg+1,w
 12146     0AEA  00A1               	movwf	?___xxtofl+1
 12147     0AEB  082A               	movf	___xxtofl@arg,w
 12148     0AEC  00A0               	movwf	?___xxtofl
 12149     0AED                     l1336:
 12150     0AED  0008               	return
 12151     0AEE                     __end_of___xxtofl:
 12152                           
 12153                           	psect	text57
 12154     12E3                     __ptext57:	
 12155 ;; *************** function ___lwmod *****************
 12156 ;; Defined at:
 12157 ;;		line 5 in file "C:\Program Files\Microchip\xc8\v2.41\pic\sources\c90\common\lwmod.c"
 12158 ;; Parameters:    Size  Location     Type
 12159 ;;  divisor         2    3[COMMON] unsigned int 
 12160 ;;  dividend        2    5[COMMON] unsigned int 
 12161 ;; Auto vars:     Size  Location     Type
 12162 ;;  counter         1    7[COMMON] unsigned char 
 12163 ;; Return value:  Size  Location     Type
 12164 ;;                  2    3[COMMON] unsigned int 
 12165 ;; Registers used:
 12166 ;;		wreg, status,2, status,0, btemp+1
 12167 ;; Tracked objects:
 12168 ;;		On entry : 0/0
 12169 ;;		On exit  : 0/0
 12170 ;;		Unchanged: 0/0
 12171 ;; Data sizes:     COMMON   BANK0   BANK1   BANK3   BANK2
 12172 ;;      Params:         4       0       0       0       0
 12173 ;;      Locals:         1       0       0       0       0
 12174 ;;      Temps:          0       0       0       0       0
 12175 ;;      Totals:         5       0       0       0       0
 12176 ;;Total ram usage:        5 bytes
 12177 ;; Hardware stack levels used: 1
 12178 ;; Hardware stack levels required when called: 1
 12179 ;; This function calls:
 12180 ;;		Nothing
 12181 ;; This function is called by:
 12182 ;;		_dashboard
 12183 ;;		_set_time
 12184 ;; This function uses a non-reentrant model
 12185 ;;
 12186                           
 12187     12E3                     ___lwmod:	
 12188                           ;psect for function ___lwmod
 12189                           
 12190     12E3                     l4989:	
 12191                           ;incstack = 0
 12192                           ; Regs used in ___lwmod: [wreg+status,2+status,0+btemp+1]
 12193                           
 12194     12E3  0873               	movf	___lwmod@divisor,w
 12195     12E4  0474               	iorwf	___lwmod@divisor+1,w
 12196     12E5  1903               	btfsc	3,2
 12197     12E6  2AE8               	goto	u5281
 12198     12E7  2AE9               	goto	u5280
 12199     12E8                     u5281:
 12200     12E8  2B18               	goto	l5007
 12201     12E9                     u5280:
 12202     12E9                     l4991:
 12203     12E9  01F7               	clrf	___lwmod@counter
 12204     12EA  0AF7               	incf	___lwmod@counter,f
 12205     12EB  2AF7               	goto	l4997
 12206     12EC                     l4993:
 12207     12EC  3001               	movlw	1
 12208     12ED                     u5295:
 12209     12ED  1003               	clrc
 12210     12EE  0DF3               	rlf	___lwmod@divisor,f
 12211     12EF  0DF4               	rlf	___lwmod@divisor+1,f
 12212     12F0  3EFF               	addlw	-1
 12213     12F1  1D03               	skipz
 12214     12F2  2AED               	goto	u5295
 12215     12F3                     l4995:
 12216     12F3  3001               	movlw	1
 12217     12F4  00FF               	movwf	btemp+1
 12218     12F5  087F               	movf	btemp+1,w
 12219     12F6  07F7               	addwf	___lwmod@counter,f
 12220     12F7                     l4997:
 12221     12F7  1FF4               	btfss	___lwmod@divisor+1,7
 12222     12F8  2AFA               	goto	u5301
 12223     12F9  2AFB               	goto	u5300
 12224     12FA                     u5301:
 12225     12FA  2AEC               	goto	l4993
 12226     12FB                     u5300:
 12227     12FB                     l4999:
 12228     12FB  0874               	movf	___lwmod@divisor+1,w
 12229     12FC  0276               	subwf	___lwmod@dividend+1,w
 12230     12FD  1D03               	skipz
 12231     12FE  2B01               	goto	u5315
 12232     12FF  0873               	movf	___lwmod@divisor,w
 12233     1300  0275               	subwf	___lwmod@dividend,w
 12234     1301                     u5315:
 12235     1301  1C03               	skipc
 12236     1302  2B04               	goto	u5311
 12237     1303  2B05               	goto	u5310
 12238     1304                     u5311:
 12239     1304  2B0B               	goto	l5003
 12240     1305                     u5310:
 12241     1305                     l5001:
 12242     1305  0873               	movf	___lwmod@divisor,w
 12243     1306  02F5               	subwf	___lwmod@dividend,f
 12244     1307  0874               	movf	___lwmod@divisor+1,w
 12245     1308  1C03               	skipc
 12246     1309  03F6               	decf	___lwmod@dividend+1,f
 12247     130A  02F6               	subwf	___lwmod@dividend+1,f
 12248     130B                     l5003:
 12249     130B  3001               	movlw	1
 12250     130C                     u5325:
 12251     130C  1003               	clrc
 12252     130D  0CF4               	rrf	___lwmod@divisor+1,f
 12253     130E  0CF3               	rrf	___lwmod@divisor,f
 12254     130F  3EFF               	addlw	-1
 12255     1310  1D03               	skipz
 12256     1311  2B0C               	goto	u5325
 12257     1312                     l5005:
 12258     1312  3001               	movlw	1
 12259     1313  02F7               	subwf	___lwmod@counter,f
 12260     1314  1D03               	btfss	3,2
 12261     1315  2B17               	goto	u5331
 12262     1316  2B18               	goto	u5330
 12263     1317                     u5331:
 12264     1317  2AFB               	goto	l4999
 12265     1318                     u5330:
 12266     1318                     l5007:
 12267     1318  0876               	movf	___lwmod@dividend+1,w
 12268     1319  00F4               	movwf	?___lwmod+1
 12269     131A  0875               	movf	___lwmod@dividend,w
 12270     131B  00F3               	movwf	?___lwmod
 12271     131C                     l1183:
 12272     131C  0008               	return
 12273     131D                     __end_of___lwmod:
 12274                           
 12275                           	psect	text58
 12276     1418                     __ptext58:	
 12277 ;; *************** function ___lwdiv *****************
 12278 ;; Defined at:
 12279 ;;		line 5 in file "C:\Program Files\Microchip\xc8\v2.41\pic\sources\c90\common\lwdiv.c"
 12280 ;; Parameters:    Size  Location     Type
 12281 ;;  divisor         2    3[COMMON] unsigned int 
 12282 ;;  dividend        2    5[COMMON] unsigned int 
 12283 ;; Auto vars:     Size  Location     Type
 12284 ;;  quotient        2    1[BANK0 ] unsigned int 
 12285 ;;  counter         1    0[BANK0 ] unsigned char 
 12286 ;; Return value:  Size  Location     Type
 12287 ;;                  2    3[COMMON] unsigned int 
 12288 ;; Registers used:
 12289 ;;		wreg, status,2, status,0, btemp+1
 12290 ;; Tracked objects:
 12291 ;;		On entry : 0/0
 12292 ;;		On exit  : 0/0
 12293 ;;		Unchanged: 0/0
 12294 ;; Data sizes:     COMMON   BANK0   BANK1   BANK3   BANK2
 12295 ;;      Params:         4       0       0       0       0
 12296 ;;      Locals:         0       3       0       0       0
 12297 ;;      Temps:          0       0       0       0       0
 12298 ;;      Totals:         4       3       0       0       0
 12299 ;;Total ram usage:        7 bytes
 12300 ;; Hardware stack levels used: 1
 12301 ;; Hardware stack levels required when called: 1
 12302 ;; This function calls:
 12303 ;;		Nothing
 12304 ;; This function is called by:
 12305 ;;		_dashboard
 12306 ;;		_set_time
 12307 ;; This function uses a non-reentrant model
 12308 ;;
 12309                           
 12310     1418                     ___lwdiv:	
 12311                           ;psect for function ___lwdiv
 12312                           
 12313     1418                     l4963:	
 12314                           ;incstack = 0
 12315                           ; Regs used in ___lwdiv: [wreg+status,2+status,0+btemp+1]
 12316                           
 12317     1418  1283               	bcf	3,5	;RP0=0, select bank0
 12318     1419  1303               	bcf	3,6	;RP1=0, select bank0
 12319     141A  01A1               	clrf	___lwdiv@quotient
 12320     141B  01A2               	clrf	___lwdiv@quotient+1
 12321     141C                     l4965:
 12322     141C  0873               	movf	___lwdiv@divisor,w
 12323     141D  0474               	iorwf	___lwdiv@divisor+1,w
 12324     141E  1903               	btfsc	3,2
 12325     141F  2C21               	goto	u5211
 12326     1420  2C22               	goto	u5210
 12327     1421                     u5211:
 12328     1421  2C59               	goto	l4985
 12329     1422                     u5210:
 12330     1422                     l4967:
 12331     1422  01A0               	clrf	___lwdiv@counter
 12332     1423  0AA0               	incf	___lwdiv@counter,f
 12333     1424  2C30               	goto	l4973
 12334     1425                     l4969:
 12335     1425  3001               	movlw	1
 12336     1426                     u5225:
 12337     1426  1003               	clrc
 12338     1427  0DF3               	rlf	___lwdiv@divisor,f
 12339     1428  0DF4               	rlf	___lwdiv@divisor+1,f
 12340     1429  3EFF               	addlw	-1
 12341     142A  1D03               	skipz
 12342     142B  2C26               	goto	u5225
 12343     142C                     l4971:
 12344     142C  3001               	movlw	1
 12345     142D  00FF               	movwf	btemp+1
 12346     142E  087F               	movf	btemp+1,w
 12347     142F  07A0               	addwf	___lwdiv@counter,f
 12348     1430                     l4973:
 12349     1430  1FF4               	btfss	___lwdiv@divisor+1,7
 12350     1431  2C33               	goto	u5231
 12351     1432  2C34               	goto	u5230
 12352     1433                     u5231:
 12353     1433  2C25               	goto	l4969
 12354     1434                     u5230:
 12355     1434                     l4975:
 12356     1434  3001               	movlw	1
 12357     1435                     u5245:
 12358     1435  1003               	clrc
 12359     1436  0DA1               	rlf	___lwdiv@quotient,f
 12360     1437  0DA2               	rlf	___lwdiv@quotient+1,f
 12361     1438  3EFF               	addlw	-1
 12362     1439  1D03               	skipz
 12363     143A  2C35               	goto	u5245
 12364     143B  0874               	movf	___lwdiv@divisor+1,w
 12365     143C  0276               	subwf	___lwdiv@dividend+1,w
 12366     143D  1D03               	skipz
 12367     143E  2C41               	goto	u5255
 12368     143F  0873               	movf	___lwdiv@divisor,w
 12369     1440  0275               	subwf	___lwdiv@dividend,w
 12370     1441                     u5255:
 12371     1441  1C03               	skipc
 12372     1442  2C44               	goto	u5251
 12373     1443  2C45               	goto	u5250
 12374     1444                     u5251:
 12375     1444  2C4C               	goto	l4981
 12376     1445                     u5250:
 12377     1445                     l4977:
 12378     1445  0873               	movf	___lwdiv@divisor,w
 12379     1446  02F5               	subwf	___lwdiv@dividend,f
 12380     1447  0874               	movf	___lwdiv@divisor+1,w
 12381     1448  1C03               	skipc
 12382     1449  03F6               	decf	___lwdiv@dividend+1,f
 12383     144A  02F6               	subwf	___lwdiv@dividend+1,f
 12384     144B                     l4979:
 12385     144B  1421               	bsf	___lwdiv@quotient,0
 12386     144C                     l4981:
 12387     144C  3001               	movlw	1
 12388     144D                     u5265:
 12389     144D  1003               	clrc
 12390     144E  0CF4               	rrf	___lwdiv@divisor+1,f
 12391     144F  0CF3               	rrf	___lwdiv@divisor,f
 12392     1450  3EFF               	addlw	-1
 12393     1451  1D03               	skipz
 12394     1452  2C4D               	goto	u5265
 12395     1453                     l4983:
 12396     1453  3001               	movlw	1
 12397     1454  02A0               	subwf	___lwdiv@counter,f
 12398     1455  1D03               	btfss	3,2
 12399     1456  2C58               	goto	u5271
 12400     1457  2C59               	goto	u5270
 12401     1458                     u5271:
 12402     1458  2C34               	goto	l4975
 12403     1459                     u5270:
 12404     1459                     l4985:
 12405     1459  0822               	movf	___lwdiv@quotient+1,w
 12406     145A  00F4               	movwf	?___lwdiv+1
 12407     145B  0821               	movf	___lwdiv@quotient,w
 12408     145C  00F3               	movwf	?___lwdiv
 12409     145D                     l1173:
 12410     145D  0008               	return
 12411     145E                     __end_of___lwdiv:
 12412                           
 12413                           	psect	text59
 12414     08BD                     __ptext59:	
 12415 ;; *************** function ___fltol *****************
 12416 ;; Defined at:
 12417 ;;		line 43 in file "C:\Program Files\Microchip\xc8\v2.41\pic\sources\c90\common\fltol.c"
 12418 ;; Parameters:    Size  Location     Type
 12419 ;;  f1              4   40[BANK0 ] unsigned int 
 12420 ;; Auto vars:     Size  Location     Type
 12421 ;;  exp1            1   49[BANK0 ] unsigned char 
 12422 ;;  sign1           1   48[BANK0 ] unsigned char 
 12423 ;; Return value:  Size  Location     Type
 12424 ;;                  4   40[BANK0 ] long 
 12425 ;; Registers used:
 12426 ;;		wreg, status,2, status,0, btemp+1
 12427 ;; Tracked objects:
 12428 ;;		On entry : 0/0
 12429 ;;		On exit  : 0/0
 12430 ;;		Unchanged: 0/0
 12431 ;; Data sizes:     COMMON   BANK0   BANK1   BANK3   BANK2
 12432 ;;      Params:         0       4       0       0       0
 12433 ;;      Locals:         0       2       0       0       0
 12434 ;;      Temps:          0       4       0       0       0
 12435 ;;      Totals:         0      10       0       0       0
 12436 ;;Total ram usage:       10 bytes
 12437 ;; Hardware stack levels used: 1
 12438 ;; Hardware stack levels required when called: 1
 12439 ;; This function calls:
 12440 ;;		Nothing
 12441 ;; This function is called by:
 12442 ;;		_dashboard
 12443 ;; This function uses a non-reentrant model
 12444 ;;
 12445                           
 12446     08BD                     ___fltol:	
 12447                           ;psect for function ___fltol
 12448                           
 12449     08BD                     l5529:	
 12450                           ;incstack = 0
 12451                           ; Regs used in ___fltol: [wreg+status,2+status,0+btemp+1]
 12452                           
 12453     08BD  1003               	clrc
 12454     08BE  1283               	bcf	3,5	;RP0=0, select bank0
 12455     08BF  1303               	bcf	3,6	;RP1=0, select bank0
 12456     08C0  0D4A               	rlf	___fltol@f1+2,w
 12457     08C1  0D4B               	rlf	___fltol@f1+3,w
 12458     08C2  00D1               	movwf	___fltol@exp1
 12459     08C3  0851               	movf	___fltol@exp1,w
 12460     08C4  1D03               	btfss	3,2
 12461     08C5  28C7               	goto	u5911
 12462     08C6  28C8               	goto	u5910
 12463     08C7                     u5911:
 12464     08C7  28D1               	goto	l5535
 12465     08C8                     u5910:
 12466     08C8                     l5531:
 12467     08C8  3000               	movlw	0
 12468     08C9  00CB               	movwf	?___fltol+3
 12469     08CA  3000               	movlw	0
 12470     08CB  00CA               	movwf	?___fltol+2
 12471     08CC  3000               	movlw	0
 12472     08CD  00C9               	movwf	?___fltol+1
 12473     08CE  3000               	movlw	0
 12474     08CF  00C8               	movwf	?___fltol
 12475     08D0  2934               	goto	l1087
 12476     08D1                     l5535:
 12477     08D1  0848               	movf	___fltol@f1,w
 12478     08D2  00CC               	movwf	??___fltol
 12479     08D3  0849               	movf	___fltol@f1+1,w
 12480     08D4  00CD               	movwf	??___fltol+1
 12481     08D5  084A               	movf	___fltol@f1+2,w
 12482     08D6  00CE               	movwf	??___fltol+2
 12483     08D7  084B               	movf	___fltol@f1+3,w
 12484     08D8  00CF               	movwf	??___fltol+3
 12485     08D9  301F               	movlw	31
 12486     08DA                     u5925:
 12487     08DA  1003               	clrc
 12488     08DB  0CCF               	rrf	??___fltol+3,f
 12489     08DC  0CCE               	rrf	??___fltol+2,f
 12490     08DD  0CCD               	rrf	??___fltol+1,f
 12491     08DE  0CCC               	rrf	??___fltol,f
 12492     08DF                     u5920:
 12493     08DF  3EFF               	addlw	-1
 12494     08E0  1D03               	skipz
 12495     08E1  28DA               	goto	u5925
 12496     08E2  084C               	movf	??___fltol,w
 12497     08E3  00D0               	movwf	___fltol@sign1
 12498     08E4                     l5537:
 12499     08E4  17CA               	bsf	___fltol@f1+2,7
 12500     08E5                     l5539:
 12501     08E5  30FF               	movlw	255
 12502     08E6  05C8               	andwf	___fltol@f1,f
 12503     08E7  30FF               	movlw	255
 12504     08E8  05C9               	andwf	___fltol@f1+1,f
 12505     08E9  30FF               	movlw	255
 12506     08EA  05CA               	andwf	___fltol@f1+2,f
 12507     08EB  3000               	movlw	0
 12508     08EC  05CB               	andwf	___fltol@f1+3,f
 12509     08ED                     l5541:
 12510     08ED  3096               	movlw	150
 12511     08EE  02D1               	subwf	___fltol@exp1,f
 12512     08EF                     l5543:
 12513     08EF  1FD1               	btfss	___fltol@exp1,7
 12514     08F0  28F2               	goto	u5931
 12515     08F1  28F3               	goto	u5930
 12516     08F2                     u5931:
 12517     08F2  290D               	goto	l5555
 12518     08F3                     u5930:
 12519     08F3                     l5545:
 12520     08F3  0851               	movf	___fltol@exp1,w
 12521     08F4  3A80               	xorlw	128
 12522     08F5  3E97               	addlw	151
 12523     08F6  1803               	skipnc
 12524     08F7  28F9               	goto	u5941
 12525     08F8  28FA               	goto	u5940
 12526     08F9                     u5941:
 12527     08F9  28FB               	goto	l5551
 12528     08FA                     u5940:
 12529     08FA  28C8               	goto	l5531
 12530     08FB                     l5551:
 12531     08FB  3001               	movlw	1
 12532     08FC                     u5955:
 12533     08FC  1003               	clrc
 12534     08FD  0CCB               	rrf	___fltol@f1+3,f
 12535     08FE  0CCA               	rrf	___fltol@f1+2,f
 12536     08FF  0CC9               	rrf	___fltol@f1+1,f
 12537     0900  0CC8               	rrf	___fltol@f1,f
 12538     0901  3EFF               	addlw	-1
 12539     0902  1D03               	skipz
 12540     0903  28FC               	goto	u5955
 12541     0904                     l5553:
 12542     0904  3001               	movlw	1
 12543     0905  00FF               	movwf	btemp+1
 12544     0906  087F               	movf	btemp+1,w
 12545     0907  07D1               	addwf	___fltol@exp1,f
 12546     0908  1D03               	btfss	3,2
 12547     0909  290B               	goto	u5961
 12548     090A  290C               	goto	u5960
 12549     090B                     u5961:
 12550     090B  28FB               	goto	l5551
 12551     090C                     u5960:
 12552     090C  2924               	goto	l5563
 12553     090D                     l5555:
 12554     090D  3020               	movlw	32
 12555     090E  0251               	subwf	___fltol@exp1,w
 12556     090F  1C03               	skipc
 12557     0910  2912               	goto	u5971
 12558     0911  2913               	goto	u5970
 12559     0912                     u5971:
 12560     0912  291F               	goto	l1094
 12561     0913                     u5970:
 12562     0913  28C8               	goto	l5531
 12563     0914                     l5561:
 12564     0914  3001               	movlw	1
 12565     0915  00CC               	movwf	??___fltol
 12566     0916                     u5985:
 12567     0916  1003               	clrc
 12568     0917  0DC8               	rlf	___fltol@f1,f
 12569     0918  0DC9               	rlf	___fltol@f1+1,f
 12570     0919  0DCA               	rlf	___fltol@f1+2,f
 12571     091A  0DCB               	rlf	___fltol@f1+3,f
 12572     091B  0BCC               	decfsz	??___fltol,f
 12573     091C  2916               	goto	u5985
 12574     091D  3001               	movlw	1
 12575     091E  02D1               	subwf	___fltol@exp1,f
 12576     091F                     l1094:
 12577     091F  0851               	movf	___fltol@exp1,w
 12578     0920  1D03               	btfss	3,2
 12579     0921  2923               	goto	u5991
 12580     0922  2924               	goto	u5990
 12581     0923                     u5991:
 12582     0923  2914               	goto	l5561
 12583     0924                     u5990:
 12584     0924                     l5563:
 12585     0924  0850               	movf	___fltol@sign1,w
 12586     0925  1903               	btfsc	3,2
 12587     0926  2928               	goto	u6001
 12588     0927  2929               	goto	u6000
 12589     0928                     u6001:
 12590     0928  2934               	goto	l1097
 12591     0929                     u6000:
 12592     0929                     l5565:
 12593     0929  09C8               	comf	___fltol@f1,f
 12594     092A  09C9               	comf	___fltol@f1+1,f
 12595     092B  09CA               	comf	___fltol@f1+2,f
 12596     092C  09CB               	comf	___fltol@f1+3,f
 12597     092D  0AC8               	incf	___fltol@f1,f
 12598     092E  1903               	skipnz
 12599     092F  0AC9               	incf	___fltol@f1+1,f
 12600     0930  1903               	skipnz
 12601     0931  0ACA               	incf	___fltol@f1+2,f
 12602     0932  1903               	skipnz
 12603     0933  0ACB               	incf	___fltol@f1+3,f
 12604     0934                     l1097:
 12605     0934                     l1087:
 12606     0934  0008               	return
 12607     0935                     __end_of___fltol:
 12608                           
 12609                           	psect	text60
 12610     0E31                     __ptext60:	
 12611 ;; *************** function ___fldiv *****************
 12612 ;; Defined at:
 12613 ;;		line 8 in file "C:\Program Files\Microchip\xc8\v2.41\pic\sources\c90\common\sprcdiv.c"
 12614 ;; Parameters:    Size  Location     Type
 12615 ;;  a               4   14[BANK0 ] long 
 12616 ;;  b               4   18[BANK0 ] long 
 12617 ;; Auto vars:     Size  Location     Type
 12618 ;;  grs             4   34[BANK0 ] unsigned long 
 12619 ;;  rem             4   27[BANK0 ] unsigned long 
 12620 ;;  new_exp         2   32[BANK0 ] int 
 12621 ;;  aexp            1   39[BANK0 ] unsigned char 
 12622 ;;  bexp            1   38[BANK0 ] unsigned char 
 12623 ;;  sign            1   31[BANK0 ] unsigned char 
 12624 ;; Return value:  Size  Location     Type
 12625 ;;                  4   14[BANK0 ] unsigned char 
 12626 ;; Registers used:
 12627 ;;		wreg, status,2, status,0, btemp+1
 12628 ;; Tracked objects:
 12629 ;;		On entry : 0/0
 12630 ;;		On exit  : 0/0
 12631 ;;		Unchanged: 0/0
 12632 ;; Data sizes:     COMMON   BANK0   BANK1   BANK3   BANK2
 12633 ;;      Params:         0       8       0       0       0
 12634 ;;      Locals:         0      13       0       0       0
 12635 ;;      Temps:          0       5       0       0       0
 12636 ;;      Totals:         0      26       0       0       0
 12637 ;;Total ram usage:       26 bytes
 12638 ;; Hardware stack levels used: 1
 12639 ;; Hardware stack levels required when called: 1
 12640 ;; This function calls:
 12641 ;;		Nothing
 12642 ;; This function is called by:
 12643 ;;		_dashboard
 12644 ;; This function uses a non-reentrant model
 12645 ;;
 12646                           
 12647     0E31                     ___fldiv:	
 12648                           ;psect for function ___fldiv
 12649                           
 12650     0E31                     l5567:	
 12651                           ;incstack = 0
 12652                           ; Regs used in ___fldiv: [wreg+status,2+status,0+btemp+1]
 12653                           
 12654     0E31  1283               	bcf	3,5	;RP0=0, select bank0
 12655     0E32  1303               	bcf	3,6	;RP1=0, select bank0
 12656     0E33  0835               	movf	___fldiv@b+3,w
 12657     0E34  3980               	andlw	128
 12658     0E35  00BF               	movwf	___fldiv@sign
 12659     0E36                     l5569:
 12660     0E36  0835               	movf	___fldiv@b+3,w
 12661     0E37  00B6               	movwf	??___fldiv
 12662     0E38  0736               	addwf	??___fldiv,w
 12663     0E39  00C6               	movwf	___fldiv@bexp
 12664     0E3A                     l5571:
 12665     0E3A  1FB4               	btfss	___fldiv@b+2,7
 12666     0E3B  2E3D               	goto	u6011
 12667     0E3C  2E3E               	goto	u6010
 12668     0E3D                     u6011:
 12669     0E3D  2E3F               	goto	l5575
 12670     0E3E                     u6010:
 12671     0E3E                     l5573:
 12672     0E3E  1446               	bsf	___fldiv@bexp,0
 12673     0E3F                     l5575:
 12674     0E3F  0846               	movf	___fldiv@bexp,w
 12675     0E40  1903               	btfsc	3,2
 12676     0E41  2E43               	goto	u6021
 12677     0E42  2E44               	goto	u6020
 12678     0E43                     u6021:
 12679     0E43  2E54               	goto	l5585
 12680     0E44                     u6020:
 12681     0E44                     l5577:
 12682     0E44  0A46               	incf	___fldiv@bexp,w
 12683     0E45  1D03               	btfss	3,2
 12684     0E46  2E48               	goto	u6031
 12685     0E47  2E49               	goto	u6030
 12686     0E48                     u6031:
 12687     0E48  2E51               	goto	l5581
 12688     0E49                     u6030:
 12689     0E49                     l5579:
 12690     0E49  3000               	movlw	0
 12691     0E4A  00B5               	movwf	___fldiv@b+3
 12692     0E4B  3000               	movlw	0
 12693     0E4C  00B4               	movwf	___fldiv@b+2
 12694     0E4D  3000               	movlw	0
 12695     0E4E  00B3               	movwf	___fldiv@b+1
 12696     0E4F  3000               	movlw	0
 12697     0E50  00B2               	movwf	___fldiv@b
 12698     0E51                     l5581:
 12699     0E51  17B4               	bsf	___fldiv@b+2,7
 12700     0E52                     l5583:
 12701     0E52  01B5               	clrf	___fldiv@b+3
 12702     0E53  2E5C               	goto	l5587
 12703     0E54                     l5585:
 12704     0E54  3000               	movlw	0
 12705     0E55  00B5               	movwf	___fldiv@b+3
 12706     0E56  3000               	movlw	0
 12707     0E57  00B4               	movwf	___fldiv@b+2
 12708     0E58  3000               	movlw	0
 12709     0E59  00B3               	movwf	___fldiv@b+1
 12710     0E5A  3000               	movlw	0
 12711     0E5B  00B2               	movwf	___fldiv@b
 12712     0E5C                     l5587:
 12713     0E5C  0831               	movf	___fldiv@a+3,w
 12714     0E5D  3980               	andlw	128
 12715     0E5E  00FF               	movwf	btemp+1
 12716     0E5F  087F               	movf	btemp+1,w
 12717     0E60  06BF               	xorwf	___fldiv@sign,f
 12718     0E61                     l5589:
 12719     0E61  0831               	movf	___fldiv@a+3,w
 12720     0E62  00B6               	movwf	??___fldiv
 12721     0E63  0736               	addwf	??___fldiv,w
 12722     0E64  00C7               	movwf	___fldiv@aexp
 12723     0E65                     l5591:
 12724     0E65  1FB0               	btfss	___fldiv@a+2,7
 12725     0E66  2E68               	goto	u6041
 12726     0E67  2E69               	goto	u6040
 12727     0E68                     u6041:
 12728     0E68  2E6A               	goto	l5595
 12729     0E69                     u6040:
 12730     0E69                     l5593:
 12731     0E69  1447               	bsf	___fldiv@aexp,0
 12732     0E6A                     l5595:
 12733     0E6A  0847               	movf	___fldiv@aexp,w
 12734     0E6B  1903               	btfsc	3,2
 12735     0E6C  2E6E               	goto	u6051
 12736     0E6D  2E6F               	goto	u6050
 12737     0E6E                     u6051:
 12738     0E6E  2E7F               	goto	l5605
 12739     0E6F                     u6050:
 12740     0E6F                     l5597:
 12741     0E6F  0A47               	incf	___fldiv@aexp,w
 12742     0E70  1D03               	btfss	3,2
 12743     0E71  2E73               	goto	u6061
 12744     0E72  2E74               	goto	u6060
 12745     0E73                     u6061:
 12746     0E73  2E7C               	goto	l5601
 12747     0E74                     u6060:
 12748     0E74                     l5599:
 12749     0E74  3000               	movlw	0
 12750     0E75  00B1               	movwf	___fldiv@a+3
 12751     0E76  3000               	movlw	0
 12752     0E77  00B0               	movwf	___fldiv@a+2
 12753     0E78  3000               	movlw	0
 12754     0E79  00AF               	movwf	___fldiv@a+1
 12755     0E7A  3000               	movlw	0
 12756     0E7B  00AE               	movwf	___fldiv@a
 12757     0E7C                     l5601:
 12758     0E7C  17B0               	bsf	___fldiv@a+2,7
 12759     0E7D                     l5603:
 12760     0E7D  01B1               	clrf	___fldiv@a+3
 12761     0E7E  2E87               	goto	l1250
 12762     0E7F                     l5605:
 12763     0E7F  3000               	movlw	0
 12764     0E80  00B1               	movwf	___fldiv@a+3
 12765     0E81  3000               	movlw	0
 12766     0E82  00B0               	movwf	___fldiv@a+2
 12767     0E83  3000               	movlw	0
 12768     0E84  00AF               	movwf	___fldiv@a+1
 12769     0E85  3000               	movlw	0
 12770     0E86  00AE               	movwf	___fldiv@a
 12771     0E87                     l1250:
 12772     0E87  0831               	movf	___fldiv@a+3,w
 12773     0E88  0430               	iorwf	___fldiv@a+2,w
 12774     0E89  042F               	iorwf	___fldiv@a+1,w
 12775     0E8A  042E               	iorwf	___fldiv@a,w
 12776     0E8B  1D03               	skipz
 12777     0E8C  2E8E               	goto	u6071
 12778     0E8D  2E8F               	goto	u6070
 12779     0E8E                     u6071:
 12780     0E8E  2EA8               	goto	l5615
 12781     0E8F                     u6070:
 12782     0E8F                     l5607:
 12783     0E8F  3000               	movlw	0
 12784     0E90  00B5               	movwf	___fldiv@b+3
 12785     0E91  3000               	movlw	0
 12786     0E92  00B4               	movwf	___fldiv@b+2
 12787     0E93  3000               	movlw	0
 12788     0E94  00B3               	movwf	___fldiv@b+1
 12789     0E95  3000               	movlw	0
 12790     0E96  00B2               	movwf	___fldiv@b
 12791     0E97  3080               	movlw	128
 12792     0E98  04B4               	iorwf	___fldiv@b+2,f
 12793     0E99  307F               	movlw	127
 12794     0E9A  04B5               	iorwf	___fldiv@b+3,f
 12795     0E9B                     l5609:
 12796     0E9B  083F               	movf	___fldiv@sign,w
 12797     0E9C  00FF               	movwf	btemp+1
 12798     0E9D  087F               	movf	btemp+1,w
 12799     0E9E  04B5               	iorwf	___fldiv@b+3,f
 12800     0E9F                     l5611:
 12801     0E9F  0835               	movf	___fldiv@b+3,w
 12802     0EA0  00B1               	movwf	?___fldiv+3
 12803     0EA1  0834               	movf	___fldiv@b+2,w
 12804     0EA2  00B0               	movwf	?___fldiv+2
 12805     0EA3  0833               	movf	___fldiv@b+1,w
 12806     0EA4  00AF               	movwf	?___fldiv+1
 12807     0EA5  0832               	movf	___fldiv@b,w
 12808     0EA6  00AE               	movwf	?___fldiv
 12809     0EA7  2FFF               	goto	l1252
 12810     0EA8                     l5615:
 12811     0EA8  0846               	movf	___fldiv@bexp,w
 12812     0EA9  1D03               	btfss	3,2
 12813     0EAA  2EAC               	goto	u6081
 12814     0EAB  2EAD               	goto	u6080
 12815     0EAC                     u6081:
 12816     0EAC  2EB6               	goto	l5621
 12817     0EAD                     u6080:
 12818     0EAD                     l5617:
 12819     0EAD  3000               	movlw	0
 12820     0EAE  00B1               	movwf	?___fldiv+3
 12821     0EAF  3000               	movlw	0
 12822     0EB0  00B0               	movwf	?___fldiv+2
 12823     0EB1  3000               	movlw	0
 12824     0EB2  00AF               	movwf	?___fldiv+1
 12825     0EB3  3000               	movlw	0
 12826     0EB4  00AE               	movwf	?___fldiv
 12827     0EB5  2FFF               	goto	l1252
 12828     0EB6                     l5621:
 12829     0EB6  0846               	movf	___fldiv@bexp,w
 12830     0EB7  00B6               	movwf	??___fldiv
 12831     0EB8  01B7               	clrf	??___fldiv+1
 12832     0EB9  0837               	movf	??___fldiv+1,w
 12833     0EBA  00B9               	movwf	??___fldiv+3
 12834     0EBB  0847               	movf	___fldiv@aexp,w
 12835     0EBC  0236               	subwf	??___fldiv,w
 12836     0EBD  00B8               	movwf	??___fldiv+2
 12837     0EBE  1C03               	skipc
 12838     0EBF  03B9               	decf	??___fldiv+3,f
 12839     0EC0  0838               	movf	??___fldiv+2,w
 12840     0EC1  3E7F               	addlw	127
 12841     0EC2  00C0               	movwf	___fldiv@new_exp
 12842     0EC3  0839               	movf	??___fldiv+3,w
 12843     0EC4  1803               	skipnc
 12844     0EC5  3E01               	addlw	1
 12845     0EC6  3E00               	addlw	0
 12846     0EC7  00C1               	movwf	___fldiv@new_exp+1
 12847     0EC8                     l5623:
 12848     0EC8  0835               	movf	___fldiv@b+3,w
 12849     0EC9  00BE               	movwf	___fldiv@rem+3
 12850     0ECA  0834               	movf	___fldiv@b+2,w
 12851     0ECB  00BD               	movwf	___fldiv@rem+2
 12852     0ECC  0833               	movf	___fldiv@b+1,w
 12853     0ECD  00BC               	movwf	___fldiv@rem+1
 12854     0ECE  0832               	movf	___fldiv@b,w
 12855     0ECF  00BB               	movwf	___fldiv@rem
 12856     0ED0                     l5625:
 12857     0ED0  3000               	movlw	0
 12858     0ED1  00B5               	movwf	___fldiv@b+3
 12859     0ED2  3000               	movlw	0
 12860     0ED3  00B4               	movwf	___fldiv@b+2
 12861     0ED4  3000               	movlw	0
 12862     0ED5  00B3               	movwf	___fldiv@b+1
 12863     0ED6  3000               	movlw	0
 12864     0ED7  00B2               	movwf	___fldiv@b
 12865     0ED8                     l5627:
 12866     0ED8  3000               	movlw	0
 12867     0ED9  00C5               	movwf	___fldiv@grs+3
 12868     0EDA  3000               	movlw	0
 12869     0EDB  00C4               	movwf	___fldiv@grs+2
 12870     0EDC  3000               	movlw	0
 12871     0EDD  00C3               	movwf	___fldiv@grs+1
 12872     0EDE  3000               	movlw	0
 12873     0EDF  00C2               	movwf	___fldiv@grs
 12874     0EE0                     l5629:
 12875     0EE0  01C7               	clrf	___fldiv@aexp
 12876     0EE1  2F2C               	goto	l5649
 12877     0EE2                     l5631:
 12878     0EE2  0847               	movf	___fldiv@aexp,w
 12879     0EE3  1903               	btfsc	3,2
 12880     0EE4  2EE6               	goto	u6091
 12881     0EE5  2EE7               	goto	u6090
 12882     0EE6                     u6091:
 12883     0EE6  2F07               	goto	l5641
 12884     0EE7                     u6090:
 12885     0EE7                     l5633:
 12886     0EE7  3001               	movlw	1
 12887     0EE8  00B6               	movwf	??___fldiv
 12888     0EE9                     u6105:
 12889     0EE9  1003               	clrc
 12890     0EEA  0DBB               	rlf	___fldiv@rem,f
 12891     0EEB  0DBC               	rlf	___fldiv@rem+1,f
 12892     0EEC  0DBD               	rlf	___fldiv@rem+2,f
 12893     0EED  0DBE               	rlf	___fldiv@rem+3,f
 12894     0EEE  0BB6               	decfsz	??___fldiv,f
 12895     0EEF  2EE9               	goto	u6105
 12896     0EF0  3001               	movlw	1
 12897     0EF1  00B6               	movwf	??___fldiv
 12898     0EF2                     u6115:
 12899     0EF2  1003               	clrc
 12900     0EF3  0DB2               	rlf	___fldiv@b,f
 12901     0EF4  0DB3               	rlf	___fldiv@b+1,f
 12902     0EF5  0DB4               	rlf	___fldiv@b+2,f
 12903     0EF6  0DB5               	rlf	___fldiv@b+3,f
 12904     0EF7  0BB6               	decfsz	??___fldiv,f
 12905     0EF8  2EF2               	goto	u6115
 12906     0EF9                     l5635:
 12907     0EF9  1FC5               	btfss	___fldiv@grs+3,7
 12908     0EFA  2EFC               	goto	u6121
 12909     0EFB  2EFD               	goto	u6120
 12910     0EFC                     u6121:
 12911     0EFC  2EFE               	goto	l5639
 12912     0EFD                     u6120:
 12913     0EFD                     l5637:
 12914     0EFD  1432               	bsf	___fldiv@b,0
 12915     0EFE                     l5639:
 12916     0EFE  3001               	movlw	1
 12917     0EFF  00B6               	movwf	??___fldiv
 12918     0F00                     u6135:
 12919     0F00  1003               	clrc
 12920     0F01  0DC2               	rlf	___fldiv@grs,f
 12921     0F02  0DC3               	rlf	___fldiv@grs+1,f
 12922     0F03  0DC4               	rlf	___fldiv@grs+2,f
 12923     0F04  0DC5               	rlf	___fldiv@grs+3,f
 12924     0F05  0BB6               	decfsz	??___fldiv,f
 12925     0F06  2F00               	goto	u6135
 12926     0F07                     l5641:
 12927     0F07  0831               	movf	___fldiv@a+3,w
 12928     0F08  023E               	subwf	___fldiv@rem+3,w
 12929     0F09  1D03               	skipz
 12930     0F0A  2F15               	goto	u6145
 12931     0F0B  0830               	movf	___fldiv@a+2,w
 12932     0F0C  023D               	subwf	___fldiv@rem+2,w
 12933     0F0D  1D03               	skipz
 12934     0F0E  2F15               	goto	u6145
 12935     0F0F  082F               	movf	___fldiv@a+1,w
 12936     0F10  023C               	subwf	___fldiv@rem+1,w
 12937     0F11  1D03               	skipz
 12938     0F12  2F15               	goto	u6145
 12939     0F13  082E               	movf	___fldiv@a,w
 12940     0F14  023B               	subwf	___fldiv@rem,w
 12941     0F15                     u6145:
 12942     0F15  1C03               	skipc
 12943     0F16  2F18               	goto	u6141
 12944     0F17  2F19               	goto	u6140
 12945     0F18                     u6141:
 12946     0F18  2F28               	goto	l5647
 12947     0F19                     u6140:
 12948     0F19                     l5643:
 12949     0F19  1745               	bsf	___fldiv@grs+3,6
 12950     0F1A                     l5645:
 12951     0F1A  082E               	movf	___fldiv@a,w
 12952     0F1B  02BB               	subwf	___fldiv@rem,f
 12953     0F1C  082F               	movf	___fldiv@a+1,w
 12954     0F1D  1C03               	skipc
 12955     0F1E  0F2F               	incfsz	___fldiv@a+1,w
 12956     0F1F  02BC               	subwf	___fldiv@rem+1,f
 12957     0F20  0830               	movf	___fldiv@a+2,w
 12958     0F21  1C03               	skipc
 12959     0F22  0F30               	incfsz	___fldiv@a+2,w
 12960     0F23  02BD               	subwf	___fldiv@rem+2,f
 12961     0F24  0831               	movf	___fldiv@a+3,w
 12962     0F25  1C03               	skipc
 12963     0F26  0F31               	incfsz	___fldiv@a+3,w
 12964     0F27  02BE               	subwf	___fldiv@rem+3,f
 12965     0F28                     l5647:
 12966     0F28  3001               	movlw	1
 12967     0F29  00FF               	movwf	btemp+1
 12968     0F2A  087F               	movf	btemp+1,w
 12969     0F2B  07C7               	addwf	___fldiv@aexp,f
 12970     0F2C                     l5649:
 12971     0F2C  301A               	movlw	26
 12972     0F2D  0247               	subwf	___fldiv@aexp,w
 12973     0F2E  1C03               	skipc
 12974     0F2F  2F31               	goto	u6151
 12975     0F30  2F32               	goto	u6150
 12976     0F31                     u6151:
 12977     0F31  2EE2               	goto	l5631
 12978     0F32                     u6150:
 12979     0F32                     l5651:
 12980     0F32  083E               	movf	___fldiv@rem+3,w
 12981     0F33  043D               	iorwf	___fldiv@rem+2,w
 12982     0F34  043C               	iorwf	___fldiv@rem+1,w
 12983     0F35  043B               	iorwf	___fldiv@rem,w
 12984     0F36  1903               	skipnz
 12985     0F37  2F39               	goto	u6161
 12986     0F38  2F3A               	goto	u6160
 12987     0F39                     u6161:
 12988     0F39  2F59               	goto	l5665
 12989     0F3A                     u6160:
 12990     0F3A                     l5653:
 12991     0F3A  1442               	bsf	___fldiv@grs,0
 12992     0F3B  2F59               	goto	l5665
 12993     0F3C                     l5655:
 12994     0F3C  3001               	movlw	1
 12995     0F3D  00B6               	movwf	??___fldiv
 12996     0F3E                     u6175:
 12997     0F3E  1003               	clrc
 12998     0F3F  0DB2               	rlf	___fldiv@b,f
 12999     0F40  0DB3               	rlf	___fldiv@b+1,f
 13000     0F41  0DB4               	rlf	___fldiv@b+2,f
 13001     0F42  0DB5               	rlf	___fldiv@b+3,f
 13002     0F43  0BB6               	decfsz	??___fldiv,f
 13003     0F44  2F3E               	goto	u6175
 13004     0F45                     l5657:
 13005     0F45  1FC5               	btfss	___fldiv@grs+3,7
 13006     0F46  2F48               	goto	u6181
 13007     0F47  2F49               	goto	u6180
 13008     0F48                     u6181:
 13009     0F48  2F4A               	goto	l5661
 13010     0F49                     u6180:
 13011     0F49                     l5659:
 13012     0F49  1432               	bsf	___fldiv@b,0
 13013     0F4A                     l5661:
 13014     0F4A  3001               	movlw	1
 13015     0F4B  00B6               	movwf	??___fldiv
 13016     0F4C                     u6195:
 13017     0F4C  1003               	clrc
 13018     0F4D  0DC2               	rlf	___fldiv@grs,f
 13019     0F4E  0DC3               	rlf	___fldiv@grs+1,f
 13020     0F4F  0DC4               	rlf	___fldiv@grs+2,f
 13021     0F50  0DC5               	rlf	___fldiv@grs+3,f
 13022     0F51  0BB6               	decfsz	??___fldiv,f
 13023     0F52  2F4C               	goto	u6195
 13024     0F53                     l5663:
 13025     0F53  30FF               	movlw	255
 13026     0F54  07C0               	addwf	___fldiv@new_exp,f
 13027     0F55  1803               	skipnc
 13028     0F56  0AC1               	incf	___fldiv@new_exp+1,f
 13029     0F57  30FF               	movlw	255
 13030     0F58  07C1               	addwf	___fldiv@new_exp+1,f
 13031     0F59                     l5665:
 13032     0F59  1FB4               	btfss	___fldiv@b+2,7
 13033     0F5A  2F5C               	goto	u6201
 13034     0F5B  2F5D               	goto	u6200
 13035     0F5C                     u6201:
 13036     0F5C  2F3C               	goto	l5655
 13037     0F5D                     u6200:
 13038     0F5D                     l5667:
 13039     0F5D  01C7               	clrf	___fldiv@aexp
 13040     0F5E                     l5669:
 13041     0F5E  1FC5               	btfss	___fldiv@grs+3,7
 13042     0F5F  2F61               	goto	u6211
 13043     0F60  2F62               	goto	u6210
 13044     0F61                     u6211:
 13045     0F61  2F7E               	goto	l5677
 13046     0F62                     u6210:
 13047     0F62                     l5671:
 13048     0F62  30FF               	movlw	255
 13049     0F63  0542               	andwf	___fldiv@grs,w
 13050     0F64  00B6               	movwf	??___fldiv
 13051     0F65  30FF               	movlw	255
 13052     0F66  0543               	andwf	___fldiv@grs+1,w
 13053     0F67  00B7               	movwf	??___fldiv+1
 13054     0F68  30FF               	movlw	255
 13055     0F69  0544               	andwf	___fldiv@grs+2,w
 13056     0F6A  00B8               	movwf	??___fldiv+2
 13057     0F6B  307F               	movlw	127
 13058     0F6C  0545               	andwf	___fldiv@grs+3,w
 13059     0F6D  00B9               	movwf	??___fldiv+3
 13060     0F6E  0839               	movf	??___fldiv+3,w
 13061     0F6F  0438               	iorwf	??___fldiv+2,w
 13062     0F70  0437               	iorwf	??___fldiv+1,w
 13063     0F71  0436               	iorwf	??___fldiv,w
 13064     0F72  1903               	skipnz
 13065     0F73  2F75               	goto	u6221
 13066     0F74  2F76               	goto	u6220
 13067     0F75                     u6221:
 13068     0F75  2F79               	goto	l1266
 13069     0F76                     u6220:
 13070     0F76                     l5673:
 13071     0F76  01C7               	clrf	___fldiv@aexp
 13072     0F77  0AC7               	incf	___fldiv@aexp,f
 13073     0F78  2F7E               	goto	l5677
 13074     0F79                     l1266:
 13075     0F79  1C32               	btfss	___fldiv@b,0
 13076     0F7A  2F7C               	goto	u6231
 13077     0F7B  2F7D               	goto	u6230
 13078     0F7C                     u6231:
 13079     0F7C  2F7E               	goto	l5677
 13080     0F7D                     u6230:
 13081     0F7D  2F76               	goto	l5673
 13082     0F7E                     l5677:
 13083     0F7E  0847               	movf	___fldiv@aexp,w
 13084     0F7F  1903               	btfsc	3,2
 13085     0F80  2F82               	goto	u6241
 13086     0F81  2F83               	goto	u6240
 13087     0F82                     u6241:
 13088     0F82  2FB4               	goto	l5687
 13089     0F83                     u6240:
 13090     0F83                     l5679:
 13091     0F83  3001               	movlw	1
 13092     0F84  07B2               	addwf	___fldiv@b,f
 13093     0F85  3000               	movlw	0
 13094     0F86  1803               	skipnc
 13095     0F87  3001               	movlw	1
 13096     0F88  07B3               	addwf	___fldiv@b+1,f
 13097     0F89  3000               	movlw	0
 13098     0F8A  1803               	skipnc
 13099     0F8B  3001               	movlw	1
 13100     0F8C  07B4               	addwf	___fldiv@b+2,f
 13101     0F8D  3000               	movlw	0
 13102     0F8E  1803               	skipnc
 13103     0F8F  3001               	movlw	1
 13104     0F90  07B5               	addwf	___fldiv@b+3,f
 13105     0F91                     l5681:
 13106     0F91  1C35               	btfss	___fldiv@b+3,0
 13107     0F92  2F94               	goto	u6251
 13108     0F93  2F95               	goto	u6250
 13109     0F94                     u6251:
 13110     0F94  2FB4               	goto	l5687
 13111     0F95                     u6250:
 13112     0F95                     l5683:
 13113     0F95  0832               	movf	___fldiv@b,w
 13114     0F96  00B6               	movwf	??___fldiv
 13115     0F97  0833               	movf	___fldiv@b+1,w
 13116     0F98  00B7               	movwf	??___fldiv+1
 13117     0F99  0834               	movf	___fldiv@b+2,w
 13118     0F9A  00B8               	movwf	??___fldiv+2
 13119     0F9B  0835               	movf	___fldiv@b+3,w
 13120     0F9C  00B9               	movwf	??___fldiv+3
 13121     0F9D  3001               	movlw	1
 13122     0F9E  00BA               	movwf	??___fldiv+4
 13123     0F9F                     u6265:
 13124     0F9F  0D39               	rlf	??___fldiv+3,w
 13125     0FA0  0CB9               	rrf	??___fldiv+3,f
 13126     0FA1  0CB8               	rrf	??___fldiv+2,f
 13127     0FA2  0CB7               	rrf	??___fldiv+1,f
 13128     0FA3  0CB6               	rrf	??___fldiv,f
 13129     0FA4                     u6260:
 13130     0FA4  0BBA               	decfsz	??___fldiv+4,f
 13131     0FA5  2F9F               	goto	u6265
 13132     0FA6  0839               	movf	??___fldiv+3,w
 13133     0FA7  00B5               	movwf	___fldiv@b+3
 13134     0FA8  0838               	movf	??___fldiv+2,w
 13135     0FA9  00B4               	movwf	___fldiv@b+2
 13136     0FAA  0837               	movf	??___fldiv+1,w
 13137     0FAB  00B3               	movwf	___fldiv@b+1
 13138     0FAC  0836               	movf	??___fldiv,w
 13139     0FAD  00B2               	movwf	___fldiv@b
 13140     0FAE                     l5685:
 13141     0FAE  3001               	movlw	1
 13142     0FAF  07C0               	addwf	___fldiv@new_exp,f
 13143     0FB0  1803               	skipnc
 13144     0FB1  0AC1               	incf	___fldiv@new_exp+1,f
 13145     0FB2  3000               	movlw	0
 13146     0FB3  07C1               	addwf	___fldiv@new_exp+1,f
 13147     0FB4                     l5687:
 13148     0FB4  0841               	movf	___fldiv@new_exp+1,w
 13149     0FB5  3A80               	xorlw	128
 13150     0FB6  00FF               	movwf	btemp+1
 13151     0FB7  3080               	movlw	128
 13152     0FB8  027F               	subwf	btemp+1,w
 13153     0FB9  1D03               	skipz
 13154     0FBA  2FBD               	goto	u6275
 13155     0FBB  30FF               	movlw	255
 13156     0FBC  0240               	subwf	___fldiv@new_exp,w
 13157     0FBD                     u6275:
 13158     0FBD  1C03               	skipc
 13159     0FBE  2FC0               	goto	u6271
 13160     0FBF  2FC1               	goto	u6270
 13161     0FC0                     u6271:
 13162     0FC0  2FCF               	goto	l5691
 13163     0FC1                     u6270:
 13164     0FC1                     l5689:
 13165     0FC1  30FF               	movlw	255
 13166     0FC2  1283               	bcf	3,5	;RP0=0, select bank0
 13167     0FC3  1303               	bcf	3,6	;RP1=0, select bank0
 13168     0FC4  00C0               	movwf	___fldiv@new_exp
 13169     0FC5  3000               	movlw	0
 13170     0FC6  00C1               	movwf	___fldiv@new_exp+1
 13171     0FC7  3000               	movlw	0
 13172     0FC8  00B5               	movwf	___fldiv@b+3
 13173     0FC9  3000               	movlw	0
 13174     0FCA  00B4               	movwf	___fldiv@b+2
 13175     0FCB  3000               	movlw	0
 13176     0FCC  00B3               	movwf	___fldiv@b+1
 13177     0FCD  3000               	movlw	0
 13178     0FCE  00B2               	movwf	___fldiv@b
 13179     0FCF                     l5691:
 13180     0FCF  1283               	bcf	3,5	;RP0=0, select bank0
 13181     0FD0  1303               	bcf	3,6	;RP1=0, select bank0
 13182     0FD1  0841               	movf	___fldiv@new_exp+1,w
 13183     0FD2  3A80               	xorlw	128
 13184     0FD3  00FF               	movwf	btemp+1
 13185     0FD4  3080               	movlw	128
 13186     0FD5  027F               	subwf	btemp+1,w
 13187     0FD6  1D03               	skipz
 13188     0FD7  2FDA               	goto	u6285
 13189     0FD8  3001               	movlw	1
 13190     0FD9  0240               	subwf	___fldiv@new_exp,w
 13191     0FDA                     u6285:
 13192     0FDA  1803               	skipnc
 13193     0FDB  2FDD               	goto	u6281
 13194     0FDC  2FDE               	goto	u6280
 13195     0FDD                     u6281:
 13196     0FDD  2FEB               	goto	l1272
 13197     0FDE                     u6280:
 13198     0FDE                     l5693:
 13199     0FDE  1283               	bcf	3,5	;RP0=0, select bank0
 13200     0FDF  1303               	bcf	3,6	;RP1=0, select bank0
 13201     0FE0  01C0               	clrf	___fldiv@new_exp
 13202     0FE1  01C1               	clrf	___fldiv@new_exp+1
 13203     0FE2                     l5695:
 13204     0FE2  3000               	movlw	0
 13205     0FE3  00B5               	movwf	___fldiv@b+3
 13206     0FE4  3000               	movlw	0
 13207     0FE5  00B4               	movwf	___fldiv@b+2
 13208     0FE6  3000               	movlw	0
 13209     0FE7  00B3               	movwf	___fldiv@b+1
 13210     0FE8  3000               	movlw	0
 13211     0FE9  00B2               	movwf	___fldiv@b
 13212     0FEA                     l5697:
 13213     0FEA  01BF               	clrf	___fldiv@sign
 13214     0FEB                     l1272:
 13215     0FEB  1283               	bcf	3,5	;RP0=0, select bank0
 13216     0FEC  1303               	bcf	3,6	;RP1=0, select bank0
 13217     0FED  0840               	movf	___fldiv@new_exp,w
 13218     0FEE  00C6               	movwf	___fldiv@bexp
 13219     0FEF                     l5699:
 13220     0FEF  1C46               	btfss	___fldiv@bexp,0
 13221     0FF0  2FF2               	goto	u6291
 13222     0FF1  2FF3               	goto	u6290
 13223     0FF2                     u6291:
 13224     0FF2  2FF5               	goto	l5703
 13225     0FF3                     u6290:
 13226     0FF3                     l5701:
 13227     0FF3  17B4               	bsf	___fldiv@b+2,7
 13228     0FF4  2FF9               	goto	l5705
 13229     0FF5                     l5703:
 13230     0FF5  307F               	movlw	127
 13231     0FF6  00FF               	movwf	btemp+1
 13232     0FF7  087F               	movf	btemp+1,w
 13233     0FF8  05B4               	andwf	___fldiv@b+2,f
 13234     0FF9                     l5705:
 13235     0FF9  0846               	movf	___fldiv@bexp,w
 13236     0FFA  00B6               	movwf	??___fldiv
 13237     0FFB  1003               	clrc
 13238     0FFC  0C36               	rrf	??___fldiv,w
 13239     0FFD  00B5               	movwf	___fldiv@b+3
 13240     0FFE  2E9B               	goto	l5609
 13241     0FFF                     l1252:
 13242     0FFF  0008               	return
 13243     1000                     __end_of___fldiv:
 13244                           
 13245                           	psect	text61
 13246     166B                     __ptext61:	
 13247 ;; *************** function _isr *****************
 13248 ;; Defined at:
 13249 ;;		line 6 in file "isr.c"
 13250 ;; Parameters:    Size  Location     Type
 13251 ;;		None
 13252 ;; Auto vars:     Size  Location     Type
 13253 ;;		None
 13254 ;; Return value:  Size  Location     Type
 13255 ;;                  1    wreg      void 
 13256 ;; Registers used:
 13257 ;;		wreg, status,2, status,0, btemp+1
 13258 ;; Tracked objects:
 13259 ;;		On entry : 0/0
 13260 ;;		On exit  : 0/0
 13261 ;;		Unchanged: 0/0
 13262 ;; Data sizes:     COMMON   BANK0   BANK1   BANK3   BANK2
 13263 ;;      Params:         0       0       0       0       0
 13264 ;;      Locals:         0       0       0       0       0
 13265 ;;      Temps:          3       0       0       0       0
 13266 ;;      Totals:         3       0       0       0       0
 13267 ;;Total ram usage:        3 bytes
 13268 ;; Hardware stack levels used: 1
 13269 ;; This function calls:
 13270 ;;		Nothing
 13271 ;; This function is called by:
 13272 ;;		Interrupt level 1
 13273 ;; This function uses a non-reentrant model
 13274 ;;
 13275                           
 13276     166B                     _isr:	
 13277                           ;psect for function _isr
 13278                           
 13279     166B                     i1l4599:
 13280                           
 13281                           ;isr.c: 8:     static unsigned long int count = 0;;isr.c: 9:     if(TMR0IF == 1)
 13282     166B  1D0B               	btfss	11,2	;volatile
 13283     166C  2E6E               	goto	u473_21
 13284     166D  2E6F               	goto	u473_20
 13285     166E                     u473_21:
 13286     166E  2EC1               	goto	i1l384
 13287     166F                     u473_20:
 13288     166F                     i1l4601:
 13289                           
 13290                           ;isr.c: 10:     {;isr.c: 11:         TMR0 += 8;
 13291     166F  3008               	movlw	8
 13292     1670  00FF               	movwf	btemp+1
 13293     1671  087F               	movf	btemp+1,w
 13294     1672  1283               	bcf	3,5	;RP0=0, select bank0
 13295     1673  1303               	bcf	3,6	;RP1=0, select bank0
 13296     1674  0781               	addwf	1,f	;volatile
 13297     1675                     i1l4603:
 13298                           
 13299                           ;isr.c: 12:         if(timer_flag && ++count == 20000)
 13300     1675  0862               	movf	_timer_flag,w
 13301     1676  1903               	btfsc	3,2
 13302     1677  2E79               	goto	u474_21
 13303     1678  2E7A               	goto	u474_20
 13304     1679                     u474_21:
 13305     1679  2EC0               	goto	i1l4613
 13306     167A                     u474_20:
 13307     167A                     i1l4605:
 13308     167A  3001               	movlw	1
 13309     167B  1683               	bsf	3,5	;RP0=1, select bank1
 13310     167C  1303               	bcf	3,6	;RP1=0, select bank1
 13311     167D  07AA               	addwf	isr@count^(0+128),f
 13312     167E  3000               	movlw	0
 13313     167F  1803               	skipnc
 13314     1680  3001               	movlw	1
 13315     1681  07AB               	addwf	(isr@count+1)^(0+128),f
 13316     1682  3000               	movlw	0
 13317     1683  1803               	skipnc
 13318     1684  3001               	movlw	1
 13319     1685  07AC               	addwf	(isr@count+2)^(0+128),f
 13320     1686  3000               	movlw	0
 13321     1687  1803               	skipnc
 13322     1688  3001               	movlw	1
 13323     1689  07AD               	addwf	(isr@count+3)^(0+128),f
 13324     168A  3020               	movlw	32
 13325     168B  062A               	xorwf	isr@count^(0+128),w
 13326     168C  304E               	movlw	78
 13327     168D  1903               	skipnz
 13328     168E  062B               	xorwf	(isr@count+1)^(0+128),w
 13329     168F  042C               	iorwf	(isr@count+2)^(0+128),w
 13330     1690  042D               	iorwf	(isr@count+3)^(0+128),w
 13331     1691  1D03               	btfss	3,2
 13332     1692  2E94               	goto	u475_21
 13333     1693  2E95               	goto	u475_20
 13334     1694                     u475_21:
 13335     1694  2EC0               	goto	i1l4613
 13336     1695                     u475_20:
 13337     1695                     i1l4607:
 13338                           
 13339                           ;isr.c: 13:         {;isr.c: 14:             count = 0;
 13340     1695  3000               	movlw	0
 13341     1696  1683               	bsf	3,5	;RP0=1, select bank1
 13342     1697  1303               	bcf	3,6	;RP1=0, select bank1
 13343     1698  00AD               	movwf	(isr@count+3)^(0+128)
 13344     1699  3000               	movlw	0
 13345     169A  00AC               	movwf	(isr@count+2)^(0+128)
 13346     169B  3000               	movlw	0
 13347     169C  00AB               	movwf	(isr@count+1)^(0+128)
 13348     169D  3000               	movlw	0
 13349     169E  00AA               	movwf	isr@count^(0+128)
 13350     169F                     i1l4609:
 13351                           
 13352                           ;isr.c: 15:             if(count2 < 180)
 13353     169F  0835               	movf	(_count2+3)^(0+128),w
 13354     16A0  1D03               	btfss	3,2
 13355     16A1  2EAF               	goto	u476_21
 13356     16A2  0834               	movf	(_count2+2)^(0+128),w
 13357     16A3  1D03               	btfss	3,2
 13358     16A4  2EAF               	goto	u476_21
 13359     16A5  0833               	movf	(_count2+1)^(0+128),w
 13360     16A6  1D03               	btfss	3,2
 13361     16A7  2EAF               	goto	u476_21
 13362     16A8  30B4               	movlw	180
 13363     16A9  0232               	subwf	_count2^(0+128),w
 13364     16AA  1D03               	skipz
 13365     16AB  2EAC               	goto	u476_23
 13366     16AC                     u476_23:
 13367     16AC  1803               	btfsc	3,0
 13368     16AD  2EAF               	goto	u476_21
 13369     16AE  2EB0               	goto	u476_20
 13370     16AF                     u476_21:
 13371     16AF  2EC0               	goto	i1l4613
 13372     16B0                     u476_20:
 13373     16B0                     i1l4611:
 13374                           
 13375                           ;isr.c: 16:             {;isr.c: 20:                 count2++;
 13376     16B0  3001               	movlw	1
 13377     16B1  1683               	bsf	3,5	;RP0=1, select bank1
 13378     16B2  1303               	bcf	3,6	;RP1=0, select bank1
 13379     16B3  07B2               	addwf	_count2^(0+128),f
 13380     16B4  3000               	movlw	0
 13381     16B5  1803               	skipnc
 13382     16B6  3001               	movlw	1
 13383     16B7  07B3               	addwf	(_count2+1)^(0+128),f
 13384     16B8  3000               	movlw	0
 13385     16B9  1803               	skipnc
 13386     16BA  3001               	movlw	1
 13387     16BB  07B4               	addwf	(_count2+2)^(0+128),f
 13388     16BC  3000               	movlw	0
 13389     16BD  1803               	skipnc
 13390     16BE  3001               	movlw	1
 13391     16BF  07B5               	addwf	(_count2+3)^(0+128),f
 13392     16C0                     i1l4613:
 13393                           
 13394                           ;isr.c: 24:         TMR0IF = 0;
 13395     16C0  110B               	bcf	11,2	;volatile
 13396     16C1                     i1l384:
 13397     16C1  0872               	movf	??_isr+2,w
 13398     16C2  00FF               	movwf	btemp+1
 13399     16C3  0871               	movf	??_isr+1,w
 13400     16C4  008A               	movwf	10
 13401     16C5  0E70               	swapf	??_isr,w
 13402     16C6  0083               	movwf	3
 13403     16C7  0EFE               	swapf	btemp,f
 13404     16C8  0E7E               	swapf	btemp,w
 13405     16C9  0009               	retfie
 13406     16CA                     __end_of_isr:
 13407     007E                     btemp	set	126	;btemp
 13408     007E                     wtemp0	set	126
 13409                           
 13410                           	psect	intentry
 13411     0004                     __pintentry:	
 13412                           ;incstack = 0
 13413                           ; Regs used in _isr: [wreg+status,2+status,0+btemp+1]
 13414                           
 13415     0004                     interrupt_function:
 13416     007E                     saved_w	set	btemp
 13417     0004  00FE               	movwf	btemp
 13418     0005  0E03               	swapf	3,w
 13419     0006  00F0               	movwf	??_isr
 13420     0007  080A               	movf	10,w
 13421     0008  00F1               	movwf	??_isr+1
 13422     0009  087F               	movf	btemp+1,w
 13423     000A  00F2               	movwf	??_isr+2
 13424     000B  160A  118A  2E6B   	ljmp	_isr
 13425                           
 13426                           	psect	idloc
 13427                           
 13428                           ;Config register IDLOC0 @ 0x2000
 13429                           ;	unspecified, using default values
 13430     2000                     	org	8192
 13431     2000  3FFF               	dw	16383
 13432                           
 13433                           ;Config register IDLOC1 @ 0x2001
 13434                           ;	unspecified, using default values
 13435     2001                     	org	8193
 13436     2001  3FFF               	dw	16383
 13437                           
 13438                           ;Config register IDLOC2 @ 0x2002
 13439                           ;	unspecified, using default values
 13440     2002                     	org	8194
 13441     2002  3FFF               	dw	16383
 13442                           
 13443                           ;Config register IDLOC3 @ 0x2003
 13444                           ;	unspecified, using default values
 13445     2003                     	org	8195
 13446     2003  3FFF               	dw	16383
 13447                           
 13448                           	psect	config
 13449                           
 13450                           ;Config register CONFIG @ 0x2007
 13451                           ;	Oscillator Selection bits
 13452                           ;	FOSC = 0x3, unprogrammed default
 13453                           ;	Watchdog Timer Enable bit
 13454                           ;	WDTE = OFF, WDT disabled
 13455                           ;	Power-up Timer Enable bit
 13456                           ;	PWRTE = 0x1, unprogrammed default
 13457                           ;	Brown-out Reset Enable bit
 13458                           ;	BOREN = 0x1, unprogrammed default
 13459                           ;	Low-Voltage (Single-Supply) In-Circuit Serial Programming Enable bit
 13460                           ;	LVP = 0x1, unprogrammed default
 13461                           ;	Data EEPROM Memory Code Protection bit
 13462                           ;	CPD = 0x1, unprogrammed default
 13463                           ;	Flash Program Memory Write Enable bits
 13464                           ;	WRT = 0x3, unprogrammed default
 13465                           ;	In-Circuit Debugger Mode bit
 13466                           ;	DEBUG = 0x1, unprogrammed default
 13467                           ;	Flash Program Memory Code Protection bit
 13468                           ;	CP = 0x1, unprogrammed default
 13469     2007                     	org	8199
 13470     2007  3FFB               	dw	16379

Data Sizes:
    Strings     374
    Constant    0
    Data        49
    BSS         130
    Persistent  0
    Stack       0

Auto Spaces:
    Space          Size  Autos    Used
    COMMON           14      8      11
    BANK0            80     57      79
    BANK1            80      0      78
    BANK3            96      5      81
    BANK2            96      0       0

Pointer List with Targets:

    write_password@str	PTR unsigned char  size(1) Largest target is 5
		 -> change_psswd@user(BANK0[5]), 

    puts@s	PTR const unsigned char  size(2) Largest target is 19
		 -> STR_27(CODE[7]), STR_26(CODE[19]), 

    ext_eeprom_write@event_log	PTR unsigned char  size(1) Largest target is 15
		 -> event_log(BANK3[15]), 

    write_speed@speed	PTR unsigned char  size(1) Largest target is 4
		 -> speed(BANK1[4]), 

    write_event@event	PTR unsigned char  size(2) Largest target is 3
		 -> STR_9(CODE[3]), STR_8(CODE[3]), STR_7(CODE[3]), STR_6(CODE[3]), 
		 -> STR_5(CODE[3]), STR_4(CODE[3]), STR_3(CODE[3]), STR_2(CODE[3]), 
		 -> STR_1(CODE[3]), 

    write_time@clock_reg	PTR unsigned char  size(1) Largest target is 3
		 -> clock_reg(BANK1[3]), 

    display_menu@menu	PTR PTR unsigned char  size(1) Largest target is 10
		 -> option_menu(BANK3[10]), 

    option_menu	PTR unsigned char [5] size(2) Largest target is 14
		 -> STR_20(CODE[14]), STR_19(CODE[9]), STR_18(CODE[13]), STR_17(CODE[10]), 
		 -> STR_16(CODE[9]), 

    my_strcmp@str2	PTR unsigned char  size(1) Largest target is 5
		 -> change_psswd@confirm(BANK0[5]), password(BANK1[5]), 

    my_strcmp@str1	PTR unsigned char  size(1) Largest target is 5
		 -> change_psswd@user(BANK0[5]), login@user(BANK1[5]), 

    clear_arr@arr	PTR unsigned char  size(1) Largest target is 5
		 -> change_psswd@confirm(BANK0[5]), change_psswd@user(BANK0[5]), login@user(BANK1[5]), 

    get_time@clock_reg	PTR unsigned char  size(1) Largest target is 3
		 -> clock_reg(BANK1[3]), 

    display_time@clock_reg	PTR unsigned char  size(1) Largest target is 3
		 -> clock_reg(BANK1[3]), 

    events	PTR unsigned char [9] size(2) Largest target is 3
		 -> STR_9(CODE[3]), STR_8(CODE[3]), STR_7(CODE[3]), STR_6(CODE[3]), 
		 -> STR_5(CODE[3]), STR_4(CODE[3]), STR_3(CODE[3]), STR_2(CODE[3]), 
		 -> STR_1(CODE[3]), 

    clcd_print@str	PTR const unsigned char  size(2) Largest target is 17
		 -> STR_34(CODE[14]), STR_33(CODE[15]), STR_32(CODE[16]), STR_31(CODE[17]), 
		 -> STR_30(CODE[17]), STR_29(CODE[17]), set_time@blink(BANK0[3]), STR_28(CODE[17]), 
		 -> STR_25(CODE[11]), STR_24(CODE[17]), STR_23(CODE[17]), STR_22(CODE[16]), 
		 -> view_log(BANK3[16]), STR_21(CODE[12]), STR_20(CODE[14]), STR_19(CODE[9]), 
		 -> STR_18(CODE[13]), STR_17(CODE[10]), STR_16(CODE[9]), STR_15(CODE[5]), 
		 -> print_sec@sec(BANK0[4]), STR_14(CODE[10]), STR_13(CODE[17]), STR_12(CODE[15]), 
		 -> STR_11(CODE[17]), password(BANK1[5]), time(BANK1[9]), speed(BANK1[4]), 
		 -> STR_10(CODE[16]), STR_9(CODE[3]), STR_8(CODE[3]), STR_7(CODE[3]), 
		 -> STR_6(CODE[3]), STR_5(CODE[3]), STR_4(CODE[3]), STR_3(CODE[3]), 
		 -> STR_2(CODE[3]), STR_1(CODE[3]), 


Critical Paths under _main in COMMON

    _view_log_events->_clcd_putch
    _set_time->___lwmod
    _write_time_rtc->_write_ds1307
    _download->___wmul
    _download->_ext_eeprom_read
    _puts->_putchar
    _ext_eeprom_read->_i2c_read
    _display_menu->_clcd_putch
    _change_psswd->_clcd_putch
    _change_psswd->_my_strcmp
    _write_password->_eeprom_write
    _login->_clcd_putch
    _login->_my_strcmp
    _clear_clcd->_clcd_write
    _clcd_putch->_clcd_write
    _init_config->_init_ds1307
    _init_config->_init_i2c
    _init_config->_init_uart
    _init_uart->___lldiv
    _init_i2c->___lldiv
    _init_ds1307->_read_ds1307
    _write_ds1307->_i2c_write
    _init_display_controller->_clcd_write
    _dashboard->___lwmod
    _dashboard->_display_time
    _dashboard->_get_time
    _dashboard->_write_event_log
    _ext_eeprom_write->___wmul
    _get_time->_read_ds1307
    _read_ds1307->_i2c_read
    _clcd_print->_clcd_write
    ___xxtofl->_read_adc
    ___fltol->_read_adc
    ___fldiv->_read_adc

Critical Paths under _isr in COMMON

    None.

Critical Paths under _main in BANK0

    _main->_dashboard
    _menu->_set_time
    _view_logs->_view_log_events
    _view_log_events->_clcd_print
    _set_time->___lwdiv
    _set_time->_clcd_print
    _download->_clcd_print
    _display_menu->_clcd_print
    _clear_log->_clcd_print
    _change_psswd->_clcd_print
    _login->_print_sec
    _print_sec->___lldiv
    _init_config->_init_i2c
    _init_config->_init_uart
    _init_uart->___lldiv
    _init_i2c->___lldiv
    _init_clcd->_init_display_controller
    _dashboard->___fltol
    _write_event_log->_ext_eeprom_write
    _ext_eeprom_write->___wmul
    _display_time->_clcd_print
    ___fltol->___fldiv
    ___fldiv->___xxtofl

Critical Paths under _isr in BANK0

    None.

Critical Paths under _main in BANK1

    None.

Critical Paths under _isr in BANK1

    None.

Critical Paths under _main in BANK3

    _main->_dashboard

Critical Paths under _isr in BANK3

    None.

Critical Paths under _main in BANK2

    None.

Critical Paths under _isr in BANK2

    None.

Call Graph Tables:

 ---------------------------------------------------------------------------------
 (Depth) Function   	        Calls       Base Space   Used Autos Params    Refs
 ---------------------------------------------------------------------------------
 (0) _main                                                 3     3      0  122876
                                             54 BANK0      3     3      0
                         _clear_clcd
                          _dashboard
                        _init_config
                              _login
                               _menu
                _read_digital_keypad
 ---------------------------------------------------------------------------------
 (1) _menu                                                 2     2      0   75965
                                             32 BANK0      2     2      0
                       _change_psswd
                         _clear_clcd
                          _clear_log
                       _display_menu
                           _download
                _read_digital_keypad
                           _set_time
                          _view_logs
 ---------------------------------------------------------------------------------
 (2) _view_logs                                            3     3      0   19672
                                              8 BANK0      3     3      0
                         _clcd_print
                         _clear_clcd
                _read_digital_keypad
                    _view_log_events
 ---------------------------------------------------------------------------------
 (3) _view_log_events                                      5     5      0   11870
                                              3 BANK0      5     5      0
                             ___wmul
                         _clcd_print
                         _clcd_putch
                    _ext_eeprom_read
 ---------------------------------------------------------------------------------
 (2) _set_time                                            29    29      0   14034
                                              3 BANK0     29    29      0
                            ___awmod
                             ___bmul
                            ___lwdiv
                            ___lwmod
                             ___wmul
                         _clcd_print
                         _clear_clcd
                _read_digital_keypad
                     _write_time_rtc
 ---------------------------------------------------------------------------------
 (3) _write_time_rtc                                       1     1      0     453
                                              6 COMMON     1     1      0
                       _write_ds1307
 ---------------------------------------------------------------------------------
 (3) ___awmod                                              6     2      4     613
                                              3 COMMON     4     0      4
                                              0 BANK0      2     2      0
 ---------------------------------------------------------------------------------
 (2) _download                                             7     7      0   10323
                                              3 BANK0      7     7      0
                             ___wmul
                         _clcd_print
                         _clear_clcd
                    _ext_eeprom_read
                               _puts
 ---------------------------------------------------------------------------------
 (3) _puts                                                 2     0      2     219
                                              4 COMMON     2     0      2
                            _putchar
 ---------------------------------------------------------------------------------
 (4) _putchar                                              1     1      0      22
                                              3 COMMON     1     1      0
 ---------------------------------------------------------------------------------
 (4) _ext_eeprom_read                                      2     2      0     161
                                              5 COMMON     2     2      0
                           _i2c_read
                      _i2c_rep_start
                          _i2c_start
                           _i2c_stop
                          _i2c_write
 ---------------------------------------------------------------------------------
 (2) _display_menu                                         5     4      1    9957
                                              3 BANK0      5     4      1
                         _clcd_print
                         _clcd_putch
 ---------------------------------------------------------------------------------
 (2) _clear_log                                            3     3      0    7780
                                              3 BANK0      3     3      0
                         _clcd_print
                         _clear_clcd
 ---------------------------------------------------------------------------------
 (2) _change_psswd                                        29    29      0   13125
                                              3 BANK0     25    25      0
                         _clcd_print
                         _clcd_putch
                          _clear_arr
                         _clear_clcd
                          _my_strcmp
                _read_digital_keypad
                     _write_password
 ---------------------------------------------------------------------------------
 (3) _write_password                                       2     2      0     548
                                              5 COMMON     2     2      0
                       _eeprom_write
 ---------------------------------------------------------------------------------
 (1) _login                                                6     6      0   20093
                                             24 BANK0      6     6      0
                         _clcd_print
                         _clcd_putch
                          _clear_arr
                         _clear_clcd
                        _eeprom_read
                       _eeprom_write
                          _my_strcmp
                          _print_sec
                _read_digital_keypad
 ---------------------------------------------------------------------------------
 (1) _read_digital_keypad                                  2     2      0      22
                                              3 COMMON     2     2      0
 ---------------------------------------------------------------------------------
 (2) _print_sec                                           11     7      4    8286
                                             13 BANK0     11     7      4
                            ___lldiv
                            ___llmod
                         _clcd_print
 ---------------------------------------------------------------------------------
 (3) ___llmod                                             10     2      8     412
                                              3 COMMON     2     2      0
                                              0 BANK0      8     0      8
 ---------------------------------------------------------------------------------
 (3) _my_strcmp                                            5     3      2     396
                                              3 COMMON     5     3      2
 ---------------------------------------------------------------------------------
 (4) _eeprom_write                                         2     1      1     424
                                              3 COMMON     2     1      1
 ---------------------------------------------------------------------------------
 (2) _eeprom_read                                          1     1      0      22
                                              3 COMMON     1     1      0
 ---------------------------------------------------------------------------------
 (3) _clear_clcd                                           2     2      0    1052
                                              0 BANK0      2     2      0
                         _clcd_write
 ---------------------------------------------------------------------------------
 (3) _clear_arr                                            1     1      0     144
                                              3 COMMON     1     1      0
 ---------------------------------------------------------------------------------
 (4) _clcd_putch                                           2     1      1    2824
                                              7 COMMON     1     0      1
                                              0 BANK0      1     1      0
                         _clcd_write
 ---------------------------------------------------------------------------------
 (1) _init_config                                          0     0      0    3538
                           _init_adc
                          _init_clcd
                _init_digital_keypad
                        _init_ds1307
                           _init_i2c
                         _init_timer
                          _init_uart
 ---------------------------------------------------------------------------------
 (2) _init_uart                                            8     4      4     902
                                              4 COMMON     4     4      0
                                             13 BANK0      4     0      4
                            ___lldiv
 ---------------------------------------------------------------------------------
 (2) _init_timer                                           0     0      0       0
 ---------------------------------------------------------------------------------
 (2) _init_i2c                                             8     4      4     902
                                              4 COMMON     4     4      0
                                             13 BANK0      4     0      4
                            ___lldiv
 ---------------------------------------------------------------------------------
 (3) ___lldiv                                             14     6      8     781
                                              3 COMMON     1     1      0
                                              0 BANK0     13     5      8
 ---------------------------------------------------------------------------------
 (2) _init_ds1307                                          1     1      0     682
                                              7 COMMON     1     1      0
                        _read_ds1307
                       _write_ds1307
 ---------------------------------------------------------------------------------
 (4) _write_ds1307                                         2     1      1     453
                                              4 COMMON     2     1      1
                          _i2c_start
                           _i2c_stop
                          _i2c_write
 ---------------------------------------------------------------------------------
 (2) _init_digital_keypad                                  0     0      0       0
 ---------------------------------------------------------------------------------
 (2) _init_clcd                                            0     0      0    1052
            _init_display_controller
 ---------------------------------------------------------------------------------
 (3) _init_display_controller                              2     2      0    1052
                                              0 BANK0      2     2      0
                         _clcd_write
 ---------------------------------------------------------------------------------
 (2) _init_adc                                             0     0      0       0
 ---------------------------------------------------------------------------------
 (1) _dashboard                                            9     9      0   22141
                                             50 BANK0      4     4      0
                                              0 BANK3      5     5      0
                            ___fldiv
                            ___fltol
                            ___lwdiv
                            ___lwmod
                           ___xxtofl
                         _clcd_print
                       _display_time
                           _get_time
                           _read_adc
                    _write_event_log
 ---------------------------------------------------------------------------------
 (2) _write_event_log                                      3     3      0    3110
                                              7 COMMON     1     1      0
                                              4 BANK0      2     2      0
                   _ext_eeprom_write
                        _write_event
                        _write_speed
                         _write_time
 ---------------------------------------------------------------------------------
 (3) _write_time                                          11    11      0     222
                                              3 COMMON     2     2      0
 ---------------------------------------------------------------------------------
 (3) _write_speed                                          1     1      0     101
                                              3 COMMON     1     1      0
 ---------------------------------------------------------------------------------
 (4) _write_event                                          2     0      2     155
                                              3 COMMON     2     0      2
 ---------------------------------------------------------------------------------
 (3) _ext_eeprom_write                                     2     2      0    2601
                                              2 BANK0      2     2      0
                             ___bmul
                             ___wmul
                          _i2c_start
                           _i2c_stop
                          _i2c_write
 ---------------------------------------------------------------------------------
 (4) ___wmul                                               6     2      4    1996
                                              3 COMMON     4     0      4
                                              0 BANK0      2     2      0
 ---------------------------------------------------------------------------------
 (3) ___bmul                                               3     2      1     436
                                              3 COMMON     3     2      1
 ---------------------------------------------------------------------------------
 (2) _read_adc                                             4     2      2      34
                                              3 COMMON     4     2      2
 ---------------------------------------------------------------------------------
 (2) _get_time                                             1     1      0     290
                                              7 COMMON     1     1      0
                        _read_ds1307
 ---------------------------------------------------------------------------------
 (3) _read_ds1307                                          2     2      0     161
                                              5 COMMON     2     2      0
                           _i2c_read
                      _i2c_rep_start
                          _i2c_start
                           _i2c_stop
                          _i2c_write
 ---------------------------------------------------------------------------------
 (5) _i2c_write                                            1     1      0      31
                                              3 COMMON     1     1      0
                  _i2c_wait_for_idle
 ---------------------------------------------------------------------------------
 (5) _i2c_rep_start                                        0     0      0       0
                          _i2c_start
                           _i2c_stop
 ---------------------------------------------------------------------------------
 (5) _i2c_stop                                             0     0      0       0
                  _i2c_wait_for_idle
 ---------------------------------------------------------------------------------
 (5) _i2c_start                                            0     0      0       0
                  _i2c_wait_for_idle
 ---------------------------------------------------------------------------------
 (5) _i2c_read                                             2     2      0      65
                                              3 COMMON     2     2      0
                  _i2c_wait_for_idle
 ---------------------------------------------------------------------------------
 (6) _i2c_wait_for_idle                                    0     0      0       0
 ---------------------------------------------------------------------------------
 (2) _display_time                                         2     2      0    6950
                                              7 COMMON     1     1      0
                                              3 BANK0      1     1      0
                         _clcd_print
 ---------------------------------------------------------------------------------
 (4) _clcd_print                                           3     0      3    6728
                                              0 BANK0      3     0      3
                             ___bmul (ARG)
                         _clcd_write
 ---------------------------------------------------------------------------------
 (5) _clcd_write                                           4     3      1    1052
                                              3 COMMON     4     3      1
 ---------------------------------------------------------------------------------
 (2) ___xxtofl                                            14    10      4     566
                                              0 BANK0     14    10      4
                           _read_adc (ARG)
 ---------------------------------------------------------------------------------
 (3) ___lwmod                                              5     1      4     952
                                              3 COMMON     5     1      4
 ---------------------------------------------------------------------------------
 (3) ___lwdiv                                              7     3      4     961
                                              3 COMMON     4     0      4
                                              0 BANK0      3     3      0
 ---------------------------------------------------------------------------------
 (2) ___fltol                                             10     6      4     427
                                             40 BANK0     10     6      4
                            ___fldiv (ARG)
                           ___xxtofl (ARG)
                           _read_adc (ARG)
 ---------------------------------------------------------------------------------
 (2) ___fldiv                                             26    18      8    1863
                                             14 BANK0     26    18      8
                           ___xxtofl (ARG)
                           _read_adc (ARG)
 ---------------------------------------------------------------------------------
 Estimated maximum stack depth 6
 ---------------------------------------------------------------------------------
 (Depth) Function   	        Calls       Base Space   Used Autos Params    Refs
 ---------------------------------------------------------------------------------
 (8) _isr                                                  3     3      0       0
                                              0 COMMON     3     3      0
 ---------------------------------------------------------------------------------
 Estimated maximum stack depth 8
 ---------------------------------------------------------------------------------

 Call Graph Graphs:

 _main (ROOT)
   _clear_clcd
     _clcd_write
   _dashboard
     ___fldiv
       ___xxtofl (ARG)
         _read_adc (ARG)
       _read_adc (ARG)
     ___fltol
       ___fldiv (ARG)
       ___xxtofl (ARG)
       _read_adc (ARG)
     ___lwdiv
     ___lwmod
     ___xxtofl
     _clcd_print
       ___bmul (ARG)
       _clcd_write (ARG)
     _display_time
       _clcd_print
     _get_time
       _read_ds1307
         _i2c_read
           _i2c_wait_for_idle
         _i2c_rep_start
           _i2c_start
             _i2c_wait_for_idle
           _i2c_stop
             _i2c_wait_for_idle
         _i2c_start
         _i2c_stop
         _i2c_write
           _i2c_wait_for_idle
     _read_adc
     _write_event_log
       _ext_eeprom_write
         ___bmul
         ___wmul
         _i2c_start
         _i2c_stop
         _i2c_write
       _write_event
       _write_speed
       _write_time
   _init_config
     _init_adc
     _init_clcd
       _init_display_controller
         _clcd_write
     _init_digital_keypad
     _init_ds1307
       _read_ds1307
       _write_ds1307
         _i2c_start
         _i2c_stop
         _i2c_write
     _init_i2c
       ___lldiv
     _init_timer
     _init_uart
       ___lldiv
   _login
     _clcd_print
     _clcd_putch
       _clcd_write
     _clear_arr
     _clear_clcd
     _eeprom_read
     _eeprom_write
     _my_strcmp
     _print_sec
       ___lldiv
       ___llmod
       _clcd_print
     _read_digital_keypad
   _menu
     _change_psswd
       _clcd_print
       _clcd_putch
       _clear_arr
       _clear_clcd
       _my_strcmp
       _read_digital_keypad
       _write_password
         _eeprom_write
     _clear_clcd
     _clear_log
       _clcd_print
       _clear_clcd
     _display_menu
       _clcd_print
       _clcd_putch
     _download
       ___wmul
       _clcd_print
       _clear_clcd
       _ext_eeprom_read
         _i2c_read
         _i2c_rep_start
         _i2c_start
         _i2c_stop
         _i2c_write
       _puts
         _putchar
     _read_digital_keypad
     _set_time
       ___awmod
       ___bmul
       ___lwdiv
       ___lwmod
       ___wmul
       _clcd_print
       _clear_clcd
       _read_digital_keypad
       _write_time_rtc
         _write_ds1307
     _view_logs
       _clcd_print
       _clear_clcd
       _read_digital_keypad
       _view_log_events
         ___wmul
         _clcd_print
         _clcd_putch
         _ext_eeprom_read
   _read_digital_keypad

 _isr (ROOT)

 Address spaces:
Name               Size   Autos  Total    Cost      Usage
BANK3               60      5      51       9       84.4%
BITBANK3            60      0       0       8        0.0%
SFR3                 0      0       0       4        0.0%
BITSFR3              0      0       0       4        0.0%
BANK2               60      0       0      11        0.0%
BITBANK2            60      0       0      10        0.0%
SFR2                 0      0       0       5        0.0%
BITSFR2              0      0       0       5        0.0%
BANK1               50      0      4E       7       97.5%
BITBANK1            50      0       0       6        0.0%
SFR1                 0      0       0       2        0.0%
BITSFR1              0      0       0       2        0.0%
BANK0               50     39      4F       5       98.8%
BITBANK0            50      0       0       4        0.0%
SFR0                 0      0       0       1        0.0%
BITSFR0              0      0       0       1        0.0%
COMMON               E      8       B       1       78.6%
BITCOMMON            E      0       0       0        0.0%
CODE                 0      0       0       0        0.0%
DATA                 0      0      F9      12        0.0%
ABS                  0      0      F9       3        0.0%
NULL                 0      0       0       0        0.0%
STACK                0      0       0       2        0.0%
EEDATA             100      0       0       0        0.0%


Microchip Technology PIC Macro Assembler V2.41 build 20230208172133 
Symbol Table                                                                                   Sun Oct 15 19:15:23 2023

                   ___fldiv@aexp 0047                     ___fldiv@bexp 0046                                pc 0002  
                   ___fldiv@sign 003F                   ___bmul@product 0074                   clcd_print@addr 0022  
                  my_strcmp@str1 0077                    my_strcmp@str2 0073                               l20 172C  
                             l23 1E65                               l32 12AE                               l17 1FB8  
                             l42 1E10                               l26 1F0E                               l35 1EBE  
                             l70 1E8C                               l48 11A1                               l73 1E9A  
                             l67 1E17                               _GO 00FA                               fsr 0004  
            ___wmul@multiplicand 0075                              l104 1356                              l201 11CC  
                            l204 1F98                              l118 15AF                              l233 12E2  
                            l242 1E28                              l251 1FD4                              l331 06F9  
                            l236 1E7C                              l252 1FD7                              l324 0680  
                            l253 1FD9                              l245 1E4F                              l181 07FD  
                            l502 0C69                              l239 1E88                              l175 0E30  
                            l248 1E31                              l256 1E5A                              l337 1EAC  
                            l353 08BC                              l178 17FF                              l346 1417  
                            l514 0A33                              l434 0778                              l611 0BAA  
                            l444 07C9                              l198 1ED1                              l366 1E70  
                            l454 09AD                              l551 084B                              l448 07DC  
                            l563 1F7A                              l491 0BAB                              l548 14AA  
                            l644 1395                              l572 1222                              l708 02F3  
                            l901 11DD                              l557 124E                              l717 1558  
                            l493 0C72                              l654 1E76                              l662 1FFF  
                            l903 11F7                              l655 1E7A                              l656 1E7B  
                            l569 166A                              l497 0C13                              l770 04F9  
                            l691 00BF                              l589 13D4                              l927 1EF9  
                            l871 1F10                              l937 1794                              l873 1F25  
                            l697 029C                              l890 1250                              l778 1F41  
                            l891 1250                              l894 126A                              l897 127B  
                            _GIE 005F                              _RE1 0049                              _RE2 004A  
                  ?_display_menu 0023                              _PEN 048A                              _SEN 0488  
                            _PSA 040B                    ?_display_time 0070                              _ind 00CA  
                            _isr 166B                   clcd_putch@addr 0077                              fsr0 0004  
                 clcd_putch@data 0020                              indf 0000                     ___awmod@sign 0021  
           __end_of_change_psswd 04FA                     ___fltol@exp1 0051                             l1123 1500  
                           l1250 0E87                             l1067 160D                             l1252 0FFF  
                           l1173 145D                             l3101 1256                             l1094 091F  
                           l1334 0A58                             l1087 0934                             l1183 131C  
                           l3111 126E                             l3103 125C                             l1272 0FEB  
                           l1336 0AED                             l1097 0934                             l3113 1272  
                           l3105 1262            ??_read_digital_keypad 0073                             l1266 0F79  
                           l1347 0AB7                             l3115 1273                             l3107 1265  
                           l3203 1195                             l1348 0AC3                             l3117 1274  
                           l3109 1269                             l3221 13DB                             l3205 119E  
                           l3119 127A                             l3231 1406                             l3223 13DF  
                           l3207 11A0                             l3127 1E72                             l3311 1FDA  
                           l5001 1305                             l3241 1E9D                             l3225 13E7  
                           l3217 13D6                             l3313 1FDB                             l5003 130B  
                           l5011 1E5B                             l3243 1EA0                             l3235 1409  
                           l3227 13EE                             l3219 13D7                             l3315 1FE9  
                           l5005 1312                             l5021 1E90                             l5013 1E5E  
                           l3501 1E66                             l3245 1EA4                             l3229 13FA  
                           l3341 1F28                             l3317 1FEF                             l5101 0BAB  
                           l5007 1318                             l5015 1E5F                             l5031 1EBF  
                           l3503 1E6A                             l3239 1E9C                             l3191 1183  
                           l3183 1179                             l3343 1F33                             l3335 1F27  
                           l5111 0BDA                             l5103 0BB4                             l5017 1E60  
                           l5033 1EC6                             l5025 12AF                             l3505 1E6E  
                           l5041 138F                             l3193 118E                             l3185 117E  
                           l3345 1F37                             l5201 0B35                             l5121 0BEC  
                           l5105 0BB9                             l6001 0709                             l5051 1798  
                           l5019 1E89                             l5035 1EC9                             l5027 12B2  
                           l3507 1E6F                             l5043 1390                             l3195 1193  
                           l3347 1F3B                             l5211 0B83                             l5203 0B49  
                           l5131 0C03                             l5123 0BEE                             l5107 0BBE  
                           l6011 0722                             l6003 0711                             l5061 17F1  
                           l5053 17B3                             l5029 12DF                             l5045 1391  
                           l5037 1357                             l5221 0BA5                             l5213 0B8C  
                           l5205 0B58                             l5301 01ED                             l5141 0C1B  
                           l5133 0C04                             l5125 0BF4                             l5109 0BCB  
                           l5117 0BE0                             l6021 0742                             l6013 072D  
                           l6005 0715                             l6101 1599                             l5063 17F2  
                           l5055 17B5                             l5071 1478                             l5047 1394  
                           l5039 1362                             l5215 0B8F                             l5207 0B5E  
                           l5311 0244                             l5303 01EF                             l5231 0078  
                           l5151 0C32                             l5143 0C21                             l5135 0C0B  
                           l5127 0BFB                             l5119 0BE6                             l6023 0748  
                           l6015 0734                             l6031 075A                             l6007 071B  
                           l5057 17C7                             l5049 07DE                             l5081 149E  
                           l5073 147E                             l5065 145F                             l5401 0372  
                           l5209 0B66                             l5217 0B97                             l5313 024B  
                           l5305 0201                             l5321 0274                             l5241 009B  
                           l5233 0085                             l5225 0065                             l5161 0C5D  
                           l5153 0C38                             l5145 0C23                             l5137 0C0D  
                           l5129 0BFD                             l6041 078D                             l6025 074E  
                           l6033 0775                             l6017 0736                             l6009 0720  
                           l6105 159F                             l5059 17D1                             l5083 14A4  
                           l5075 1482                             l5067 146E                             l3491 1E0B  
                           l5091 085C                             l5411 039A                             l5403 037A  
                           l5219 0BA1                             l5331 028D                             l5315 024D  
                           l5307 0216                             l5323 0287                             l5251 00BF  
                           l5243 00AD                             l5235 0089                             l5227 006A  
                           l5163 0C5E                             l5155 0C39                             l5147 0C29  
                           l5171 0C69                             l5139 0C13                             l6051 07A7  
                           l6043 0793                             l6027 0754                             l6019 073C  
                           l6035 077C                             l5077 1494                             l5069 1472  
                           l3493 1E11                             l5093 087A                             l5085 084C  
                           l5405 0383                             l5413 039F                             l5181 13B4  
                           l5173 1396                             l5341 02A3                             l5333 0292  
                           l5325 0287                             l5317 025F                             l5309 023E  
                           l5261 00FB                             l5253 00C8                             l5245 00AF  
                           l5237 008B                             l5229 006D                             l5157 0C48  
                           l5165 0C64                             l5149 0C30                             l6061 07C0  
                           l6053 07AF                             l6045 0798                             l6037 0783  
                           l4711 1FCB                             l4703 1E45                             l5079 149A  
                           l5095 0899                             l5511 04E9                             l5503 04BE  
                           l5415 03A5                             l5407 0389                             l5183 13C1  
                           l5175 13A0                             l5191 0B0F                             l5351 02C0  
                           l5343 02B1                             l5335 0296                             l5327 028A  
                           l5271 012E                             l5263 00FF                             l5255 00E1  
                           l5247 00B5                             l5239 0093                             l5159 0C4E  
                           l6071 07DA                             l6063 07C3                             l6055 07B3  
                           l6047 079A                             l6039 078B                             l5601 0E7C  
                           l4721 127C                             l4713 1FD0                             l4705 1FBA  
                           l3569 1F17                             l5097 089F                             l5505 04CA  
                           l5441 03EE                             l5417 03AE                             l5409 0392  
                           l5425 03BE                             l5433 03CD                             l5361 02F4  
                           l5177 13A2                             l5521 095E                             l5193 0B14  
                           l5185 0AEE                             l5353 02D2                             l5345 02B3  
                           l5329 028C                             l5281 014F                             l5273 0130  
                           l5265 0114                             l5257 00EB                             l5249 00B7  
                           l4801 09CD                             l6049 07A5                             l6057 07B9  
                           l6081 155E                             l5611 0E9F                             l5603 0E7D  
                           l5531 08C8                             l4723 1286                             l4715 1FD8  
                           l4707 1FBF                             l5099 08A3                             l5507 04CF  
                           l5451 040E                             l5443 03F7                             l5435 03D8  
                           l5427 03C7                             l5419 03B4                             l5371 030D  
                           l5363 02F8                             l5179 13A7                             l5523 0976  
                           l5515 0938                             l4731 11F9                             l5195 0B1E  
                           l5187 0AF3                             l5355 02E8                             l5347 02B9  
                           l5291 0191                             l5283 015A                             l5275 0136  
                           l5339 029C                             l5259 00F0                             l5267 0118  
                           l4811 0A19                             l4803 09DC                             l6059 07BB  
                           l6067 07C9                             l6171 15A7                             l6091 157E  
                           l6083 1565                             l5701 0FF3                             l5621 0EB6  
                           l5605 0E7F                             l5541 08ED                             l4725 1296  
                           l4709 1FC7                             l4741 11D5                             l4821 082B  
                           l5509 04DC                             l5461 0430                             l5453 0410  
                           l5445 03FB                             l5437 03E7                             l5429 03CA  
                           l5381 0331                             l5373 0313                             l5365 02F9  
                           l5525 097E                             l5517 093E                             l4733 1221  
                           l5189 0B00                             l5349 02BE                             l5293 01A3  
                           l5285 0182                             l5277 013B                             l5269 0120  
                           l4813 0A26                             l4805 09E2                             l6069 07D3  
                           l6173 0764                             l6093 1582                             l6085 156E  
                           l5703 0FF5                             l5631 0EE2                             l5623 0EC8  
                           l5607 0E8F                             l5615 0EA8                             l5551 08FB  
                           l5543 08EF                             l5535 08D1                             l4727 129E  
                           l4751 1EE6                             l4743 11E4                             l4831 1234  
                           l4823 0831                             l4815 0804                             l4719 1EFD  
                           l5471 0455                             l5463 0439                             l5447 0400  
                           l5439 03E9                             l5455 0419                             l5391 0354  
                           l5383 0340                             l5375 0318                             l5367 0302  
                           l5527 0995                             l5519 0946                             l5199 0B28  
                           l4911 15C1                             l4903 15B3                             l6175 027C  
                           l5295 01B8                             l5287 0188                             l5279 013D  
                           l4807 09EA                             l6095 1589                             l6087 1574  
                           l6079 1559                             l5705 0FF9                             l5633 0EE7  
                           l5641 0F07                             l5625 0ED0                             l5617 0EAD  
                           l5609 0E9B                             l5561 0914                             l5553 0904  
                           l5545 08F3                             l5537 08E4                             l5529 08BD  
                           l5721 0A60                             l5713 0A37                             l4681 1E25  
                           l4761 1EF3                             l4753 1EE7                             l4745 11EB  
                           l4737 11CD                             l4833 123A                             l4841 1F6A  
                           l4825 0849                             l4817 081B                             l5801 0D13  
                           l4729 1F7C                             l5481 046E                             l5473 045B  
                           l5465 0441                             l5457 0421                             l5449 0409  
                           l5393 0359                             l5385 0342                             l5377 0321  
                           l5369 030D                             l4921 15DA                             l4913 15C5  
                           l4905 15B6                             l5297 01E0                             l5289 018F  
                           l4809 0A06                             l6097 158E                             l6089 1579  
                           l5651 0F32                             l5643 0F19                             l5635 0EF9  
                           l5627 0ED8                             l5571 0E3A                             l5563 0924  
                           l5555 090D                             l5539 08E5                             l5731 0A79  
                           l5715 0A3C                             l4691 1FA6                             l4675 1E7C  
                           l4683 1E29                             l4763 1EF8                             l4755 1EEB  
                           l4747 11F1                             l4739 11D1                             l4851 1630  
                           l4835 123E                             l4827 1223                             l4843 1F6E  
                           l4819 081D                             l5811 0D28                             l5803 0D16  
                           l4771 16DC                             l5491 048F                             l5483 0472  
                           l5459 042A                             l5467 0446                             l5395 0362  
                           l5387 0347                             l5379 0326                             l4931 15F9  
                           l4923 15DE                             l4915 15CA                             l4907 15BA  
                           l5299 01E6                             l6099 1594                             l5661 0F4A  
                           l5653 0F3A                             l5645 0F1A                             l5637 0EFD  
                           l5629 0EE0                             l5581 0E51                             l5573 0E3E  
                           l5565 0929                             l5741 0AA2                             l5733 0A80  
                           l5725 0A69                             l5717 0A40                             l4693 1FAC  
                           l4677 1E82                             l4685 1E2E                             l4757 1EEF  
                           l4853 163B                             l4829 1224                             l4845 1F72  
                           l4837 1F5F                             l5821 0D55                             l5813 0D35  
                           l5805 0D1E                             l4781 1706                             l4773 16EE  
                           l4941 14AB                             l5901 0564                             l5493 049C  
                           l5485 0480                             l5469 044C                             l5397 0367  
                           l5389 0350                             l4925 15E2                             l4917 15D0  
                           l4933 15FF                             l4909 15BF                             l4861 1501  
                           l5671 0F62                             l5663 0F53                             l5655 0F3C  
                           l5647 0F28                             l5639 0EFE                             l5591 0E65  
                           l5583 0E52                             l5575 0E3F                             l5567 0E31  
                           l5751 0ADB                             l5743 0AAD                             l5735 0A84  
                           l5727 0A6C                             l5719 0A50                             l4687 1F9A  
                           l4679 1E20                             l4695 1E51                             l4791 11A3  
                           l4759 1EF1                             l4855 1641                             l4847 1611  
                           l4839 1F60                             l5831 0D76                             l5823 0D5D  
                           l5815 0D3D                             l5807 0D22                             l4783 1714  
                           l4775 16F5                             l4767 16CA                             l4951 14C9  
                           l4943 14B5                             l5911 0593                             l5903 0569  
                           l5495 04A9                             l5487 0486                             l5479 0465  
                           l5399 0369                             l4935 1604                             l4927 15EC  
                           l4919 15D3                             l4871 153C                             l4863 1510  
                           l5681 0F91                             l5673 0F76                             l5657 0F45  
                           l5665 0F59                             l5649 0F2C                             l5593 0E69  
                           l5577 0E44                             l5585 0E54                             l5569 0E36  
                           l5753 0AE0                             l5745 0AB1                             l5737 0A92  
                           l5729 0A70                             l4689 1FA4                             l4697 1E56  
                           l4793 11CB                             l4857 1646                             l4849 161D  
                           l5841 0D98                             l5833 0D7B                             l5817 0D44  
                           l5809 0D27                             l5825 0D64                             l4785 171E  
                           l4777 16FC                             l4769 16D5                             l4881 1742  
                           l5761 131D                             l4953 14DB                             l4945 14B8  
                           l5921 05AE                             l5913 0595                             l5905 0570  
                           l5497 04B8                             l5489 048A                             l4937 1609  
                           l4929 15F2                             l4873 1544                             l4865 1516  
                           _ADFM 04FF                             l5691 0FCF                             l5683 0F95  
                           l5667 0F5D                             l5659 0F49                             l5595 0E6A  
                           l5587 0E5C                             l5579 0E49                             l4971 142C  
                           l4963 1418                             l5755 0AE4                             l5747 0ABB  
                           l5739 0A9B                             l4699 1E5A                             l4859 164C  
                           l5851 0DC2                             l5843 0D9A                             l5835 0D7C  
                           l5827 0D6A                             l5819 0D46                             l4779 16FF  
                           l4891 176E                             l4883 174B                             l5771 1340  
                           l5763 1322                             l4787 1EAD                             l4955 14E9  
                           l4947 14C1                             l5931 05CE                             l5923 05B7  
                           l5915 059C                             l5907 0579                             l4875 154E  
                           l4867 1529                             ?_isr 0070                             l5693 0FDE  
                           l5685 0FAE                             l5677 0F7E                             l5669 0F5E  
                           l5597 0E6F                             l5589 0E61                             l4981 144C  
                           l4973 1430                             l4965 141C                             l5757 0AE5  
                           l5749 0AC5                             l5861 0DE6                             l5853 0DC9  
                           l5845 0DA9                             l5837 0D89                             l5829 0D72  
                           l5781 0C83                             l4893 177C                             l4885 174F  
                           l4877 172D                             l5773 1345                             l5765 1327  
                           l4789 1EB4                             l4957 14F2                             l4949 14C5  
                           l5941 05F0                             l5933 05D4                             l5925 05BC  
                           l5917 05A5                             l5909 0584                             l4869 1536  
                           l4797 09B1                             l5695 0FE2                             l5679 0F83  
                           l5687 0FB4                             l5599 0E74                             l4983 1453  
                           l4975 1434                             l4967 1422                             l4991 12E9  
                           l5863 0DED                             l5855 0DD0                             l5847 0DB1  
                           l5839 0D91                             l5871 0E0E                             l5783 0C89  
                           l4895 177D                             l4887 1753                             l4879 173F  
                           l5775 1354                             l5767 132C                             l4959 14F8  
                           l5943 05F9                             l5935 05DD                             l5951 0609  
                           l5919 05A9                             l5927 05BE                             l4799 09B4  
                           l5697 0FEA                             l5689 0FC1                             l4977 1445  
                           l4969 1425                             l4985 1459                             l4993 12EC  
                           l5873 0E23                             l5865 0DEF                             l5857 0DD1  
                           l5849 0DBA                             l5793 0CE0                             l5785 0C8F  
                           l4897 1786                             l4889 175C                             l5777 1355  
                           l5769 1331                             l5961 0624                             l5953 0612  
                           l5945 05FF                             l5937 05E5                             l5929 05C5  
                           l5881 050A                             l5699 0FEF                             l4979 144B  
                           l4995 12F3                             l5867 0DFE                             l5859 0DDE  
                           l5795 0CF4                             l5787 0CDC                             l5779 0C76  
                           l4899 178C                             l5971 0647                             l5963 0632  
                           l5955 0614                             l5939 05EA                             l5891 0533  
                           l5883 052A                             l5875 04FA                             l4997 12F7  
                           l4989 12E3                             l5869 0E06                             l5797 0D09  
                           l5973 065F                             l5965 0636                             l5957 0616  
                           l5893 053E                             l5885 0531                             l5877 0501  
                           l4999 12FB                             l5799 0D0F                             l5991 06B1  
                           l5975 066E                             l5967 063C                             l5959 061E  
                           l5983 0681                             l5895 0544                             l5879 0506  
                           l5985 0699                             l5977 0673                             l5969 0642  
                           l5897 054A                             l5987 06A4                             l5995 06BA  
                           l5979 067B                             l5899 0555                             _ADON 00F8  
                           l5989 06AE                             l5997 06FA                             l5999 0703  
                           STR_1 1170                             STR_2 116D                             STR_3 1173  
                           STR_4 115E                             STR_5 1161                             STR_6 1164  
                           STR_7 1167                             STR_8 116A                             STR_9 115B  
                           _BRGH 04C2                             _CREN 00C4                             _T0CS 040D  
                           u2600 13EE                             u2601 13ED                             u5010 1753  
                           u2450 1256                             u2610 13FA                             u5011 1752  
                           u2451 1255                             u2611 13F9                             u3180 1F17  
                           u2460 1269                             u2620 1406                             u5100 15E2  
                           u5005 1744                             u3181 1F16                             u2461 1268  
                           u2621 1405                             u5101 15E1                             u5030 176E  
                           u2630 1EAC                             u2470 127A                             u2550 117E  
                           u2710 1FFF                             u5110 15EC                             u5031 176D  
                           u2631 1EAB                             u2471 1279                             u2551 117D  
                           u2711 1FFE                             u5111 15EB                             u6000 0929  
                           u5200 14F8                             u2560 118E                             u2480 1E7A  
                           u6001 0928                             u5025 1755                             u5201 14F7  
                           u2561 118D                             u2481 1E79                             u6010 0E3E  
                           u5210 1422                             u5050 178C                             u2570 1193  
                           u5130 15FF                             u6011 0E3D                             u5211 1421  
                           u5051 178B                             u5035 176A                             u2571 1192  
                           u5131 15FE                             u5115 15E8                             u6020 0E44  
                           u5300 12FB                             u2580 119E                             u5140 1604  
                           u5060 15BA                             u6021 0E43                             u5301 12FA  
                           u5045 177E                             u2581 119D                             u5141 1603  
                           u5125 15F3                             u5061 15B9                             u6030 0E49  
                           u5230 1434                             u5310 1305                             u2590 13E7  
                           u5150 14B5                             u2750 1F41                             u5070 15C5  
                           u6031 0E48                             u5231 1433                             u5311 1304  
                           u2591 13E6                             u5151 14B4                             u2751 1F40  
                           u5071 15C4                             u6200 0F5D                             u6120 0EFD  
                           u6040 0E69                             u5400 146E                             u5080 15D0  
                           u6201 0F5C                             u6121 0EFC                             u6105 0EE9  
                           u6041 0E68                             u5225 1426                             u5401 146D  
                           u5081 15CF                             u6210 0F62                             u6050 0E6F  
                           u5250 1445                             u5330 1318                             u5170 14C9  
                           u5410 08A3                             u6211 0F61                             u6115 0EF2  
                           u6051 0E6E                             u5251 1444                             u5331 1317  
                           u5315 1301                             u5171 14C8                             u5411 08A2  
                           _PEIE 005E                             u6220 0F76                             u6140 0F19  
                           u6060 0E74                             u6300 0A3C                             u5340 1E90  
                           u5180 14DB                             u5500 0C30                             u5420 0BB9  
                           u6221 0F75                             u6141 0F18                             u6061 0E73  
                           u5245 1435                             u5325 130C                             u6301 0A3B  
                           u5341 1E8F                             u5405 146A                             u5181 14DA  
                           u5165 14BA                             u5501 0C2F                             u5421 0BB8  
                           u6230 0F7D                             u6150 0F32                             u6070 0E8F  
                           u5270 1459                             u6310 0A40                             u5350 12C0  
                           u5510 0C38                             u5430 0BE6                             u6231 0F7C  
                           u6151 0F31                             u6135 0F00                             u6071 0E8E  
                           u5271 1458                             u5255 1441                             u6311 0A3F  
                           u7007 055D                             u5095 15D4                             u5511 0C37  
                           u5431 0BE5                             u6240 0F83                             u6160 0F3A  
                           u6080 0EAD                             u5280 12E9                             u6400 0ABB  
                           u6320 0A60                             u5360 1370                             u5600 0136  
                           u5520 0C48                             u5440 0BF4                             u6241 0F82  
                           u6161 0F39                             u6145 0F15                             u6081 0EAC  
                           u5265 144D                             u5281 12E8                             u6401 0ABA  
                           u6321 0A5F                             u5185 14D7                             u7017 0667  
                           u5601 0135                             u5521 0C47                             u5441 0BF3  
                           u6250 0F95                             u6090 0EE7                             u6410 0AD0  
                           u4810 1FD0                             u5610 013B                             u5530 0C5D  
                           u5450 0BFB                             u6251 0F94                             u6091 0EE6  
                           u7107 1FB3                             u4811 1FCF                             u5355 12BB  
                           u7027 1EBA                             u5195 14EA                             u5611 013A  
                           u5531 0C5C                             u5451 0BFA                             _RCIE 0465  
                           u6260 0FA4                             u6180 0F49                             u6420 0AE0  
                           u6340 0A7F                             u4804 1FA4                             u4820 12AE  
                           u6500 0D6A                             u5700 02FD                             u5540 0B1E  
                           u5620 014F                             u5460 0C03                             _RCEN 048B  
                           _RCIF 0065                             u6181 0F48                             u6421 0ADF  
                           u6341 0A7E                             u4821 12AD                             u6501 0D69  
                           u7037 16D0                             u5365 136B                             u5541 0B1D  
                           u5621 014E                             u5525 0C44                             u5461 0C02  
                           u6270 0FC1                             u6430 0AE4                             u4830 11D5  
                           u6510 0D72                             u5710 0306                             u5550 0B83  
                           u5630 018F                             u5470 0C0B                             u6271 0FC0  
                           u6175 0F3E                             u5295 12ED                             u6431 0AE3  
                           u6415 0ACB                             u6335 0A71                             u5375 179E  
                           u4831 11D4                             u6511 0D71                             u7047 16E2  
                           u5551 0B82                             u5631 018E                             u5623 014B  
                           u5471 0C0A                             u6280 0FDE                             u6360 0AA1  
                           u6600 0DED                             u6520 0D7B                             u6440 0D13  
                           u5800 03C7                             u5720 0326                             u5560 0BA1  
                           u5640 01ED                             u5480 0C1B                             u6281 0FDD  
                           u6265 0F9F                             u6361 0AA0                             u5385 17BC  
                           u4905 080A                             u6601 0DEC                             u6521 0D7A  
                           u6441 0D12                             u7057 16F2                             u5801 03C6  
                           u5721 0325                             u5561 0BA0                             u5641 01EC  
                           u5481 0C1A                             u6290 0FF3                             u4770 1E82  
                           u4930 124E                             u6610 0DFE                             u6530 0D89  
                           u6450 0D1E                             u5810 03E7                             u5730 0340  
                           u5650 024B                             u5570 00E1                             u5490 0C29  
                           u6291 0FF2                             u6275 0FBD                             u6195 0F4C  
                           u6355 0A93                             u5395 17DB                             u4771 1E81  
                           u4931 124D                             u4915 0822                             u6611 0DFD  
                           u6531 0D88                             u6451 0D1D                             u7067 170A  
                           u5811 03E6                             u5731 033F                             u5555 0B7F  
                           u5651 024A                             u5571 00E0                             u5491 0C28  
                           u6380 0AB1                             u4780 1E88                             u4860 11F1  
                           u4940 1F7A                             u6540 0D98                             u6460 0D27  
                           u6700 05C5                             u6620 0501                             u5820 03EE  
                           u5740 0347                             u5900 093E                             u5660 02A3  
                           u5580 00F0                             u6285 0FDA                             u6381 0AB0  
                           u4781 1E87                             u4861 11F0                             u4845 11DE  
                           u4941 1F79                             u4925 0839                             u6541 0D97  
                           u6461 0D26                             u7077 171A                             u6701 05C4  
                           u6621 0500                             u5821 03ED                             u5741 0346  
                           u5901 093D                             u5565 0B9D                             u5661 02A2  
                           u5581 00EF                             u5910 08C8                             u6390 0AB7  
                           u4790 1FA1                             u4870 1EEB                             u4950 166A  
                           u6550 0DA9                             u6470 0D35                             u6710 05CE  
                           u6630 0506                             u5830 0400                             u5750 0359  
                           u5670 02B9                             u5590 0120                             u5911 08C7  
                           u6391 0AB6                             u6375 0AA6                             u4791 1F9D  
                           u4871 1EEA                             u4855 11E5                             u4951 1669  
                           u6615 0DFA                             u6551 0DA8                             u6535 0D85  
                           u6471 0D34                             u7087 1729                             u6711 05CD  
                           u6631 0505                             u5831 03FF                             u5751 0358  
                           u5671 02B8                             u5591 011F                             u5920 08DF  
                           u4880 1EF8                             u6560 0DC2                             u6480 0D44  
                           u6720 05F0                             u6640 0531                             u5840 0421  
                           u5760 037A                             u5680 02BE                             u6800 071B  
                           u7097 1FA9                             u4881 1EF7                             u6561 0DC1  
                           u6481 0D43                             u6721 05EF                             u6641 0530  
                           u5841 0420                             u5761 0379                             u5681 02BD  
                           u6801 071A                             u5930 08F3                             u6570 0DC9  
                           u6490 0D55                             u6730 05F9                             u6650 054A  
                           u5850 042A                             u5770 0383                             u5690 02D2  
                           u4890 0A06                             u6810 0720                             u5931 08F2  
                           u4955 1666                             u6571 0DC8                             u6555 0DA5  
                           u6491 0D54                             u6475 0D31                             u6731 05F8  
                           u6651 0549                             u5851 0429                             u5771 0382  
                           u5691 02D1                             u4891 0A05                             u6811 071F  
                           u5940 08FA                             u6580 0DD0                             u6740 0612  
                           u6660 0570                             u5860 044C                             u5780 03A5  
                           u6820 072D                             u6900 1565                             u5941 08F9  
                           u5925 08DA                             u6581 0DCF                             u6741 0611  
                           u6661 056F                             u5861 044B                             u5781 03A4  
                           u4965 1508                             u5693 02CE          __end_of_view_log_events 0A34  
                           u6821 072C                             u6901 1564                             u6590 0DDE  
                           u4990 173F                             u6750 0632                             u6670 0593  
                           u5870 0455                             u5790 03AE                             u6830 0734  
                           u6910 1574                             u6591 0DDD                             u6495 0D51  
                           u4991 173E                             u6751 0631                             u6671 0592  
                           u5871 0454                             u5791 03AD                             u4975 151B  
                           u4895 0A02                             u6831 0733                             u6911 1573  
                           u5960 090C                             u6760 067B                             u6680 059C  
                           u5880 046E                             u6840 0783                             u6920 1579  
                           u5961 090B                             u6761 067A                             u6681 059B  
                           u5881 046D                             u4985 152E                             u6841 0782  
                           u6921 1578                             u5970 0913                             u6770 06A4  
                           u6690 05AE                             u5890 0480                             u6850 0793  
                           u6930 158E                             u5971 0912                             u5955 08FC  
                           u6595 0DDA                             u6771 06A3                             u6691 05AD  
                           u5891 047F                             u6851 0792                             u6931 158D  
                           u6860 0798                             u6940 1599                             u6781 06D1  
                           u6861 0797                             u6941 1598                             u5990 0924  
                           u6782 06D4                             u6870 07A5                             u6790 0709  
                           u5991 0923                             u6783 06DB                             u6871 07A4  
                           u6791 0708                             u6784 06DE                             u6880 07AF  
                           u5985 0916                             u6785 06E5                             u6881 07AE  
                           u6786 06E8                             u6890 07DA                             u6891 07D9  
                           u6957 0BD3                             u6967 0B08                             u6977 13C9  
                           u6987 04B1                             u6997 04F1                             _TMR0 0001  
                           _SPEN 00C7                             _TXIE 0464                             _TXEN 04C5  
                           _TXIF 0064                             _SYNC 04C4                   ??_eeprom_write 0074  
                           _R_nW 04A2                             _addr 00BC                  menu@long_press1 0067  
                menu@long_press2 0078                             _main 1559                             _menu 06FA  
                           _time 00CB                             btemp 007E                             _puts 1FDA  
                           start 000E                  ___fldiv@new_exp 0040                ___bmul@multiplier 0075  
                   print_sec@sec 0031                     print_sec@pos 0035                   clcd_write@byte 0076  
                 clcd_write@mode 0073            change_psswd@blink_pos 003B                    _i2c_rep_start 1E45  
                          ??_isr 0070                     ?_init_ds1307 0070                   login@blink_pos 0068  
                  ___fltol@sign1 0050                   ??_display_menu 0024                            ?_main 0070  
                   ?_read_ds1307 0070                            _ACKEN 048C                            _ACKDT 048D  
                 ??_display_time 0077                            ?_menu 0070                  __end_of___fldiv 1000  
                          _EEADR 010D                            STR_10 10BB                            STR_11 1079  
                          STR_12 10DA                            STR_20 10F7                            STR_21 1112  
                          STR_13 108A                            STR_14 1133                            STR_22 10AB  
                          STR_30 1024                            STR_15 1156                            STR_23 1057  
                          STR_31 1013                            STR_32 109B                            STR_24 1068  
                          STR_16 1146                            STR_25 111E                            STR_33 10CB  
                          STR_17 1129                            STR_34 10E9                            STR_26 1000  
                          STR_18 1105                            STR_27 114F                            STR_19 113D  
                          STR_28 1046                  __end_of___awmod 160E                            STR_29 1035  
                __end_of___fltol 0935                            ?_puts 0074                  __end_of___lldiv 1795  
                    i2c_read@ack 0073                  __end_of___llmod 1501                  __end_of___lwdiv 145E  
                __end_of___lwmod 131D                            i1l384 16C1                     ?_init_config 0070  
                          _RCREG 001A                            _SPBRG 0099                            _PORTB 0006  
                          _PORTD 0008                            _SSPM3 00A3                            _TRISB 0086  
                          _TRISD 0088                            _SSPEN 00A5                            _TXREG 0019  
                    _write_event 1223                            _nDONE 00FA                      _write_speed 1F5E  
                          _clear 00C7                            _index 007A                            _login 04FA  
                          _speed 00DE                            pclath 000A                            puts@s 0074  
                __end_of_putchar 1E7C                            status 0003                            wtemp0 007E  
              write_password@ind 0076                write_password@str 0075                    print_sec@F955 00AE  
               init_ds1307@dummy 0077                  __initialization 0011                   ?_i2c_rep_start 0070  
                   __end_of_main 15B3           change_psswd@blink_flag 0038                     __end_of_menu 07DD  
                   __end_of_puts 2000                 __end_of_i2c_read 1FDA                 __end_of_i2c_stop 1E32  
           login@no_attempt_left 00E8                           ??_main 0056                           ??_menu 0040  
                         ??_puts 0076                  login@blink_flag 0069                 ___llmod@dividend 0024  
                         _ADRESH 001E                           ?_login 0070                           _ADRESL 009E  
                         _EEDATA 010C                           _EECON1 018C                           _EECON2 018D  
                   i2c_read@data 0074                 ??_write_password 0075                           i1l4601 166F  
                         i1l4611 16B0                           i1l4603 1675                           i1l4605 167A  
                         i1l4613 16C0                           i1l4607 1695                           i1l4609 169F  
                         i1l4599 166B                 ?_view_log_events 0070                     _write_ds1307 1F7B  
                         u473_20 166F                           u473_21 166E                           u474_20 167A  
                         u474_21 1679                           u475_20 1695                           u475_21 1694  
                         u476_20 16B0                           u476_21 16AF                           u476_23 16AC  
                         _TMR0IE 005D                           _TMR0IF 005A                 ??_write_time_rtc 0076  
                         _SSPADD 0093                           _TRISE1 0449                           _TRISE2 044A  
                         _SSPBUF 0013                 __end_of___xxtofl 0AEE      __end_of_init_digital_keypad 1E11  
               __end_of_get_time 07FE                           ___bmul 1EE5          _init_display_controller 16CA  
                         ___wmul 11CD                        ??___fldiv 0036                        ??___awmod 0077  
                      ??___fltol 004C                        ??___lldiv 0073                        ??___llmod 0073  
                      ??___lwdiv 0077                        ??___lwmod 0077                           _count2 00B2  
               __end_of_download 0BAB                 __end_of_init_i2c 12E3                 __end_of_init_adc 1E18  
                         _events 01C0                 __end_of_read_adc 1E9B                  ___awmod@divisor 0073  
           __end_of_eeprom_write 127C                  ___awmod@counter 0020                     __pdataCOMMON 0078  
                         login@i 003D                 __end_of_set_time 02F4                           saved_w 007E  
                      ??_putchar 0073                     ___xxtofl@arg 002A                     ___xxtofl@exp 0029  
                   ___xxtofl@val 0020          __end_of__initialization 0061                  eeprom_read@addr 0073  
           __end_of_display_menu 09AE             __end_of_display_time 1800                       ___fltol@f1 0048  
                ??_i2c_rep_start 0073              ___bmul@multiplicand 0073                     _change_psswd 02F4  
                 print_sec@count 002D                   __pcstackCOMMON 0070              change_psswd@confirm 002A  
                   __pidataBANK0 1E3B                     __pidataBANK1 1E32                     __pidataBANK3 1F42  
            change_psswd@attempt 0026                _ind@download$F463 00C6                    __end_of_login 06FA  
              __end_of_i2c_start 1E29                __end_of_i2c_write 1E5B                 _ext_eeprom_write 160E  
              eeprom_write@value 0073                _i2c_wait_for_idle 1E7C                          ??_login 0038  
             ?_i2c_wait_for_idle 0070                       __pbssBANK0 0059                       __pbssBANK1 00A0  
                     __pbssBANK3 0190                        ?_i2c_read 0070                        ?_i2c_stop 0070  
              change_psswd@index 0039                change_psswd@wait2 0028        ??_init_display_controller 0020  
                     _clcd_print 127C              ??_i2c_wait_for_idle 0073                       _clcd_putch 1EFA  
                     _clcd_write 1F99                  change_psswd@key 0037                       _clear_clcd 1EAD  
                     __pmaintext 1559                ??_write_event_log 0024                  read_ds1307@addr 0075  
                read_ds1307@data 0076                          ?___bmul 0073                          ?___wmul 0073  
                     __pintentry 0004              set_time@long_press1 0039              set_time@long_press2 003A  
                        _ACKSTAT 048E      __end_of_read_digital_keypad 11A2                        ?___xxtofl 0020  
      __end_of_i2c_wait_for_idle 1E89                     ?_write_event 0073                     init_i2c@baud 002D  
                   ?_write_speed 0070                          _SSPCON2 0091                        ?_get_time 0070  
                     __stringtab 1800                       ??_i2c_read 0073                __end_of_dashboard 0E31  
                     ??_i2c_stop 0073                        ?_download 0070                        ?_init_i2c 002D  
                      ?_init_adc 0070                        ?_read_adc 0073                __end_of_clear_arr 1EAD  
              __end_of_clear_log 13D5                   menu@dkp4_press 00C0                   menu@dkp5_press 00BE  
              ??_ext_eeprom_read 0075                        ?_set_time 0070                          ___fldiv 0E31  
                        ___awmod 15B3                          ___fltol 08BD                          ___lldiv 172D  
                        ___llmod 14AB                          ___lwdiv 1418                          ___lwmod 12E3  
                     _init_timer 1E66                          __ptext1 06FA                          __ptext2 0BAB  
                        __ptext3 09AE                          __ptext4 0065                          __ptext5 1501  
                        __ptext6 15B3                          __ptext7 0AEE                          __ptext8 1FDA  
                        __ptext9 1E71  __end_of_init_display_controller 172D                __end_of_init_clcd 1E66  
               set_time@time_key 003D                       ??___xxtofl 0024                __end_of_init_uart 1396  
               ___awmod@dividend 0075                       dashboard@i 0063                       dashboard@j 01DF  
                        _putchar 1E71                          main@key 0058                          clrloop0 1E19  
                     ??_get_time 0077             end_of_initialization 0061                      set_time@F64 00E5  
                    set_time@F67 00B6                       ??_download 0023                       ??_init_i2c 0074  
                     ??_init_adc 0073                     _eeprom_write 124F                       ??_read_adc 0075  
               write_event@event 0073                      ?_clcd_print 0020                      ?_clcd_putch 0077  
                ___lldiv@divisor 0020                      ?_clcd_write 0073                __end_of_my_strcmp 1418  
                ___lldiv@counter 002C                      ?_clear_clcd 0070                __end_of_print_sec 08BD  
                     ??_set_time 0023                __end_of_view_logs 0C73                 write_event_log@i 0077  
                   __pstringtext 1000                       _timer_flag 0062                ext_eeprom_write@i 0023  
                   _display_menu 0935                     _display_time 1795                    i2c_write@data 0073  
                  ___xxtofl@sign 0028                      ___fldiv@grs 0042                      ___fldiv@rem 003B  
                  clcd_print@str 0020                    ??_eeprom_read 0073                     login@attempt 00C4  
       __end_of_ext_eeprom_write 166B                 login@passwd_flag 0060                   __end_of___bmul 1EFA  
                 __end_of___wmul 11F8                    __pidataCOMMON 07FE                      ?_init_timer 0070  
                     _write_time 0803                   menu@scroll_key 005D              start_initialization 0011  
                      _i2c_start 1E20                      __end_of_isr 16CA                        _i2c_write 1E50  
             dashboard@event_key 01DE                  _write_event_log 145E                  ___llmod@divisor 0020  
                ___llmod@counter 0074                      putchar@data 0073            __end_of_i2c_rep_start 1E50  
                       ??___bmul 0074                         ??___wmul 0077              __end_of_eeprom_read 1F26  
                     init_fetch0 1ED2                 write_speed@speed 0073                    ??_init_ds1307 0077  
                    __pdataBANK0 0065                      __pdataBANK1 00E5                      __pdataBANK3 01C0  
                  ??_read_ds1307 0075                     _download_log 0190                    ??_init_config 0078  
                      ___fldiv@a 002E                        ___fldiv@b 0032              write_time@clock_reg 0074  
                    __pbssCOMMON 007A                        ___latbits 0002                       login@index 0059  
                  __pcstackBANK0 0020                    __pcstackBANK3 01DC                       ?_i2c_start 0070  
                     ?_i2c_write 0070               set_time@key_press1 0035               set_time@key_press2 0031  
                _ext_eeprom_read 11F8                 eeprom_write@addr 0074                 change_psswd@F920 00A0  
               change_psswd@F918 00A5                 change_psswd@wait 0035                 change_psswd@user 002F  
                      _dash_flag 006C         change_psswd@confirm_flag 0034                        _dashboard 0C73  
               ___lwdiv@dividend 0075                        _clear_arr 1E9B                        _clear_log 1396  
                       ?___fldiv 002E                         ?___awmod 0073                         ?___fltol 0048  
                       ?___lldiv 0020                         ?___llmod 0020                         ?___lwdiv 0073  
                      _clock_reg 00E2                         ?___lwmod 0073                      ?_write_time 0070  
                      __pstrings 1800                ??_view_log_events 0023              __end_of_init_ds1307 1ED2  
        __end_of_write_event_log 14AB              read_adc@adc_reg_val 0075              __end_of_read_ds1307 11CD  
                      _event_log 01B1                 ___lwdiv@quotient 0021                         ?_putchar 0070  
                      _init_clcd 1E5B               set_time@time_digit 003E               set_time@time_field 0027  
            __end_of_init_config 1357                        _init_uart 1357                      _clock_write 00B9  
                  ?_write_ds1307 0074         ?_init_display_controller 0070                interrupt_function 0004  
                 ___wmul@product 0020               login@total_attempt 00EA                        clear_ram0 1E18  
                    _eeprom_read 1F0F                     ??_clcd_print 0077                     ??_clcd_putch 0078  
                   ??_clcd_write 0074                       ?_dashboard 0070                     ??_clear_clcd 0020  
                     ?_clear_arr 0070                       ?_clear_log 0070                    download@index 0028  
                      _my_strcmp 13D5                     dashboard@reg 01DC                        _print_sec 084C  
                      _view_logs 0BAB                      __stringbase 1812                ___wmul@multiplier 0073  
        __end_of_ext_eeprom_read 1223                       print_sec@i 0036                      ??_i2c_start 0073  
             __end_of_clcd_print 12AF                      ??_i2c_write 0073               __end_of_clcd_putch 1F0F  
             __end_of_clcd_write 1FB9                       ?_init_clcd 0070               __end_of_clear_clcd 1EBF  
                  _set_time_flag 005F                       ?_init_uart 002D                   ??_write_ds1307 0075  
            _init_digital_keypad 1E0B                         _i2c_read 1FB9                         _i2c_stop 1E29  
              set_time@blink_pos 003C                     clear_arr@arr 0073                get_time@clock_reg 0077  
                     _EECON1bits 018C                     _passwd_reset 0061                        download@i 0026  
              ?_ext_eeprom_write 0070                    ?_change_psswd 0070                    set_time@blink 002A  
                 _write_password 1F26               ??_ext_eeprom_write 0077                   _write_time_rtc 1501  
                     ?_my_strcmp 0073             ?_init_digital_keypad 0070                      _init_ds1307 1EBF  
                     ?_print_sec 002D                      _event_count 006D                     ??_init_timer 0073  
                     ?_view_logs 0070                        login@wait 00C2                        login@user 00D4  
             __end_of__stringtab 1812                      _read_ds1307 11A2                      _init_config 131D  
                       ___xxtofl 0A34                 ?_write_event_log 0070                  ___lwdiv@divisor 0073  
                ___lwdiv@counter 0020                         __ptext10 11F8                         __ptext11 0935  
                       __ptext20 124F                         __ptext12 1396                         __ptext21 1F0F  
                       __ptext13 02F4                         __ptext30 1EBF                         __ptext22 1EAD  
                       __ptext14 1F26                         __ptext31 1F7B                         __ptext23 1E9B  
                       __ptext15 04FA                         __ptext40 1223                         __ptext32 1E0B  
                       __ptext24 1EFA                         __ptext16 1178                         __ptext41 160E  
                       __ptext33 1E5B                         __ptext25 131D                         __ptext17 084C  
                       __ptext50 1E20                         __ptext42 11CD                         __ptext34 16CA  
                       __ptext26 1357                         __ptext18 14AB                         __ptext51 1FB9  
                       __ptext43 1EE5                         __ptext35 1E11                         __ptext27 1E66  
                       __ptext19 13D5                         __ptext60 0E31                         __ptext52 1E7C  
                       __ptext44 1E89                         __ptext36 0C73                         __ptext28 12AF  
                       __ptext61 166B                         __ptext53 1795                         __ptext45 07DD  
                       __ptext37 145E                         __ptext29 172D                         __ptext54 127C  
                       __ptext46 11A2                         __ptext38 0803                         __ptext55 1F99  
                       __ptext47 1E50                         __ptext39 1F5E                         __ptext56 0A34  
                       __ptext48 1E45                         __ptext57 12E3                         __ptext49 1E29  
                       __ptext58 1418                         __ptext59 08BD                         _get_time 07DD  
                    _menu_select 005E                         _event_10 0065                         _download 0AEE  
                       _init_i2c 12AF                         _init_adc 1E11                         _read_adc 1E89  
        read_digital_keypad@mode 0074          read_digital_keypad@once 0079               __end_of_init_timer 1E71  
                       _no_event 006B           __end_of_write_password 1F42                   ??_change_psswd 0023  
                    ??_dashboard 0052                         _password 00D9            display_time@clock_reg 0023  
                    ??_clear_arr 0073           __end_of_write_time_rtc 1559                      ??_clear_log 0023  
                       _set_time 0065                 view_logs@log_key 005B                         _view_log 01A1  
               display_menu@menu 0027                 view_log_events@i 0025            ??_init_digital_keypad 0073  
            ext_eeprom_read@addr 0075              ext_eeprom_read@data 0076                       _INTCONbits 000B  
                    _passwd_read 006A                    ??_write_event 0075                 ?_ext_eeprom_read 0070  
                       isr@count 00AA                    ??_write_speed 0073                     set_time@flag 003B  
                   set_time@wait 002D                         init_ram0 1ED6                      ??_init_clcd 0077  
                    ??_init_uart 0074                         login@key 003C                         intlevel1 0000  
                  init_uart@baud 002D                 ___lwmod@dividend 0075                 ___lldiv@dividend 0024  
                ?_write_password 0070                  _view_log_events 09AE                        stringcode 180A  
                ?_write_time_rtc 0070                  view_logs@log_no 005C          display_menu@menu_select 0023  
                view_logs@press4 00C9                  view_logs@press5 00C8                      ??_my_strcmp 0075  
                    ??_print_sec 0077             __end_of_write_ds1307 1F99              _read_digital_keypad 1178  
                    ??_view_logs 0028                     ??_write_time 0073                 ___lldiv@quotient 0028  
                ___lwmod@divisor 0073                  ___lwmod@counter 0077                         stringtab 1800  
      ext_eeprom_write@event_log 0022             ?_read_digital_keypad 0070                 write_ds1307@addr 0075  
               write_ds1307@data 0074                      _pwd_success 0064              __end_of_write_event 124F  
            __end_of_write_speed 1F7B                    ?_eeprom_write 0073                      _option_menu 01D2  
                     _STATUSbits 0003                     ?_eeprom_read 0070               __end_of_write_time 084C  
           view_logs@long_press1 00ED             view_logs@long_press2 00EC            view_log_events@log_no 0027  
